0:Math_pow
1:abort
2:enlargeMemory
3:getTotalMemory
4:abortOnCannotGrowMemory
5:invoke_diii
6:invoke_fifffi
7:invoke_fiffi
8:invoke_i
9:invoke_ii
10:invoke_iii
11:invoke_iiidi
12:invoke_iiii
13:invoke_iiiii
14:invoke_iiiiii
15:invoke_iiiiiii
16:invoke_iiiiiiii
17:invoke_iiiiiiiiiii
18:invoke_v
19:invoke_vi
20:invoke_vii
21:invoke_viidi
22:invoke_viiff
23:invoke_viiffi
24:invoke_viifi
25:invoke_viii
26:invoke_viiii
27:invoke_viiiii
28:invoke_viiiiii
29:invoke_viiiiiii
30:invoke_viiiiiiii
31:_JS_Cursor_SetImage
32:_JS_Cursor_SetShow
33:_JS_Eval_ClearTimeout
34:_JS_Eval_SetTimeout
35:_JS_FileSystem_SetSyncInterval
36:_JS_FileSystem_Sync
37:_JS_Log_StackTrace
38:_JS_Sound_Create_Channel
39:_JS_Sound_GetLength
40:_JS_Sound_GetLoadState
41:_JS_Sound_Init
42:_JS_Sound_Load
43:_JS_Sound_Load_PCM
44:_JS_Sound_Play
45:_JS_Sound_ReleaseInstance
46:_JS_Sound_Set3D
47:_JS_Sound_SetListenerOrientation
48:_JS_Sound_SetListenerPosition
49:_JS_Sound_SetLoop
50:_JS_Sound_SetLoopPoints
51:_JS_Sound_SetPitch
52:_JS_Sound_SetPosition
53:_JS_Sound_SetVolume
54:_JS_Sound_Stop
55:_JS_SystemInfo_GetBrowserName
56:_JS_SystemInfo_GetBrowserVersionString
57:_JS_SystemInfo_GetCurrentCanvasHeight
58:_JS_SystemInfo_GetCurrentCanvasWidth
59:_JS_SystemInfo_GetDocumentURL
60:_JS_SystemInfo_GetGPUInfo
61:_JS_SystemInfo_GetHeight
62:_JS_SystemInfo_GetLanguage
63:_JS_SystemInfo_GetMemory
64:_JS_SystemInfo_GetOS
65:_JS_SystemInfo_GetWidth
66:_JS_SystemInfo_HasCursorLock
67:_JS_SystemInfo_HasFullscreen
68:_JS_SystemInfo_HasWebGL
69:_JS_WebGL_InitContextAttributes
70:_JS_WebRequest_Abort
71:_JS_WebRequest_Create
72:_JS_WebRequest_GetResponseHeaders
73:_JS_WebRequest_Release
74:_JS_WebRequest_Send
75:_JS_WebRequest_SetProgressHandler
76:_JS_WebRequest_SetRequestHeader
77:_JS_WebRequest_SetResponseHandler
78:_JS_WebRequest_SetTimeout
79:_SDL_GL_SwapBuffers
80:___cxa_allocate_exception
81:___cxa_begin_catch
82:___cxa_end_catch
83:___cxa_find_matching_catch_2
84:___cxa_find_matching_catch_3
85:___cxa_find_matching_catch_4
86:___cxa_free_exception
87:___cxa_pure_virtual
88:___cxa_rethrow
89:___cxa_throw
90:___lock
91:___map_file
92:___resumeException
93:___setErrNo
94:___syscall10
95:___syscall122
96:___syscall140
97:___syscall145
98:___syscall146
99:___syscall15
100:___syscall168
101:___syscall183
102:___syscall192
103:___syscall193
104:___syscall194
105:___syscall195
106:___syscall196
107:___syscall197
108:___syscall199
109:___syscall220
110:___syscall221
111:___syscall268
112:___syscall3
113:___syscall33
114:___syscall38
115:___syscall39
116:___syscall4
117:___syscall40
118:___syscall41
119:___syscall42
120:___syscall5
121:___syscall54
122:___syscall6
123:___syscall85
124:___syscall91
125:___unlock
126:_abort
127:_atexit
128:_clock
129:_clock_getres
130:_clock_gettime
131:_difftime
132:_emscripten_asm_const_iii
133:_emscripten_exit_fullscreen
134:_emscripten_exit_pointerlock
135:_emscripten_get_fullscreen_status
136:_emscripten_get_gamepad_status
137:_emscripten_get_main_loop_timing
138:_emscripten_get_now
139:_emscripten_get_num_gamepads
140:_emscripten_glActiveTexture
141:_emscripten_glAttachShader
142:_emscripten_glBindAttribLocation
143:_emscripten_glBindBuffer
144:_emscripten_glBindFramebuffer
145:_emscripten_glBindProgramARB
146:_emscripten_glBindRenderbuffer
147:_emscripten_glBindTexture
148:_emscripten_glBindVertexArray
149:_emscripten_glBlendColor
150:_emscripten_glBlendEquation
151:_emscripten_glBlendEquationSeparate
152:_emscripten_glBlendFunc
153:_emscripten_glBlendFuncSeparate
154:_emscripten_glBufferData
155:_emscripten_glBufferSubData
156:_emscripten_glCheckFramebufferStatus
157:_emscripten_glClear
158:_emscripten_glClearColor
159:_emscripten_glClearDepth
160:_emscripten_glClearDepthf
161:_emscripten_glClearStencil
162:_emscripten_glClientActiveTexture
163:_emscripten_glColorMask
164:_emscripten_glColorPointer
165:_emscripten_glCompileShader
166:_emscripten_glCompressedTexImage2D
167:_emscripten_glCompressedTexSubImage2D
168:_emscripten_glCopyTexImage2D
169:_emscripten_glCopyTexSubImage2D
170:_emscripten_glCreateProgram
171:_emscripten_glCreateShader
172:_emscripten_glCullFace
173:_emscripten_glDeleteBuffers
174:_emscripten_glDeleteFramebuffers
175:_emscripten_glDeleteObjectARB
176:_emscripten_glDeleteProgram
177:_emscripten_glDeleteRenderbuffers
178:_emscripten_glDeleteShader
179:_emscripten_glDeleteTextures
180:_emscripten_glDeleteVertexArrays
181:_emscripten_glDepthFunc
182:_emscripten_glDepthMask
183:_emscripten_glDepthRange
184:_emscripten_glDepthRangef
185:_emscripten_glDetachShader
186:_emscripten_glDisable
187:_emscripten_glDisableVertexAttribArray
188:_emscripten_glDrawArrays
189:_emscripten_glDrawArraysInstanced
190:_emscripten_glDrawBuffers
191:_emscripten_glDrawElements
192:_emscripten_glDrawElementsInstanced
193:_emscripten_glDrawRangeElements
194:_emscripten_glEnable
195:_emscripten_glEnableClientState
196:_emscripten_glEnableVertexAttribArray
197:_emscripten_glFinish
198:_emscripten_glFlush
199:_emscripten_glFramebufferRenderbuffer
200:_emscripten_glFramebufferTexture2D
201:_emscripten_glFrontFace
202:_emscripten_glFrustum
203:_emscripten_glGenBuffers
204:_emscripten_glGenFramebuffers
205:_emscripten_glGenRenderbuffers
206:_emscripten_glGenTextures
207:_emscripten_glGenVertexArrays
208:_emscripten_glGenerateMipmap
209:_emscripten_glGetActiveAttrib
210:_emscripten_glGetActiveUniform
211:_emscripten_glGetAttachedShaders
212:_emscripten_glGetAttribLocation
213:_emscripten_glGetBooleanv
214:_emscripten_glGetBufferParameteriv
215:_emscripten_glGetError
216:_emscripten_glGetFloatv
217:_emscripten_glGetFramebufferAttachmentParameteriv
218:_emscripten_glGetInfoLogARB
219:_emscripten_glGetIntegerv
220:_emscripten_glGetObjectParameterivARB
221:_emscripten_glGetPointerv
222:_emscripten_glGetProgramInfoLog
223:_emscripten_glGetProgramiv
224:_emscripten_glGetRenderbufferParameteriv
225:_emscripten_glGetShaderInfoLog
226:_emscripten_glGetShaderPrecisionFormat
227:_emscripten_glGetShaderSource
228:_emscripten_glGetShaderiv
229:_emscripten_glGetString
230:_emscripten_glGetTexParameterfv
231:_emscripten_glGetTexParameteriv
232:_emscripten_glGetUniformLocation
233:_emscripten_glGetUniformfv
234:_emscripten_glGetUniformiv
235:_emscripten_glGetVertexAttribPointerv
236:_emscripten_glGetVertexAttribfv
237:_emscripten_glGetVertexAttribiv
238:_emscripten_glHint
239:_emscripten_glIsBuffer
240:_emscripten_glIsEnabled
241:_emscripten_glIsFramebuffer
242:_emscripten_glIsProgram
243:_emscripten_glIsRenderbuffer
244:_emscripten_glIsShader
245:_emscripten_glIsTexture
246:_emscripten_glIsVertexArray
247:_emscripten_glLineWidth
248:_emscripten_glLinkProgram
249:_emscripten_glLoadIdentity
250:_emscripten_glLoadMatrixf
251:_emscripten_glMatrixMode
252:_emscripten_glNormalPointer
253:_emscripten_glPixelStorei
254:_emscripten_glPolygonOffset
255:_emscripten_glReadPixels
256:_emscripten_glReleaseShaderCompiler
257:_emscripten_glRenderbufferStorage
258:_emscripten_glRotatef
259:_emscripten_glSampleCoverage
260:_emscripten_glScissor
261:_emscripten_glShaderBinary
262:_emscripten_glShaderSource
263:_emscripten_glStencilFunc
264:_emscripten_glStencilFuncSeparate
265:_emscripten_glStencilMask
266:_emscripten_glStencilMaskSeparate
267:_emscripten_glStencilOp
268:_emscripten_glStencilOpSeparate
269:_emscripten_glTexCoordPointer
270:_emscripten_glTexImage2D
271:_emscripten_glTexParameterf
272:_emscripten_glTexParameterfv
273:_emscripten_glTexParameteri
274:_emscripten_glTexParameteriv
275:_emscripten_glTexSubImage2D
276:_emscripten_glUniform1f
277:_emscripten_glUniform1fv
278:_emscripten_glUniform1i
279:_emscripten_glUniform1iv
280:_emscripten_glUniform2f
281:_emscripten_glUniform2fv
282:_emscripten_glUniform2i
283:_emscripten_glUniform2iv
284:_emscripten_glUniform3f
285:_emscripten_glUniform3fv
286:_emscripten_glUniform3i
287:_emscripten_glUniform3iv
288:_emscripten_glUniform4f
289:_emscripten_glUniform4fv
290:_emscripten_glUniform4i
291:_emscripten_glUniform4iv
292:_emscripten_glUniformMatrix2fv
293:_emscripten_glUniformMatrix3fv
294:_emscripten_glUniformMatrix4fv
295:_emscripten_glUseProgram
296:_emscripten_glValidateProgram
297:_emscripten_glVertexAttrib1f
298:_emscripten_glVertexAttrib1fv
299:_emscripten_glVertexAttrib2f
300:_emscripten_glVertexAttrib2fv
301:_emscripten_glVertexAttrib3f
302:_emscripten_glVertexAttrib3fv
303:_emscripten_glVertexAttrib4f
304:_emscripten_glVertexAttrib4fv
305:_emscripten_glVertexAttribDivisor
306:_emscripten_glVertexAttribPointer
307:_emscripten_glVertexPointer
308:_emscripten_glViewport
309:_emscripten_is_webgl_context_lost
310:_emscripten_memcpy_big
311:_emscripten_request_fullscreen
312:_emscripten_request_pointerlock
313:_emscripten_set_blur_callback
314:_emscripten_set_canvas_size
315:_emscripten_set_devicemotion_callback
316:_emscripten_set_deviceorientation_callback
317:_emscripten_set_focus_callback
318:_emscripten_set_fullscreenchange_callback
319:_emscripten_set_keydown_callback
320:_emscripten_set_keypress_callback
321:_emscripten_set_keyup_callback
322:_emscripten_set_main_loop
323:_emscripten_set_main_loop_timing
324:_emscripten_set_mousedown_callback
325:_emscripten_set_mousemove_callback
326:_emscripten_set_mouseup_callback
327:_emscripten_set_touchcancel_callback
328:_emscripten_set_touchend_callback
329:_emscripten_set_touchmove_callback
330:_emscripten_set_touchstart_callback
331:_emscripten_set_wheel_callback
332:_emscripten_webgl_create_context
333:_emscripten_webgl_destroy_context
334:_emscripten_webgl_enable_extension
335:_emscripten_webgl_get_current_context
336:_emscripten_webgl_make_context_current
337:_exit
338:_flock
339:_getenv
340:_getpwuid
341:_gettimeofday
342:_glActiveTexture
343:_glAttachShader
344:_glBeginQuery
345:_glBeginTransformFeedback
346:_glBindAttribLocation
347:_glBindBuffer
348:_glBindBufferBase
349:_glBindFramebuffer
350:_glBindRenderbuffer
351:_glBindSampler
352:_glBindTexture
353:_glBindTransformFeedback
354:_glBindVertexArray
355:_glBlendEquation
356:_glBlendEquationSeparate
357:_glBlendFuncSeparate
358:_glBlitFramebuffer
359:_glBufferData
360:_glBufferSubData
361:_glCheckFramebufferStatus
362:_glClear
363:_glClearColor
364:_glClearDepthf
365:_glClearStencil
366:_glColorMask
367:_glCompileShader
368:_glCompressedTexImage2D
369:_glCompressedTexSubImage2D
370:_glCompressedTexSubImage3D
371:_glCopyBufferSubData
372:_glCopyTexImage2D
373:_glCopyTexSubImage2D
374:_glCreateProgram
375:_glCreateShader
376:_glCullFace
377:_glDeleteBuffers
378:_glDeleteFramebuffers
379:_glDeleteProgram
380:_glDeleteQueries
381:_glDeleteRenderbuffers
382:_glDeleteSamplers
383:_glDeleteShader
384:_glDeleteSync
385:_glDeleteTextures
386:_glDeleteTransformFeedbacks
387:_glDeleteVertexArrays
388:_glDepthFunc
389:_glDepthMask
390:_glDetachShader
391:_glDisable
392:_glDisableVertexAttribArray
393:_glDrawArrays
394:_glDrawArraysInstanced
395:_glDrawBuffers
396:_glDrawElements
397:_glDrawElementsInstanced
398:_glEnable
399:_glEnableVertexAttribArray
400:_glEndQuery
401:_glEndTransformFeedback
402:_glFenceSync
403:_glFinish
404:_glFlush
405:_glFlushMappedBufferRange
406:_glFramebufferRenderbuffer
407:_glFramebufferTexture2D
408:_glFramebufferTextureLayer
409:_glFrontFace
410:_glGenBuffers
411:_glGenFramebuffers
412:_glGenQueries
413:_glGenRenderbuffers
414:_glGenSamplers
415:_glGenTextures
416:_glGenTransformFeedbacks
417:_glGenVertexArrays
418:_glGenerateMipmap
419:_glGetActiveAttrib
420:_glGetActiveUniform
421:_glGetActiveUniformBlockName
422:_glGetActiveUniformBlockiv
423:_glGetActiveUniformsiv
424:_glGetAttribLocation
425:_glGetError
426:_glGetFramebufferAttachmentParameteriv
427:_glGetIntegeri_v
428:_glGetIntegerv
429:_glGetProgramBinary
430:_glGetProgramInfoLog
431:_glGetProgramiv
432:_glGetRenderbufferParameteriv
433:_glGetShaderInfoLog
434:_glGetShaderPrecisionFormat
435:_glGetShaderSource
436:_glGetShaderiv
437:_glGetString
438:_glGetStringi
439:_glGetTexParameteriv
440:_glGetUniformBlockIndex
441:_glGetUniformIndices
442:_glGetUniformLocation
443:_glGetUniformiv
444:_glGetVertexAttribiv
445:_glInvalidateFramebuffer
446:_glIsEnabled
447:_glIsVertexArray
448:_glLinkProgram
449:_glMapBufferRange
450:_glPixelStorei
451:_glPolygonOffset
452:_glProgramBinary
453:_glProgramParameteri
454:_glReadBuffer
455:_glReadPixels
456:_glRenderbufferStorage
457:_glRenderbufferStorageMultisample
458:_glSamplerParameteri
459:_glScissor
460:_glShaderSource
461:_glStencilFuncSeparate
462:_glStencilMask
463:_glStencilOpSeparate
464:_glTexImage2D
465:_glTexImage3D
466:_glTexParameterf
467:_glTexParameteri
468:_glTexParameteriv
469:_glTexStorage2D
470:_glTexStorage3D
471:_glTexSubImage2D
472:_glTexSubImage3D
473:_glTransformFeedbackVaryings
474:_glUniform1fv
475:_glUniform1i
476:_glUniform1iv
477:_glUniform1uiv
478:_glUniform2fv
479:_glUniform2iv
480:_glUniform2uiv
481:_glUniform3fv
482:_glUniform3iv
483:_glUniform3uiv
484:_glUniform4fv
485:_glUniform4iv
486:_glUniform4uiv
487:_glUniformBlockBinding
488:_glUniformMatrix3fv
489:_glUniformMatrix4fv
490:_glUnmapBuffer
491:_glUseProgram
492:_glValidateProgram
493:_glVertexAttrib4f
494:_glVertexAttrib4fv
495:_glVertexAttribIPointer
496:_glVertexAttribPointer
497:_glViewport
498:_gmtime
499:_llvm_eh_typeid_for
500:_llvm_exp2_f32
501:_llvm_trap
502:_localtime
503:_longjmp
504:_mktime
505:_pthread_attr_destroy
506:_pthread_attr_init
507:_pthread_cond_destroy
508:_pthread_cond_init
509:_pthread_cond_signal
510:_pthread_cond_timedwait
511:_pthread_cond_wait
512:_pthread_create
513:_pthread_detach
514:_pthread_getspecific
515:_pthread_key_create
516:_pthread_key_delete
517:_pthread_mutex_destroy
518:_pthread_mutex_init
519:_pthread_mutexattr_destroy
520:_pthread_mutexattr_init
521:_pthread_mutexattr_settype
522:_pthread_once
523:_pthread_setspecific
524:_setenv
525:_strftime
526:_sysconf
527:_time
528:_unsetenv
529:_utime
530:legalimport$invoke_iiiji
531:legalimport$invoke_iiijii
532:legalimport$invoke_iij
533:legalimport$invoke_j
534:legalimport$invoke_ji
535:legalimport$invoke_jii
536:legalimport$invoke_jiii
537:legalimport$invoke_jiiji
538:legalimport$invoke_viiiji
539:legalimport$invoke_viij
540:legalimport$invoke_viji
541:legalimport$invoke_vijii
542:legalimport$_glClientWaitSync
543:__growWasmMemory
544:stackAlloc
545:stackSave
546:stackRestore
547:establishStackSpace
548:setThrew
549:setTempRet0
550:getTempRet0
551:__GLOBAL__sub_I_AccessibilityScriptingClasses_cpp
552:__ZL54__ManagedRegistrationHelperFunction_VisionUtilityProxyPv
553:__ZN9Scripting11UnityEngine13Accessibility18VisionUtilityProxy9InitProxyEv
554:__ZN9Scripting11UnityEngine13Accessibility18VisionUtilityProxy12CleanupProxyEv
555:__ZN17CallbackArrayBaseIPFvvEPFvPKvEE8RegisterES1_S5_S3_
556:__GLOBAL__sub_I_AIScriptingClasses_cpp
557:__ZL48__ManagedRegistrationHelperFunction_NavMeshProxyPv
558:__ZL59__ManagedRegistrationHelperFunction_NavMeshBuildSourceProxyPv
559:__ZL61__ManagedRegistrationHelperFunction_NavMeshTriangulationProxyPv
560:__ZN9Scripting11UnityEngine2AI25NavMeshTriangulationProxy9InitProxyEv
561:__ZN9Scripting11UnityEngine2AI25NavMeshTriangulationProxy12CleanupProxyEv
562:__ZN9Scripting11UnityEngine2AI23NavMeshBuildSourceProxy9InitProxyEv
563:__ZN9Scripting11UnityEngine2AI23NavMeshBuildSourceProxy12CleanupProxyEv
564:__ZN9Scripting11UnityEngine2AI12NavMeshProxy9InitProxyEv
565:__ZN9Scripting11UnityEngine2AI12NavMeshProxy12CleanupProxyEv
566:__ZN6Object21AwakeFromLoadThreadedEv
567:__ZN6Object17IsAScriptedObjectEv
568:__ZNK16LevelGameManager7GetNameEv
569:__ZN6Object7SetNameEPKc
570:__ZN6Object12SetHideFlagsENS_9HideFlagsE
571:__ZNK9Behaviour10HasEnabledEv
572:__ZNK9Behaviour10GetEnabledEv
573:__ZNSt3__213__tree_removeIPNS_16__tree_node_baseIPvEEEEvT_S5_
574:__Z17CalculateGlobalRS23TransformAccessReadOnly
575:__Z23CalculateGlobalPosition23TransformAccessReadOnly
576:__ZN15EditorExtensionD2Ev
577:__ZN15EditorExtensionD0Ev
578:__ZNK15EditorExtension22GetTypeVirtualInternalEv
579:__ZNK6Object7GetNameEv
580:__ZN8Vector3f8TransferI14SafeBinaryReadEEvRT_
581:__ZN4PPtrI9TransformE8TransferI14SafeBinaryReadEEvRT_
582:__ZN4PPtrI9TransformE8TransferI18StreamedBinaryReadEEvRT_
583:__ZN4PPtrI9TransformE8TransferI19StreamedBinaryWriteEEvRT_
584:__ZNK4PPtrI9TransformEcvPS0_Ev
585:__ZNK4PPtrI9TransformEptEv
586:__ZNK11NamedObject7GetNameEv
587:__ZN4AABB8TransferI14SafeBinaryReadEEvRT_
588:__ZN11Quaternionf8TransferI14SafeBinaryReadEEvRT_
589:__ZN14SafeBinaryRead21TransferSTLStyleArrayI13dynamic_arrayI8Vector3fLj0EEEEvRT_17TransferMetaFlags
590:__ZN14SafeBinaryRead21TransferSTLStyleArrayI13dynamic_arrayIiLj0EEEEvRT_17TransferMetaFlags
591:__ZN13dynamic_arrayIiLj0EE18resize_initializedEj12ResizePolicy
592:__ZN14SafeBinaryRead21TransferSTLStyleArrayI13dynamic_arrayIhLj0EEEEvRT_17TransferMetaFlags
593:__ZN7Hash1288TransferI14SafeBinaryReadEEvRT_
594:__ZN11Quaternionf8TransferI24GenerateTypeTreeTransferEEvRT_
595:__ZN7Hash1288TransferI24GenerateTypeTreeTransferEEvRT_
596:__ZN4AABB8TransferI18StreamedBinaryReadEEvRT_
597:__ZN18StreamedBinaryRead8TransferI11QuaternionfEEvRT_PKc17TransferMetaFlags
598:__ZN18StreamedBinaryRead21TransferSTLStyleArrayI13dynamic_arrayI8Vector3fLj0EEEEvRT_17TransferMetaFlags
599:__ZN18StreamedBinaryRead21TransferSTLStyleArrayI13dynamic_arrayIhLj0EEEEvRT_17TransferMetaFlags
600:__ZN7Hash1288TransferI18StreamedBinaryReadEEvRT_
601:__ZN4AABB8TransferI19StreamedBinaryWriteEEvRT_
602:__ZN7Hash1288TransferI19StreamedBinaryWriteEEvRT_
603:__ZN4core20StringStorageDefaultIcE6assignEPKcj
604:__ZN14SafeBinaryRead21TransferSTLStyleArrayINSt3__26vectorIN4core12basic_stringIcNS3_20StringStorageDefaultIcEEEENS1_9allocatorIS7_EEEEEEvRT_17TransferMetaFlags
605:__ZNSt3__26vectorIN4core12basic_stringIcNS1_20StringStorageDefaultIcEEEENS_9allocatorIS5_EEE8__appendEj
606:__Z14resize_trimmedINSt3__26vectorIN4core12basic_stringIcNS2_20StringStorageDefaultIcEEEENS0_9allocatorIS6_EEEEEvRT_j
607:__ZN14SafeBinaryRead21TransferSTLStyleArrayIN4core12basic_stringIcNS1_20StringStorageDefaultIcEEEEEEvRT_17TransferMetaFlags
608:__ZN4core20StringStorageDefaultIcE10reallocateEj
609:__ZNSt3__26vectorIN4core12basic_stringIcNS1_20StringStorageDefaultIcEEEENS_9allocatorIS5_EEE7reserveEj
610:__ZNSt3__26vectorIN4core12basic_stringIcNS1_20StringStorageDefaultIcEEEENS_9allocatorIS5_EEE6assignINS_11__wrap_iterIPS5_EEEENS_9enable_ifIXaasr21__is_forward_iteratorIT_EE5valuesr16is_constructibleIS5_NS_15iterator_traitsISE_E9referenceEEE5valueEvE4typeESE_SE_
611:__ZN18StreamedBinaryRead21TransferSTLStyleArrayIN4core12basic_stringIcNS1_20StringStorageDefaultIcEEEEEEvRT_17TransferMetaFlags
612:__ZN19StreamedBinaryWrite21TransferSTLStyleArrayIN4core12basic_stringIcNS1_20StringStorageDefaultIcEEEEEEvRT_17TransferMetaFlags
613:__ZNK4PPtrI6ObjectEcvPS0_Ev
614:__ZNSt3__227__tree_balance_after_insertIPNS_16__tree_node_baseIPvEEEEvT_S5_
615:__ZNSt3__26vectorIN4core12basic_stringIcNS1_20StringStorageDefaultIcEEEENS_9allocatorIS5_EEE21__push_back_slow_pathIRKS5_EEvOT_
616:__ZN14SharedMeshDataD2Ev
617:__Z18TransformDirection23TransformAccessReadOnlyRKN4math7_float3E
618:__Z24InverseTransformRotationRK23TransformAccessReadOnlyRKN4math7_float4E
619:__Z9SetLocalR15TransformAccessRKN4math7_float4Ey
620:__Z24InverseTransformPosition23TransformAccessReadOnlyRKN4math7_float3E
621:__Z25InverseTransformDirection23TransformAccessReadOnlyRKN4math7_float3Eb
622:__ZN13dynamic_arrayIhLj0EE18resize_initializedEjRKh12ResizePolicy
623:__GLOBAL__sub_I_AnimationScriptingClasses_cpp
624:__GLOBAL__sub_I_Runtime_Animation_0_cpp
625:__GLOBAL__sub_I_Runtime_Animation_1_cpp
626:__GLOBAL__sub_I_Runtime_Animation_4_cpp
627:__GLOBAL__sub_I_AnimationClip_cpp
628:__GLOBAL__sub_I_Avatar_cpp
629:__GLOBAL__sub_I_ConstraintManager_cpp
630:__ZN13RuntimeStaticI17ConstraintManagerLb0EE16StaticInitializeEPv
631:__ZN13RuntimeStaticI17ConstraintManagerLb0EE13StaticDestroyEPv
632:__ZZN17ConstraintManager15InitializeClassEvEN47PreLateUpdateConstraintManagerUpdateRegistrator7ForwardEv
633:__ZN17ConstraintManagerD2Ev
634:__ZN17ConstraintManagerD0Ev
635:__ZN17ConstraintManager6UpdateEv
636:i32u-div
637:__ZN4core8hash_setINS_4pairIKPK10GameObjectiLb0EEENS_9hash_pairINS_4hashIS4_EES5_iEENS_10equal_pairINSt3__28equal_toIS4_EES5_iEEE4growEi
638:__ZN4core8hash_mapIPK10GameObjectiNS_4hashIS3_EENSt3__28equal_toIS3_EEEixERKS3_
639:__ZL32GetComponentsInConstraintSourcesRK11IConstraintPFbRKN5Unity9ComponentEERN4core8hash_setIPS3_NS8_4hashISA_EENSt3__28equal_toISA_EEEE
640:__ZN4core8hash_setIPN5Unity9ComponentENS_4hashIS3_EENSt3__28equal_toIS3_EEE4growEi
641:__ZL23GetComponentsInChildrenRK10GameObjectPFbRKN5Unity9ComponentEERN4core8hash_setIPS3_NS8_4hashISA_EENSt3__28equal_toISA_EEEE
642:__ZNSt3__26__sortIR23DependencySortPredicatePN4core4pairIiP9BehaviourLb0EEEEEvT0_S9_T_
643:__ZN13dynamic_arrayIN4math4trsXELj0EE18resize_initializedEjRKS1_12ResizePolicy
644:f32-to-int
645:__ZN13ConstraintJob18ComputeConstraintsEPNS_17ConstraintJobDataEj
646:__ZN13ConstraintJob23ConstraintComponentDataC2ERKS0_
647:__ZN13ConstraintJob23ConstraintComponentDataD2Ev
648:__Z11SetLocalTRS15TransformAccessRKN4math7_float3ERKNS0_7_float4ES3_y
649:__ZN13ConstraintJob23ConstraintComponentDataC2ERK16LookAtConstraint
650:__ZL21InitConstraintSourcesRK13dynamic_arrayI16ConstraintSourceLj0EERS_I23TransformAccessReadOnlyLj0EERS_IfLj0EE
651:__ZN13dynamic_arrayIN4math14float3_storageELj0EE18resize_initializedEjRKS1_12ResizePolicy
652:__ZN13dynamic_arrayI23TransformAccessReadOnlyLj0EE4growEv
653:__ZN13dynamic_arrayIfLj0EE4growEv
654:__ZN13ConstraintJob23ConstraintComponentDataC2ERK16ParentConstraint
655:__ZN13ConstraintJob23ConstraintComponentDataC2ERK13AimConstraint
656:__ZN13ConstraintJob23ConstraintComponentDataC2ERK15ScaleConstraint
657:__ZN13ConstraintJob23ConstraintComponentDataC2ERK18RotationConstraint
658:__ZN13ConstraintJob23ConstraintComponentDataC2ERK18PositionConstraint
659:__Z21InverseTransformScale23TransformAccessReadOnlyRKN4math7_float3E
660:__Z34CalculateGlobalPositionAndRotation23TransformAccessReadOnlyRKN4math7_float3ERKNS0_7_float4E
661:__ZL17quatArcRotateSafeRKN4math7_float3ES2_
662:__ZNSt3__27__sort4IR23DependencySortPredicatePN4core4pairIiP9BehaviourLb0EEEEEjT0_S9_S9_S9_T_
663:__ZNSt3__227__insertion_sort_incompleteIR23DependencySortPredicatePN4core4pairIiP9BehaviourLb0EEEEEbT0_S9_T_
664:__ZN4core8hash_setIPN5Unity9ComponentENS_4hashIS3_EENSt3__28equal_toIS3_EEE6insertERKS3_
665:__ZL22GetComponentsInParentsRK10GameObjectPFbRKN5Unity9ComponentEERN4core8hash_setIPS3_NS8_4hashISA_EENSt3__28equal_toISA_EEEE
666:__ZN13RuntimeStaticI15AnimationBinderLb0EE16StaticInitializeEPv
667:__ZN13RuntimeStaticI15AnimationBinderLb0EE13StaticDestroyEPv
668:__ZN15AnimationBinderD2Ev
669:__ZNSt3__26__treeINS_12__value_typeIPKN5Unity4TypeEPK8TypeTreeEENS_19__map_value_compareIS5_S9_NS_4lessIS5_EELb1EEENS_9allocatorIS9_EEE7destroyEPNS_11__tree_nodeIS9_PvEE
670:__ZN11UnityEngine9Animation38InitializeGenericAnimationBindingCacheEPv
671:__ZN11UnityEngine9Animation35CleanupGenericAnimationBindingCacheEPv
672:__ZN11UnityEngine9Animation28GenericAnimationBindingCacheD2Ev
673:__ZN11UnityEngine9Animation28GenericAnimationBindingCache15DidReloadDomainE19AssemblyLoadFailure
674:__ZN11UnityEngine9Animation28GenericAnimationBindingCacheC2Ev
675:__ZN13dynamic_arrayIPN11UnityEngine9Animation23CachedComponentBindingsELj0EE18resize_initializedEjRKS3_12ResizePolicy
676:__ZL55__ManagedRegistrationHelperFunction_AnimationEventProxyPv
677:__ZL54__ManagedRegistrationHelperFunction_AimConstraintProxyPv
678:__ZL62__ManagedRegistrationHelperFunction_AnimationClipPlayableProxyPv
679:__ZL68__ManagedRegistrationHelperFunction_AnimationLayerMixerPlayableProxyPv
680:__ZL63__ManagedRegistrationHelperFunction_AnimationMixerPlayableProxyPv
681:__ZL72__ManagedRegistrationHelperFunction_AnimationMotionXToDeltaPlayableProxyPv
682:__ZL64__ManagedRegistrationHelperFunction_AnimationOffsetPlayableProxyPv
683:__ZL64__ManagedRegistrationHelperFunction_AnimationPlayableOutputProxyPv
684:__ZL67__ManagedRegistrationHelperFunction_AnimatorControllerPlayableProxyPv
685:__ZL57__ManagedRegistrationHelperFunction_ConstraintSourceProxyPv
686:__ZL57__ManagedRegistrationHelperFunction_LookAtConstraintProxyPv
687:__ZL57__ManagedRegistrationHelperFunction_ParentConstraintProxyPv
688:__ZL59__ManagedRegistrationHelperFunction_PositionConstraintProxyPv
689:__ZL59__ManagedRegistrationHelperFunction_RotationConstraintProxyPv
690:__ZL56__ManagedRegistrationHelperFunction_ScaleConstraintProxyPv
691:__ZL55__ManagedRegistrationHelperFunction_AnimationStateProxyPv
692:__ZL49__ManagedRegistrationHelperFunction_AnimatorProxyPv
693:__ZL57__ManagedRegistrationHelperFunction_AnimatorClipInfoProxyPv
694:__ZL68__ManagedRegistrationHelperFunction_AnimatorControllerParameterProxyPv
695:__ZL66__ManagedRegistrationHelperFunction_RuntimeAnimatorControllerProxyPv
696:__ZL67__ManagedRegistrationHelperFunction_AnimatorOverrideControllerProxyPv
697:__ZL58__ManagedRegistrationHelperFunction_AnimatorStateInfoProxyPv
698:__ZL63__ManagedRegistrationHelperFunction_AnimatorTransitionInfoProxyPv
699:__ZL47__ManagedRegistrationHelperFunction_AvatarProxyPv
700:__ZL51__ManagedRegistrationHelperFunction_AvatarMaskProxyPv
701:__ZL61__ManagedRegistrationHelperFunction_AnimationHumanStreamProxyPv
702:__ZL64__ManagedRegistrationHelperFunction_AnimationScriptPlayableProxyPv
703:__ZL56__ManagedRegistrationHelperFunction_AnimationStreamProxyPv
704:__ZL50__ManagedRegistrationHelperFunction_HumanBoneProxyPv
705:__ZL72__ManagedRegistrationHelperFunction_SharedBetweenAnimatorsAttributeProxyPv
706:__ZL53__ManagedRegistrationHelperFunction_SkeletonBoneProxyPv
707:__ZL62__ManagedRegistrationHelperFunction_StateMachineBehaviourProxyPv
708:__ZN9Scripting11UnityEngine26StateMachineBehaviourProxy9InitProxyEv
709:__ZN9Scripting11UnityEngine26StateMachineBehaviourProxy12CleanupProxyEv
710:__ZN9Scripting11UnityEngine17SkeletonBoneProxy9InitProxyEv
711:__ZN9Scripting11UnityEngine17SkeletonBoneProxy12CleanupProxyEv
712:__ZN9Scripting11UnityEngine36SharedBetweenAnimatorsAttributeProxy9InitProxyEv
713:__ZN9Scripting11UnityEngine36SharedBetweenAnimatorsAttributeProxy12CleanupProxyEv
714:__ZN9Scripting11UnityEngine14HumanBoneProxy9InitProxyEv
715:__ZN9Scripting11UnityEngine14HumanBoneProxy12CleanupProxyEv
716:__ZN9Scripting11UnityEngine12Experimental10Animations20AnimationStreamProxy9InitProxyEv
717:__ZN9Scripting11UnityEngine12Experimental10Animations20AnimationStreamProxy12CleanupProxyEv
718:__ZN9Scripting11UnityEngine12Experimental10Animations28AnimationScriptPlayableProxy9InitProxyEv
719:__ZN9Scripting11UnityEngine12Experimental10Animations28AnimationScriptPlayableProxy12CleanupProxyEv
720:__ZN9Scripting11UnityEngine12Experimental10Animations25AnimationHumanStreamProxy9InitProxyEv
721:__ZN9Scripting11UnityEngine12Experimental10Animations25AnimationHumanStreamProxy12CleanupProxyEv
722:__ZN9Scripting11UnityEngine15AvatarMaskProxy9InitProxyEv
723:__ZN9Scripting11UnityEngine15AvatarMaskProxy12CleanupProxyEv
724:__ZN9Scripting11UnityEngine11AvatarProxy9InitProxyEv
725:__ZN9Scripting11UnityEngine11AvatarProxy12CleanupProxyEv
726:__ZN9Scripting11UnityEngine27AnimatorTransitionInfoProxy9InitProxyEv
727:__ZN9Scripting11UnityEngine27AnimatorTransitionInfoProxy12CleanupProxyEv
728:__ZN9Scripting11UnityEngine22AnimatorStateInfoProxy9InitProxyEv
729:__ZN9Scripting11UnityEngine22AnimatorStateInfoProxy12CleanupProxyEv
730:__ZN9Scripting11UnityEngine31AnimatorOverrideControllerProxy9InitProxyEv
731:__ZN9Scripting11UnityEngine31AnimatorOverrideControllerProxy12CleanupProxyEv
732:__ZN9Scripting11UnityEngine30RuntimeAnimatorControllerProxy9InitProxyEv
733:__ZN9Scripting11UnityEngine30RuntimeAnimatorControllerProxy12CleanupProxyEv
734:__ZN9Scripting11UnityEngine32AnimatorControllerParameterProxy9InitProxyEv
735:__ZN9Scripting11UnityEngine32AnimatorControllerParameterProxy12CleanupProxyEv
736:__ZN9Scripting11UnityEngine21AnimatorClipInfoProxy9InitProxyEv
737:__ZN9Scripting11UnityEngine21AnimatorClipInfoProxy12CleanupProxyEv
738:__ZN9Scripting11UnityEngine13AnimatorProxy9InitProxyEv
739:__ZN9Scripting11UnityEngine13AnimatorProxy12CleanupProxyEv
740:__ZN9Scripting11UnityEngine19AnimationStateProxy9InitProxyEv
741:__ZN9Scripting11UnityEngine19AnimationStateProxy12CleanupProxyEv
742:__ZN9Scripting11UnityEngine10Animations20ScaleConstraintProxy9InitProxyEv
743:__ZN9Scripting11UnityEngine10Animations20ScaleConstraintProxy12CleanupProxyEv
744:__ZN9Scripting11UnityEngine10Animations23RotationConstraintProxy9InitProxyEv
745:__ZN9Scripting11UnityEngine10Animations23RotationConstraintProxy12CleanupProxyEv
746:__ZN9Scripting11UnityEngine10Animations23PositionConstraintProxy9InitProxyEv
747:__ZN9Scripting11UnityEngine10Animations23PositionConstraintProxy12CleanupProxyEv
748:__ZN9Scripting11UnityEngine10Animations21ParentConstraintProxy9InitProxyEv
749:__ZN9Scripting11UnityEngine10Animations21ParentConstraintProxy12CleanupProxyEv
750:__ZN9Scripting11UnityEngine10Animations21LookAtConstraintProxy9InitProxyEv
751:__ZN9Scripting11UnityEngine10Animations21LookAtConstraintProxy12CleanupProxyEv
752:__ZN9Scripting11UnityEngine10Animations21ConstraintSourceProxy9InitProxyEv
753:__ZN9Scripting11UnityEngine10Animations21ConstraintSourceProxy12CleanupProxyEv
754:__ZN9Scripting11UnityEngine10Animations31AnimatorControllerPlayableProxy9InitProxyEv
755:__ZN9Scripting11UnityEngine10Animations31AnimatorControllerPlayableProxy12CleanupProxyEv
756:__ZN9Scripting11UnityEngine10Animations28AnimationPlayableOutputProxy9InitProxyEv
757:__ZN9Scripting11UnityEngine10Animations28AnimationPlayableOutputProxy12CleanupProxyEv
758:__ZN9Scripting11UnityEngine10Animations28AnimationOffsetPlayableProxy9InitProxyEv
759:__ZN9Scripting11UnityEngine10Animations28AnimationOffsetPlayableProxy12CleanupProxyEv
760:__ZN9Scripting11UnityEngine10Animations36AnimationMotionXToDeltaPlayableProxy9InitProxyEv
761:__ZN9Scripting11UnityEngine10Animations36AnimationMotionXToDeltaPlayableProxy12CleanupProxyEv
762:__ZN9Scripting11UnityEngine10Animations27AnimationMixerPlayableProxy9InitProxyEv
763:__ZN9Scripting11UnityEngine10Animations27AnimationMixerPlayableProxy12CleanupProxyEv
764:__ZN9Scripting11UnityEngine10Animations32AnimationLayerMixerPlayableProxy9InitProxyEv
765:__ZN9Scripting11UnityEngine10Animations32AnimationLayerMixerPlayableProxy12CleanupProxyEv
766:__ZN9Scripting11UnityEngine10Animations26AnimationClipPlayableProxy9InitProxyEv
767:__ZN9Scripting11UnityEngine10Animations26AnimationClipPlayableProxy12CleanupProxyEv
768:__ZN9Scripting11UnityEngine10Animations18AimConstraintProxy9InitProxyEv
769:__ZN9Scripting11UnityEngine10Animations18AimConstraintProxy12CleanupProxyEv
770:__ZN9Scripting11UnityEngine19AnimationEventProxy9InitProxyEv
771:__ZN9Scripting11UnityEngine19AnimationEventProxy12CleanupProxyEv
772:__ZN16MecanimAnimation19PathHashesToIndicesERN5Unity9ComponentEPKjjPt
773:__ZN16MecanimAnimation25RegisterIAnimationBindingEPKN5Unity4TypeEiP17IAnimationBinding
774:__ZN16MecanimAnimation40GetReadWriteGlobalSpaceSkeletonPoseFenceEPN5Unity9ComponentE
775:__ZN16MecanimAnimation23BuildAnimatedPropertiesEPK6Object18ScriptingObjectPtr
776:__ZN16MecanimAnimation24DeleteAnimatedPropertiesERP26IAnimatedPropertyEvaluator
777:__ZN16MecanimAnimationD0Ev
778:__ZN23AnimatedPropertyBuilder5BuildEP13AnimationClip18ScriptingObjectPtr
779:__ZN25AnimatedPropertyEvaluator25BuildFromScriptableObjectEP13AnimationClip18ScriptingObjectPtr
780:__ZN25AnimatedPropertyEvaluator29BindCurveToScriptingObjectPtrERKN13AnimationClip10FloatCurveEj18ScriptingObjectPtrb
781:__ZN16AnimatedPropertyC2ERK16PropertyAccessorRK17AnimationCurveTplIfE
782:__ZN25AnimatedPropertyEvaluatorD2Ev
783:__ZN25AnimatedPropertyEvaluatorD0Ev
784:__ZN25AnimatedPropertyEvaluator10UpdateSyncEf18ScriptingObjectPtr
785:__ZN16AnimatedProperty6UpdateEf18ScriptingObjectPtr
786:__ZN16AnimatedPropertyD2Ev
787:__ZN11UnityEngine9Animation28GenericAnimationBindingCache25RegisterIAnimationBindingEPKN5Unity4TypeEiP17IAnimationBinding
788:__ZN8Animator17GetAvatarConstantEv
789:__ZN7mecanim8skeleton16SkeletonFindNodeEPKNS0_8SkeletonEj
790:__ZN8Animator18SetupAvatarDataSetEPKN7mecanim9animation14AvatarConstantERNS_13AvatarDataSetEb
791:__ZN7mecanim9animation20CreateAvatarConstantEPNS_8skeleton8SkeletonEPNS1_13SkeletonPoseTIN4math4trsXEEES8_PNS_5human5HumanES3_iRKS6_R20RuntimeBaseAllocator
792:__ZN7mecanim9animation18CreateAvatarMemoryEPKNS0_14AvatarConstantER20RuntimeBaseAllocator
793:__ZN7mecanim9animation17CreateAvatarInputEPKNS0_14AvatarConstantER20RuntimeBaseAllocator
794:__ZN7mecanim9animation21CreateAvatarWorkspaceEPKNS0_14AvatarConstantER20RuntimeBaseAllocator
795:__ZN7mecanim9animation18CreateAvatarOutputEPKNS0_14AvatarConstantEbbR20RuntimeBaseAllocator
796:__ZN8Animator13GetAvatarRootEv
797:__ZN11UnityEngine9Animation27CreateAvatarBindingConstantER9TransformPKN7mecanim9animation14AvatarConstantER20RuntimeBaseAllocator
798:__ZN11UnityEngine9Animation30CreateAvatarBindingConstantOptER9TransformPKN7mecanim9animation14AvatarConstantER20RuntimeBaseAllocator
799:__Z17CalculateGlobalSM23TransformAccessReadOnlyRKN4math7_float4E
800:__ZN11UnityEngine9Animation36GenerateTransformBindingMapRecursiveER9TransformRK5crc32R13dynamic_arrayINS0_14BoundTransformELj0EEPKN7mecanim9animation14AvatarConstantEb
801:__ZN11UnityEngine9Animation28RegisterAvatarBindingObjectsEPNS0_21AvatarBindingConstantE
802:__ZN11UnityEngine9Animation21AvatarBindingCallbackEPvS1_i
803:__Z16AppendPathToHashRK5crc32PKc
804:__ZN7mecanim8skeleton18CreateSkeletonPoseIN4math4trsXEEEPNS0_13SkeletonPoseTIT_EEPKNS0_8SkeletonER20RuntimeBaseAllocator
805:__Z14FindAvatarRootPKN7mecanim8skeleton8SkeletonEPKjR9Transformb
806:__Z18BuildTransformListR9TransformR13dynamic_arrayIPS_Lj0EE
807:__Z15HiearchyMatchesP9TransformPKN7mecanim8skeleton8SkeletonEiRK5crc32
808:__ZN7mecanim8skeleton18CreateSkeletonPoseIN4math7affineXEEEPNS0_13SkeletonPoseTIT_EEPKNS0_8SkeletonER20RuntimeBaseAllocator
809:__ZN7mecanim5human9HumanPoseC2Ev
810:__ZN7mecanim4hand8HandPoseC2Ev
811:__ZN7mecanim8skeleton23SkeletonBuildIndexArrayEPiPKNS0_8SkeletonES4_
812:__ZN7mecanim8skeleton30SkeletonBuildReverseIndexArrayEPiPKiPKNS0_8SkeletonES6_
813:__ZN25RuntimeAnimatorControllerD2Ev
814:__ZN25RuntimeAnimatorControllerD0Ev
815:__ZN25RuntimeAnimatorController17MainThreadCleanupEv
816:__ZNK25RuntimeAnimatorController22GetTypeVirtualInternalEv
817:__ZN25RuntimeAnimatorController23VirtualRedirectTransferER19StreamedBinaryWrite
818:__ZN25RuntimeAnimatorController23VirtualRedirectTransferER18StreamedBinaryRead
819:__ZN25RuntimeAnimatorController23VirtualRedirectTransferER17RemapPPtrTransfer
820:__ZN25RuntimeAnimatorController23VirtualRedirectTransferER24GenerateTypeTreeTransfer
821:__ZN25RuntimeAnimatorController23VirtualRedirectTransferER14SafeBinaryRead
822:__ZN25RuntimeAnimatorController22RegisterAnimationClipsEv
823:__ZN6MotionD2Ev
824:__ZN6Motion17MainThreadCleanupEv
825:__ZNK6Motion22GetTypeVirtualInternalEv
826:__ZN6Motion21AddSelfToDependenciesER8UserList
827:__ZN8AnimatorD2Ev
828:__ZN8AnimatorD0Ev
829:__ZN8Animator17MainThreadCleanupEv
830:__ZN8Animator13AwakeFromLoadE17AwakeFromLoadMode
831:__ZN8Animator5ResetEv
832:__ZNK8Animator22GetTypeVirtualInternalEv
833:__ZN8Animator23VirtualRedirectTransferER19StreamedBinaryWrite
834:__ZN8Animator23VirtualRedirectTransferER18StreamedBinaryRead
835:__ZN8Animator23VirtualRedirectTransferER17RemapPPtrTransfer
836:__ZN8Animator23VirtualRedirectTransferER24GenerateTypeTreeTransfer
837:__ZN8Animator23VirtualRedirectTransferER14SafeBinaryRead
838:__ZN8Animator10DeactivateE19DeactivateOperation
839:__ZN8Animator12AddToManagerEv
840:__ZN8Animator17RemoveFromManagerEv
841:__ZN8Animator15SetPrepareStageEv
842:__ZNK8Animator25GetStateMachineBehavioursEv
843:__ZN8Animator19CreatePlayableGraphEv
844:__ZN8Animator32CreateInternalControllerPlayableEv
845:__ZN26AnimatorControllerPlayable21SetAnimatorControllerEP25RuntimeAnimatorController
846:__ZN26AnimatorControllerPlayable14AllocateMemoryEv
847:__ZN26AnimatorControllerPlayable13GenerateGraphEv
848:__ZN17AnimationPlayable23RequestAllocateBindingsEv
849:__ZN26AnimatorControllerPlayable13ClearPlayableEv
850:__ZN17AnimationPlayable23ConnectNoTopologyChangeEPS_S0_ii
851:__ZN26AnimationBlendTreePlayable12CreateInputsER13PlayableGraphj
852:__ZN26AnimatorControllerPlayable18SetLayerAutoWeightEv
853:__ZN7mecanim12statemachine29SetStateMachineInInitialStateERKNS0_20StateMachineConstantERKNS0_17StateMachineInputERNS0_18StateMachineOutputERNS0_18StateMachineMemoryERNS0_21StateMachineWorkspaceE
854:__ZN26AnimationBlendTreePlayable21ConfigureFromConstantEPKN7mecanim9animation17BlendTreeConstantEPKNS0_12statemachine13StateConstantEPKNS1_12AnimationSetE
855:__ZN7mecanim12statemachine13EvaluateStateERKNS_18ValueArrayConstantERKNS0_13StateConstantERKNS0_17StateMachineInputERNS0_18StateMachineOutputERNS0_18StateMachineMemoryERNS0_11StateOutputERNS0_14StateWorkspaceEbb
856:__ZN7mecanim12statemachine21EvaluateStateDurationERKNS0_13StateConstantERNS0_11StateOutputERNS0_14StateWorkspaceERKNS_18ValueArrayConstantERKNS0_17StateMachineInputEb
857:__ZN7mecanim14FindValueIndexEPKNS_18ValueArrayConstantEj
858:__ZN26AnimationBlendTreePlayable37PropagateStateMachineInfoToChildClipsEfffRfS0_b
859:__ZN26AnimationBlendTreePlayable18SetUsePosePlayableEb
860:__ZN26AnimationBlendTreePlayable21DoBlendTreeEvaluationEPKN7mecanim9animation17BlendTreeConstantERKNS0_12statemachine13StateConstantEPNS1_14BlendTreeInputEPNS1_15BlendTreeOutputEPNS1_18BlendTreeWorkspaceERKNS5_17StateMachineInputEfb
861:__ZN7mecanim9animation17EvaluateBlendTreeERKNS0_17BlendTreeConstantERKNS0_14BlendTreeInputERNS0_15BlendTreeOutputERNS0_18BlendTreeWorkspaceERKNS0_12AnimationSetE
862:__ZN7mecanim9animation10GetWeightsERKNS0_21BlendTreeNodeConstantERNS0_18BlendTreeWorkspaceEPfff
863:__ZN7mecanim9animation27GetWeightsSimpleDirectionalERKNS0_19Blend2dDataConstantEPfPiP8Vector2fffb
864:__ZN7mecanim9animation29GetWeightsFreeformDirectionalERKNS0_19Blend2dDataConstantEPfPiP8Vector2fffb
865:__ZN7mecanim9animation27GetWeightsFreeformCartesianERKNS0_19Blend2dDataConstantEPfPiP8Vector2fffb
866:__ZN7mecanim9animation28GetWeightFreeformDirectionalERKNS0_19Blend2dDataConstantEP8Vector2fiiS4_
867:__ZN27AnimationLayerMixerPlayable14SetLayerWeightEjf
868:__ZN27AnimationLayerMixerPlayable16SetLayerAdditiveEjb
869:__ZN27AnimationLayerMixerPlayable21UpdateLayerParametersEv
870:__ZN13PlayableGraph17ConstructPlayableI21AnimationClipPlayableEEPT_18DirectorPlayerTypePK17JobReflectionData
871:__ZN17AnimationPlayableC2E18DirectorPlayerType
872:__ZN21AnimationClipPlayableD2Ev
873:__ZN21AnimationClipPlayableD0Ev
874:__ZNK8Playable17IsMultithreadableEv
875:__ZN8Playable11GetLeadTimeEv
876:__ZN21AnimationClipPlayable7SetTimeEd
877:__ZNK8Playable7GetTimeEv
878:__ZNK21AnimationClipPlayable7GetTypeEv
879:__ZNK21AnimationClipPlayable11DerivesFromE17ScriptingClassPtr
880:__ZN8Playable20GetAdditionalPayloadEv
881:__ZN17AnimationPlayable19DeallocateResourcesEv
882:__ZN21AnimationClipPlayable13OnAdvanceTimeEd
883:__ZN17AnimationPlayable18SetInputConnectionEP8Playableii
884:__ZN17AnimationPlayable25AnimationPlayableAllocateEP35AnimationPlayableEvaluationConstant
885:__ZN21AnimationClipPlayable17ProcessRootMotionEP35AnimationPlayableEvaluationConstantP32AnimationPlayableEvaluationInputP33AnimationPlayableEvaluationOutput
886:__ZN21AnimationClipPlayable16ProcessAnimationEP35AnimationPlayableEvaluationConstantP32AnimationPlayableEvaluationInputP33AnimationPlayableEvaluationOutput
887:__ZN21AnimationClipPlayable17GetAnimationClipsER13dynamic_arrayIP13AnimationClipLj0EE
888:__ZN17AnimationPlayable19PreProcessAnimationEPK35AnimationPlayableEvaluationConstantPKN7mecanim9animation18AnimationNodeStateE
889:__ZN21AnimationClipPlayable22PrepareAnimationEventsEfR13dynamic_arrayI22AnimationClipEventInfoLj0EE
890:__ZN17AnimationPlayable34CollectAnimatorControllerPlayablesER13dynamic_arrayIP26AnimatorControllerPlayableLj0EE
891:__ZN21AnimationClipPlayable29CollectAnimationClipPlayablesER13dynamic_arrayIPS_Lj0EE
892:__ZN17AnimationPlayable13AddObjectUserER8UserList
893:__ZN21AnimationClipPlayable16AllocateBindingsEPK35AnimationPlayableEvaluationConstant
894:__ZN21AnimationClipPlayable18DeallocateBindingsEv
895:__ZN17AnimationPlayable28ComputeNeedsBindingRebuildedEv
896:__ZNK17AnimationPlayable15GetApplyMotionXEv
897:__ZNK21AnimationClipPlayable8GetAssetEv
898:__ZN21AnimationClipPlayable17SetInternalWeightEf
899:__ZNK17AnimationPlayable27GetNextCompatibleDescendantEj
900:__ZN7mecanim9animation17DestroyClipMemoryEPNS0_10ClipMemoryER20RuntimeBaseAllocator
901:__ZN7mecanim9animation15HasMotionCurvesERKNS0_18ClipMuscleConstantE
902:__ZN7mecanim9animation13HasRootCurvesERKNS0_18ClipMuscleConstantE
903:__ZN7mecanim9animation14HasHumanCurvesERKNS0_18ClipMuscleConstantE
904:__ZN7mecanim9animation16CreateClipMemoryEPKNS0_4ClipEiR20RuntimeBaseAllocator
905:__ZN7mecanim9animation16CreateClipOutputEPKNS0_4ClipER20RuntimeBaseAllocator
906:__ZN7mecanim9animation15ComputeClipTimeEffffbfRfS1_b
907:__ZN17AnimationPlayable17GetAnimationClipsER13dynamic_arrayIP13AnimationClipLj0EE
908:__ZN21AnimationClipPlayable20ProcessAnimationPassEPK35AnimationPlayableEvaluationConstantPK32AnimationPlayableEvaluationInputP33AnimationPlayableEvaluationOutput
909:__ZN21AnimationClipPlayable16ProcessHumanPassEPK35AnimationPlayableEvaluationConstantPK32AnimationPlayableEvaluationInputP33AnimationPlayableEvaluationOutput
910:__ZN7mecanim9animation17ClearMotionOutputEPNS0_18AnimationNodeStateE
911:__ZN7mecanim9animation15ClearHumanPosesEPNS0_18AnimationNodeStateE
912:__ZN7mecanim9animation16MotionOutputCopyEPNS0_12MotionOutputEPKS1_bbRKNS_6bitsetILj83EEE
913:__ZN7mecanim9animation13EvaluateHumanEPKNS0_18ClipMuscleConstantEPKNS0_15ClipMuscleInputEPKNS0_10ClipOutputEPNS0_18AnimationNodeStateEb
914:__ZN7mecanim9animation17EvaluateHumanPoseERKNS0_18ClipMuscleConstantERKNS0_15ClipMuscleInputEPKfRKNS0_12MotionOutputERNS_5human9HumanPoseE
915:__ZN7mecanim5human15HumanPoseMirrorERNS0_9HumanPoseERKS1_
916:__ZN7mecanim5human12HumanPoseSubERNS0_9HumanPoseERKS1_S4_
917:__ZN7mecanim5human13HumanPoseCopyERNS0_9HumanPoseERKS1_b
918:__ZN7mecanim4hand12HandPoseCopyEPKNS0_8HandPoseEPS1_
919:__ZN7mecanim9animation12GetHumanPoseINS0_10ValueDeltaEEEvRKNS0_18ClipMuscleConstantEPKT_RNS_5human9HumanPoseE
920:__ZN7mecanim9animation12GetHumanPoseIfEEvRKNS0_18ClipMuscleConstantEPKT_RNS_5human9HumanPoseE
921:__ZN7mecanim5human15HumanPoseWeightERNS0_9HumanPoseERKS1_f
922:__ZN7mecanim5human12HumanPoseAddERNS0_9HumanPoseERKS1_S4_
923:__ZN7mecanim5human14HumanPoseClearERNS0_9HumanPoseE
924:__ZN7mecanim9animation17MotionOutputClearEPNS0_12MotionOutputE
925:__ZN21AnimationClipPlayable22ProcessAnimationNoClipEPK35AnimationPlayableEvaluationConstantPK32AnimationPlayableEvaluationInputP33AnimationPlayableEvaluationOutput
926:__ZN7mecanim9animation14ValuesFromClipILb0EEEvRKNS_10ValueArrayERKNS0_10ClipOutputERKNS0_12ClipBindingsEiRS2_RNS_14ValueArrayMaskEbPKSC_
927:__ZN7mecanim9animation14EvaluateValuesEPKNS0_18ClipMuscleConstantEPKNS_18ValueArrayConstantEPKNS0_12ClipBindingsEPKNS0_14AvatarConstantEPKNS0_14SkeletonTQSMapEPKNS0_10ClipOutputEPKNS0_16MotionXReferenceEPNS0_18AnimationNodeStateEfbbb
928:__ZN7mecanim16CreateValueArrayEPKNS_18ValueArrayConstantER20RuntimeBaseAllocator
929:__ZN7mecanim9animation14DeltasFromClipILb0EEEvRKNS0_18ClipMuscleConstantERKNS0_12ClipBindingsERKNS_14ValueArrayMaskERNS_10ValueArrayESC_SC_
930:__ZN7mecanim9animation23ComputeRootMotionValuesERKNS0_14AvatarConstantERKNS0_14SkeletonTQSMapERKNS0_16MotionXReferenceERNS_10ValueArrayESB_SB_b
931:__ZN7mecanim13ValueArraySubILb0EEEvRKNS_10ValueArrayEPKNS_14ValueArrayMaskERS1_
932:__ZN7mecanim14ValueArrayLoopILb0EEEvRKNS_10ValueArrayES3_RKNS_14ValueArrayMaskERS1_f
933:__ZN7mecanim9animation19AdjustPoseForMotionERKNS0_14AvatarConstantERKNS0_14SkeletonTQSMapERKN4math4trsXERNS_10ValueArrayERNS_8skeleton13SkeletonPoseTIS8_EESG_
934:__ZN7mecanim8skeleton19DestroySkeletonPoseIN4math4trsXEEEvPNS0_13SkeletonPoseTIT_EER20RuntimeBaseAllocator
935:__ZN7mecanim9animation30SkeletonPoseFromValueRecursiveERKNS_8skeleton8SkeletonERKNS1_13SkeletonPoseTIN4math4trsXEEERKNS_10ValueArrayEPKNS0_14SkeletonTQSMapEPKiRS8_ii
936:__ZN7mecanim8skeleton25SkeletonPoseComputeGlobalIN4math4trsXEEEvPKNS0_8SkeletonEPKNS0_13SkeletonPoseTIT_EEPS9_
937:__ZN7mecanim8skeleton25SkeletonPoseComputeGlobalIN4math4trsXEEEvPKNS0_8SkeletonEPKNS0_13SkeletonPoseTIT_EEPS9_ii
938:__ZN7mecanim8skeleton24SkeletonPoseComputeLocalIN4math4trsXEEEvPKNS0_8SkeletonEPKNS0_13SkeletonPoseTIT_EEPS9_ii
939:__ZN7mecanim9animation30ValueFromSkeletonPoseRecursiveERKNS_8skeleton8SkeletonERKNS1_13SkeletonPoseTIN4math4trsXEEEPKNS0_14SkeletonTQSMapEPKiRNS_10ValueArrayEii
940:__ZN7mecanim6memory16InPlaceAllocator8AllocateEjj
941:__ZN7mecanim6memory13HeapAllocator8AllocateEjj
942:__ZN7mecanim6memory13HeapAllocator10DeallocateEPv
943:__ZN7mecanim12SetValueMaskILb0EEEvPNS_14ValueArrayMaskEb
944:__ZN7mecanim21SetTransformValueMaskEiiiPNS_14ValueArrayMaskEb
945:__ZN7mecanim13CopyValueMaskILb1EEEvPKNS_14ValueArrayMaskEPS1_
946:__ZN7mecanim14ValueArrayCopyILb0EEEvPKNS_10ValueArrayEPS1_PKNS_14ValueArrayMaskE
947:__ZN21AnimationClipPlayable30ProcessAnimationRootMotionPassEPK35AnimationPlayableEvaluationConstantPK32AnimationPlayableEvaluationInputP33AnimationPlayableEvaluationOutput
948:__ZN21AnimationClipPlayable31ProcessAnimationTargetMatchPassEPK35AnimationPlayableEvaluationConstantPK32AnimationPlayableEvaluationInputP33AnimationPlayableEvaluationOutput
949:__ZN7mecanim9animation15CloneClipMemoryEPKNS0_10ClipMemoryER20RuntimeBaseAllocator
950:__ZN7mecanim9animation12EvaluateClipEPKNS0_4ClipEPKNS0_9ClipInputEPNS0_10ClipMemoryEPNS0_10ClipOutputE
951:__ZN7mecanim9animation18EvaluateRootMotionERKNS0_18ClipMuscleConstantERKNS0_15ClipMuscleInputEPKfS8_RNS0_12MotionOutputEbPNS0_16MotionXReferenceE
952:__ZN7mecanim9animation13GetClipStartXERKNS0_18ClipMuscleConstantEi
953:__ZN7mecanim9animation12GetClipStopXERKNS0_18ClipMuscleConstantEi
954:__ZN7mecanim9animation9GetCycleXERKN4math4trsXES4_S4_if
955:__ZN7mecanim9animation11xformPrePowERKN4math4trsXEi
956:__ZN7mecanim9animation10SampleClipERKNS0_12StreamedClipERNS0_18StreamedClipMemoryEfPf
957:__ZN7mecanim9animation10SampleClipERKNS0_12ConstantClipEjPf
958:__ZN7mecanim9animation8SeekClipERKNS0_12StreamedClipERNS0_18StreamedClipMemoryEf
959:__ZN21AnimationClipPlayable23ProcessRootMotionNoClipEPK35AnimationPlayableEvaluationConstantPK32AnimationPlayableEvaluationInputP33AnimationPlayableEvaluationOutput
960:__ZN7mecanim9animation23TransformValuesFromClipEiiiRKNS_10ValueArrayERKNS0_10ClipOutputERKNS0_12ClipBindingsERS1_RNS_14ValueArrayMaskEb
961:__ZN7mecanim9animation14ValuesFromClipILb1EEEvRKNS_10ValueArrayERKNS0_10ClipOutputERKNS0_12ClipBindingsEiRS2_RNS_14ValueArrayMaskEbPKSC_
962:__ZN7mecanim9animation30MotionOutputClearAdditiveLayerEPNS0_12MotionOutputE
963:__ZN7mecanim9animation23TransformDeltasFromClipEiiiRKNS0_18ClipMuscleConstantERKNS0_12ClipBindingsERKNS_14ValueArrayMaskERN4math4trsXESC_SC_
964:__ZN7mecanim22TransformValueArraySubEiiiRKN4math4trsXERNS_10ValueArrayE
965:__ZN7mecanim23TransformValueArrayLoopEiiiRKN4math4trsXES3_RNS_10ValueArrayEf
966:__ZN7mecanim9animation19EvaluateFloatValuesEPKNS0_18ClipMuscleConstantEPKNS_18ValueArrayConstantEPKNS0_12ClipBindingsEPKNS0_10ClipOutputEPNS0_18AnimationNodeStateEfbb
967:__ZN7mecanim21CreateFloatValueArrayEPKNS_18ValueArrayConstantER20RuntimeBaseAllocator
968:__ZN7mecanim9animation14DeltasFromClipILb1EEEvRKNS0_18ClipMuscleConstantERKNS0_12ClipBindingsERKNS_14ValueArrayMaskERNS_10ValueArrayESC_SC_
969:__ZN7mecanim13ValueArraySubILb1EEEvRKNS_10ValueArrayEPKNS_14ValueArrayMaskERS1_
970:__ZN7mecanim14ValueArrayLoopILb1EEEvRKNS_10ValueArrayES3_RKNS_14ValueArrayMaskERS1_f
971:__ZN7mecanim23TransformValueArrayCopyEiiiPKNS_10ValueArrayEPS0_
972:__ZN7mecanim14ValueArrayCopyILb1EEEvPKNS_10ValueArrayEPS1_PKNS_14ValueArrayMaskE
973:__Z28GetAnimationScriptingClassesv
974:__ZL35InitializeAnimationScriptingClassesv
975:__ZL32CleanupAnimationScriptingClassesv
976:__ZNK17AnimationPlayable11DerivesFromE17ScriptingClassPtr
977:__ZN17AnimationPlayable17ProcessRootMotionEP35AnimationPlayableEvaluationConstantP32AnimationPlayableEvaluationInputP33AnimationPlayableEvaluationOutput
978:__ZN17AnimationPlayable16ProcessAnimationEP35AnimationPlayableEvaluationConstantP32AnimationPlayableEvaluationInputP33AnimationPlayableEvaluationOutput
979:__ZN17AnimationPlayable22PrepareAnimationEventsEfR13dynamic_arrayI22AnimationClipEventInfoLj0EE
980:__ZN17AnimationPlayable29CollectAnimationClipPlayablesER13dynamic_arrayIP21AnimationClipPlayableLj0EE
981:__ZN17AnimationPlayable16AllocateBindingsEPK35AnimationPlayableEvaluationConstant
982:__ZN17AnimationPlayable18DeallocateBindingsEv
983:__ZN17AnimationPlayable17SetInternalWeightEf
984:__ZN21AnimationPosePlayableC2E18DirectorPlayerType
985:__ZN21AnimationPosePlayable17ProcessRootMotionEP35AnimationPlayableEvaluationConstantP32AnimationPlayableEvaluationInputP33AnimationPlayableEvaluationOutput
986:__ZN21AnimationPosePlayable16ProcessAnimationEP35AnimationPlayableEvaluationConstantP32AnimationPlayableEvaluationInputP33AnimationPlayableEvaluationOutput
987:__ZN21AnimationPosePlayable19PreProcessAnimationEPK35AnimationPlayableEvaluationConstantPKN7mecanim9animation18AnimationNodeStateE
988:__ZN21AnimationPosePlayable16AllocateBindingsEPK35AnimationPlayableEvaluationConstant
989:__ZN21AnimationPosePlayable18DeallocateBindingsEv
990:__ZN7mecanim9animation25DestroyAnimationNodeStateEPNS0_18AnimationNodeStateER20RuntimeBaseAllocator
991:__ZN7mecanim9animation24CreateAnimationNodeStateERKNS_18ValueArrayConstantEbbbR20RuntimeBaseAllocator
992:__ZN7mecanim20CreateValueArrayMaskEPKNS_18ValueArrayConstantER20RuntimeBaseAllocator
993:__ZN7mecanim9animation22CopyAnimationNodeStateEPKNS0_18AnimationNodeStateEPS1_bbRKNS_6bitsetILj83EEE
994:__ZN7mecanim14ValueArrayCopyILb0EEEvPKNS_10ValueArrayEPS1_
995:__ZN7mecanim13CopyValueMaskILb0EEEvPKNS_14ValueArrayMaskEPS1_
996:__ZN7mecanim5human13HumanPoseCopyERNS0_9HumanPoseERKS1_RKNS_6bitsetILj83EEE
997:__ZN7mecanim11OrValueMaskILb0EEEvPKNS_14ValueArrayMaskEPS1_
998:__ZN7mecanim9animation14CopyHumanPosesEPKNS0_18AnimationNodeStateEPS1_RKNS_6bitsetILj83EEE
999:__ZN7mecanim9animation16CopyMotionOutputEPKNS0_18AnimationNodeStateEPS1_bbRKNS_6bitsetILj83EEE
1000:__ZN7mecanim22CopyTransformValueMaskEiiiPKNS_14ValueArrayMaskEPS0_
1001:__ZN7mecanim11OrValueMaskILb1EEEvPKNS_14ValueArrayMaskEPS1_
1002:__ZN26AnimationBlendTreePlayableC2E18DirectorPlayerType
1003:__ZNK26AnimationBlendTreePlayable7GetTypeEv
1004:__ZNK26AnimationBlendTreePlayable11DerivesFromE17ScriptingClassPtr
1005:__ZN22AnimationMixerPlayable18SetInputConnectionEP8Playableii
1006:__ZN22AnimationMixerPlayable17ProcessRootMotionEP35AnimationPlayableEvaluationConstantP32AnimationPlayableEvaluationInputP33AnimationPlayableEvaluationOutput
1007:__ZN22AnimationMixerPlayable16ProcessAnimationEP35AnimationPlayableEvaluationConstantP32AnimationPlayableEvaluationInputP33AnimationPlayableEvaluationOutput
1008:__Z26ProcessAnimationEmptyMixerP35AnimationPlayableEvaluationConstantP32AnimationPlayableEvaluationInputP33AnimationPlayableEvaluationOutput
1009:__Z24ProcessAnimationMixBeginP35AnimationPlayableEvaluationConstantP32AnimationPlayableEvaluationInputP33AnimationPlayableEvaluationOutput
1010:__Z19ProcessAnimationMixP33AnimationPlayableEvaluationOutputP35AnimationPlayableEvaluationConstantP32AnimationPlayableEvaluationInputS0_PN7mecanim16ValueArrayWeightEf
1011:__Z22ProcessAnimationMixEndP35AnimationPlayableEvaluationConstantP32AnimationPlayableEvaluationInputP33AnimationPlayableEvaluationOutputPN7mecanim16ValueArrayWeightEf
1012:__ZN22AnimationMixerPlayable12MixerProcessEP35AnimationPlayableEvaluationConstantP32AnimationPlayableEvaluationInputP33AnimationPlayableEvaluationOutputM17AnimationPlayableFvS1_S3_S5_EPFvS1_S3_S5_ESA_PFvS5_S1_S3_S5_PN7mecanim16ValueArrayWeightEfEPFvS1_S3_S5_SD_fE
1013:__ZN7mecanim22CreateValueArrayWeightEPKNS_18ValueArrayConstantER20RuntimeBaseAllocator
1014:__ZN7mecanim18ValueArrayBlendEndILb0EEEvPKNS_10ValueArrayERKNS_14ValueArrayMaskERKNS_16ValueArrayWeightERS1_
1015:__ZN7mecanim5human17HumanPoseBlendEndERNS0_9HumanPoseERf
1016:__ZN7mecanim19ValueArrayBlendNodeILb0EEEvRKNS_10ValueArrayERKNS_14ValueArrayMaskERS1_RS4_RNS_16ValueArrayWeightEf
1017:__ZN7mecanim5human18HumanPoseBlendNodeERNS0_9HumanPoseEPS1_f
1018:__ZN7mecanim20ValueArrayBlendBeginILb0EEEvRNS_14ValueArrayMaskE
1019:__ZN7mecanim5human19HumanPoseBlendBeginERNS0_9HumanPoseE
1020:__Z27ProcessRootMotionEmptyMixerP35AnimationPlayableEvaluationConstantP32AnimationPlayableEvaluationInputP33AnimationPlayableEvaluationOutput
1021:__Z25ProcessRootMotionMixBeginP35AnimationPlayableEvaluationConstantP32AnimationPlayableEvaluationInputP33AnimationPlayableEvaluationOutput
1022:__Z20ProcessRootMotionMixP33AnimationPlayableEvaluationOutputP35AnimationPlayableEvaluationConstantP32AnimationPlayableEvaluationInputS0_PN7mecanim16ValueArrayWeightEf
1023:__Z23ProcessRootMotionMixEndP35AnimationPlayableEvaluationConstantP32AnimationPlayableEvaluationInputP33AnimationPlayableEvaluationOutputPN7mecanim16ValueArrayWeightEf
1024:__ZN7mecanim27TransformValueArrayBlendEndEiiiPKNS_10ValueArrayERKNS_14ValueArrayMaskERKNS_16ValueArrayWeightERS0_
1025:__ZN7mecanim18ValueArrayBlendEndILb1EEEvPKNS_10ValueArrayERKNS_14ValueArrayMaskERKNS_16ValueArrayWeightERS1_
1026:__ZN7mecanim9animation20MotionOutputBlendEndEPNS0_12MotionOutputEbbRKNS_6bitsetILj83EEERf
1027:__ZN7mecanim9animation21MotionOutputBlendNodeEPNS0_12MotionOutputES2_fbbRKNS_6bitsetILj83EEE
1028:__ZN7mecanim28TransformValueArrayBlendNodeEiiiRKNS_10ValueArrayERKNS_14ValueArrayMaskERS0_RS3_RNS_16ValueArrayWeightEf
1029:__ZN7mecanim19ValueArrayBlendNodeILb1EEEvRKNS_10ValueArrayERKNS_14ValueArrayMaskERS1_RS4_RNS_16ValueArrayWeightEf
1030:__ZN7mecanim9animation22MotionOutputBlendBeginEPNS0_12MotionOutputEbb
1031:__ZN7mecanim29TransformValueArrayBlendBeginEiiiRNS_14ValueArrayMaskE
1032:__ZN7mecanim20ValueArrayBlendBeginILb1EEEvRNS_14ValueArrayMaskE
1033:__ZN7mecanim12SetValueMaskILb1EEEvPNS_14ValueArrayMaskEb
1034:__ZNK22AnimationMixerPlayable11DerivesFromE17ScriptingClassPtr
1035:__ZN27AnimationLayerMixerPlayableC2E18DirectorPlayerType
1036:__ZN27AnimationLayerMixerPlayableD2Ev
1037:__ZN27AnimationLayerMixerPlayableD0Ev
1038:__ZN27AnimationLayerMixerPlayable13SetInputCountEi
1039:__ZN27AnimationLayerMixerPlayable14SetInputWeightEif
1040:__ZNK27AnimationLayerMixerPlayable7GetTypeEv
1041:__ZNK27AnimationLayerMixerPlayable11DerivesFromE17ScriptingClassPtr
1042:__ZN27AnimationLayerMixerPlayable19DeallocateResourcesEv
1043:__ZN27AnimationLayerMixerPlayable18SetInputConnectionEP8Playableii
1044:__ZN27AnimationLayerMixerPlayable17ProcessRootMotionEP35AnimationPlayableEvaluationConstantP32AnimationPlayableEvaluationInputP33AnimationPlayableEvaluationOutput
1045:__ZN27AnimationLayerMixerPlayable16ProcessAnimationEP35AnimationPlayableEvaluationConstantP32AnimationPlayableEvaluationInputP33AnimationPlayableEvaluationOutput
1046:__ZN27AnimationLayerMixerPlayable22PrepareAnimationEventsEfR13dynamic_arrayI22AnimationClipEventInfoLj0EE
1047:__ZN27AnimationLayerMixerPlayable16AllocateBindingsEPK35AnimationPlayableEvaluationConstant
1048:__ZN27AnimationLayerMixerPlayable18DeallocateBindingsEv
1049:__ZN27AnimationLayerMixerPlayable13ClearBindingsEv
1050:__ZN27AnimationLayerMixerPlayable18GetLayerParametersEj
1051:__ZN27AnimationLayerMixerPlayable6Memory20CreateNodeStateArrayEiRKN7mecanim18ValueArrayConstantEbbbR20RuntimeBaseAllocator
1052:__ZN27AnimationLayerMixerPlayable27ProcessAnimationSingleLayerEP35AnimationPlayableEvaluationConstantP32AnimationPlayableEvaluationInputP33AnimationPlayableEvaluationOutput
1053:__ZN27AnimationLayerMixerPlayable26ProcessAnimationLayerBeginEP35AnimationPlayableEvaluationConstantP32AnimationPlayableEvaluationInputP33AnimationPlayableEvaluationOutput
1054:__ZN27AnimationLayerMixerPlayable24ProcessAnimationLayerMixEP33AnimationPlayableEvaluationOutputP35AnimationPlayableEvaluationConstantP32AnimationPlayableEvaluationInputS1_if
1055:__ZN27AnimationLayerMixerPlayable17LayerMixerProcessEP35AnimationPlayableEvaluationConstantP32AnimationPlayableEvaluationInputP33AnimationPlayableEvaluationOutputM17AnimationPlayableFvS1_S3_S5_EMS_FvS1_S3_S5_ESA_MS_FvS5_S1_S3_S5_ifE
1056:__ZN7mecanim12AndValueMaskILb0EEEvPKNS_14ValueArrayMaskEPS1_
1057:__ZN7mecanim13ValueArrayAddILb0EEEvPKNS_10ValueArrayES3_PKNS_14ValueArrayMaskEfbPS1_PS4_
1058:__ZN27AnimationLayerMixerPlayable8MixHumanEP33AnimationPlayableEvaluationOutputP35AnimationPlayableEvaluationConstantP32AnimationPlayableEvaluationInputS1_f
1059:__ZN7mecanim5human25HumanPoseAddAdditiveLayerERNS0_9HumanPoseERKS1_fRKNS_6bitsetILj83EEE
1060:__ZN7mecanim5human25HumanPoseAddOverrideLayerERNS0_9HumanPoseERKS1_fRKNS_6bitsetILj83EEE
1061:__ZN7mecanim5human14HumanPoseClearERNS0_9HumanPoseERKNS_6bitsetILj83EEE
1062:__ZN27AnimationLayerMixerPlayable28ProcessRootMotionSingleLayerEP35AnimationPlayableEvaluationConstantP32AnimationPlayableEvaluationInputP33AnimationPlayableEvaluationOutput
1063:__ZN27AnimationLayerMixerPlayable27ProcessRootMotionLayerBeginEP35AnimationPlayableEvaluationConstantP32AnimationPlayableEvaluationInputP33AnimationPlayableEvaluationOutput
1064:__ZN27AnimationLayerMixerPlayable25ProcessRootMotionLayerMixEP33AnimationPlayableEvaluationOutputP35AnimationPlayableEvaluationConstantP32AnimationPlayableEvaluationInputS1_if
1065:__ZN7mecanim22TransformValueArrayAddEiiiPKNS_10ValueArrayES2_PKNS_14ValueArrayMaskEfbPS0_PS3_
1066:__ZN7mecanim13ValueArrayAddILb1EEEvPKNS_10ValueArrayES3_PKNS_14ValueArrayMaskEfbPS1_PS4_
1067:__ZN7mecanim9animation22MotionAddOverrideLayerEPNS0_12MotionOutputEPKS1_fbbRKNS_6bitsetILj83EEE
1068:__ZN7mecanim14ValueArrayCopyILb1EEEvPKNS_10ValueArrayEPS1_
1069:__ZN7mecanim9animation21CreateControllerInputEPKNS0_18ControllerConstantER20RuntimeBaseAllocator
1070:__ZN7mecanim9animation22CreateControllerMemoryEPKNS0_18ControllerConstantER20RuntimeBaseAllocator
1071:__ZN7mecanim9animation25CreateControllerWorkspaceEPKNS0_18ControllerConstantER20RuntimeBaseAllocator
1072:__ZN7mecanim12statemachine24CreateStateMachineOutputEPKNS0_20StateMachineConstantEjR20RuntimeBaseAllocator
1073:__ZN7mecanim12statemachine27CreateStateMachineWorkspaceEPKNS0_20StateMachineConstantEjR20RuntimeBaseAllocator
1074:__ZN7mecanim12statemachine20GetBlendTreeConstantERKNS0_13StateConstantEi
1075:__ZN7mecanim12statemachine20CreateStateWorkspaceEjjjR20RuntimeBaseAllocator
1076:__ZN7mecanim9animation21CreateBlendTreeOutputEjR20RuntimeBaseAllocator
1077:__ZN7mecanim9animation24CreateBlendTreeWorkspaceEjR20RuntimeBaseAllocator
1078:__ZN7mecanim12statemachine24CreateStateMachineMemoryEPKNS0_20StateMachineConstantER20RuntimeBaseAllocator
1079:__ZN26AnimatorControllerPlayableC2E18DirectorPlayerType
1080:__ZN26AnimatorControllerPlayableD2Ev
1081:__ZN26AnimatorControllerPlayableD0Ev
1082:__ZNK26AnimatorControllerPlayable17IsMultithreadableEv
1083:__ZN26AnimatorControllerPlayable12PrepareFrameERK19DirectorVisitorInfo
1084:__ZNK26AnimatorControllerPlayable7GetTypeEv
1085:__ZNK26AnimatorControllerPlayable11DerivesFromE17ScriptingClassPtr
1086:__ZN26AnimatorControllerPlayable19DeallocateResourcesEv
1087:__ZN26AnimatorControllerPlayable17ProcessRootMotionEP35AnimationPlayableEvaluationConstantP32AnimationPlayableEvaluationInputP33AnimationPlayableEvaluationOutput
1088:__ZN26AnimatorControllerPlayable16ProcessAnimationEP35AnimationPlayableEvaluationConstantP32AnimationPlayableEvaluationInputP33AnimationPlayableEvaluationOutput
1089:__ZN26AnimatorControllerPlayable17GetAnimationClipsER13dynamic_arrayIP13AnimationClipLj0EE
1090:__ZN26AnimatorControllerPlayable19PreProcessAnimationEPK35AnimationPlayableEvaluationConstantPKN7mecanim9animation18AnimationNodeStateE
1091:__ZN26AnimatorControllerPlayable22PrepareAnimationEventsEfR13dynamic_arrayI22AnimationClipEventInfoLj0EE
1092:__ZN26AnimatorControllerPlayable34CollectAnimatorControllerPlayablesER13dynamic_arrayIPS_Lj0EE
1093:__ZN26AnimatorControllerPlayable13AddObjectUserER8UserList
1094:__ZN26AnimatorControllerPlayable16AllocateBindingsEPK35AnimationPlayableEvaluationConstant
1095:__ZN26AnimatorControllerPlayable18DeallocateBindingsEv
1096:__ZNK26AnimatorControllerPlayable8GetAssetEv
1097:__ZN26AnimatorControllerPlayable27SetupStateMachineBehavioursEv
1098:__ZN26AnimatorControllerPlayable29CleanupStateMachineBehavioursEv
1099:__ZN26AnimatorControllerPlayable8GetFloatEiRf
1100:__ZN26AnimatorControllerPlayable8SetFloatEiRKf
1101:__ZN26AnimatorControllerPlayable10GetIntegerEiRi
1102:__ZN26AnimatorControllerPlayable10SetIntegerEiRKi
1103:__ZN26AnimatorControllerPlayable7GetBoolEiRb
1104:__ZN26AnimatorControllerPlayable7SetBoolEiRKb
1105:__ZN26AnimatorControllerPlayable12ResetTriggerEi
1106:__ZN26AnimatorControllerPlayable10SetTriggerEi
1107:__ZNK26AnimatorControllerPlayable24HasStateMachineBehaviourEv
1108:__ZNK26AnimatorControllerPlayable25GetStateMachineBehavioursEv
1109:__ZNK26AnimatorControllerPlayable41GetStateMachineBehaviourVectorDescriptionEv
1110:__ZNK26AnimatorControllerPlayable13IsInitializedEv
1111:__ZThn156_NK26AnimatorControllerPlayable13IsInitializedEv
1112:__ZThn156_NK26AnimatorControllerPlayable24HasStateMachineBehaviourEv
1113:__ZThn156_NK26AnimatorControllerPlayable25GetStateMachineBehavioursEv
1114:__ZThn156_NK26AnimatorControllerPlayable41GetStateMachineBehaviourVectorDescriptionEv
1115:__ZN13dynamic_arrayI4PPtrI13MonoBehaviourELj0EE9push_backERKS2_
1116:__ZN7mecanim9animation22DestroyControllerInputEPNS0_15ControllerInputER20RuntimeBaseAllocator
1117:__ZN7mecanim9animation23DestroyControllerMemoryEPNS0_16ControllerMemoryER20RuntimeBaseAllocator
1118:__ZN7mecanim9animation26DestroyControllerWorkspaceEPNS0_19ControllerWorkspaceER20RuntimeBaseAllocator
1119:__ZN7mecanim12statemachine28DestroyStateMachineWorkspaceEPNS0_21StateMachineWorkspaceER20RuntimeBaseAllocator
1120:__ZN7mecanim12statemachine21DestroyStateWorkspaceEPNS0_14StateWorkspaceER20RuntimeBaseAllocator
1121:__ZN7mecanim9animation25DestroyBlendTreeWorkspaceEPNS0_18BlendTreeWorkspaceER20RuntimeBaseAllocator
1122:__ZN7mecanim21ValueArrayReverseCopyEPKNS_18ValueArrayConstantEPKNS_10ValueArrayES2_PS3_PKi
1123:__ZN27AnimationLayerMixerPlayable16SetLayerMaskCopyEjRKN7mecanim6bitsetILj83EEEPKNS0_8skeleton12SkeletonMaskE
1124:__ZN7mecanim8skeleton18CreateSkeletonMaskEjPKNS0_19SkeletonMaskElementER20RuntimeBaseAllocator
1125:__ZN7mecanim14ValueArrayCopyEPKNS_18ValueArrayConstantEPKNS_10ValueArrayES2_PS3_PKi
1126:__ZN26AnimatorControllerPlayable12PrepareFrameERK9FrameDataP8Playableb
1127:__ZN26AnimatorControllerPlayable11UpdateGraphEf
1128:__ZN7mecanim12statemachine20EvaluateStateMachineERKNS0_20StateMachineConstantERKNS0_17StateMachineInputERNS0_18StateMachineOutputERNS0_18StateMachineMemoryERNS0_21StateMachineWorkspaceE
1129:__ZN34AnimationStateMachineMixerPlayable13EndTransitionEv
1130:__ZN7mecanim12statemachine19EvaluateTransitionsERK9OffsetPtrIS1_INS0_18TransitionConstantEEEjRNS0_15TransitionInputERNS0_16TransitionOutputERNS0_16TransitionMemoryEPKNS0_20StateMachineConstantEPKNS0_17StateMachineInputEPNS0_18StateMachineOutputEPNS0_18StateMachineMemoryEPNS0_21StateMachineWorkspaceEi
1131:__ZN34AnimationStateMachineMixerPlayable26StartInterruptedTransitionEbb
1132:__ZN7mecanim12statemachine18EvaluateTransitionEPKNS0_18TransitionConstantEPKNS0_15TransitionInputEPNS0_16TransitionOutputEPKNS0_16TransitionMemoryEPNS0_21StateMachineWorkspaceE
1133:__ZN7mecanim12statemachine17EvaluateSelectorsEPKNS0_20StateMachineConstantEPKNS_18ValueArrayConstantEPNS_10ValueArrayEjPKNS0_17StateMachineInputEPNS0_18StateMachineMemoryEPNS0_21StateMachineWorkspaceE
1134:__ZNK27StateMachineBehaviourPlayer25FireStateMachineBehaviourEiiN7mecanim12statemachine19StateMachineMessageE
1135:__ZN7mecanim12statemachine17EvaluateConditionEPKNS0_17ConditionConstantEPKNS_18ValueArrayConstantEPKNS_10ValueArrayE
1136:__ZNK27StateMachineBehaviourPlayer13FireBehaviourER8StateKeyR18ScriptingArgumentsN7mecanim12statemachine19StateMachineMessageEb
1137:__Z24FindStateBehavioursRangeRK8StateKeyPK38StateMachineBehaviourVectorDescription
1138:__ZN21AnimationClipPlayable7SetClipEP13AnimationClip
1139:__ZN13PlayableGraph12CreateOutputI23AnimationPlayableOutputEEPT_PKc
1140:__ZN23AnimationPlayableOutput17SetTargetAnimatorEP8Animator
1141:__ZN8Animator16OnPlayableUnbindEP23AnimationPlayableOutput
1142:__ZN8Animator14OnPlayableBindEP23AnimationPlayableOutput
1143:__ZN13dynamic_arrayI13BoundPlayableLj0EE6insertEPS0_jRKS0_
1144:__ZN8Animator13ClearBindingsEv
1145:__ZN8Animator28BuildControllerPlayableCacheEv
1146:__ZN11UnityEngine9Animation30DestroyAnimatorGenericBindingsEPNS0_30AnimatorGenericBindingConstantER20RuntimeBaseAllocator
1147:__ZN17AnimationPlayable28UpdateInternalStateRecursiveILi1ELb0EEEvPK35AnimationPlayableEvaluationConstant
1148:__ZN11UnityEngine9Animation31UnregisterGenericBindingObjectsEPNS0_30AnimatorGenericBindingConstantE
1149:__ZN11UnityEngine9AnimationL22GenericBindingCallbackEPvS1_i
1150:__ZN14PlayableOutputD2Ev
1151:__ZNK23AnimationPlayableOutput7GetTypeEv
1152:__ZNK23AnimationPlayableOutput11DerivesFromE17ScriptingClassPtr
1153:__ZNK23AnimationPlayableOutput9GetStagesER13dynamic_arrayI16StageDescriptionLj0EE
1154:__ZN23AnimationPlayableOutput17SetSourcePlayableEP8Playable
1155:__ZN23AnimationPlayableOutput17OnPlayerDestroyedEP6Object
1156:__ZN23AnimationPlayableOutput19SetSourceOutputPortEi
1157:__ZN23AnimationPlayableOutput22OnConnectionHashChangeEv
1158:__ZN23AnimationPlayableOutput7DestroyEv
1159:__ZN8Animator22OnGraphTopologyChangedEP8Playablei
1160:__ZN8Animator25WriteDefaultValuesNoDirtyEv
1161:__ZN8Animator14CreateBindingsEv
1162:__ZN8Animator20CreatePlayableMemoryEv
1163:__ZN8Animator21SetupPlayableConstantEv
1164:__ZN21AnimationHandleBinder10ResolveAllERK35AnimationPlayableEvaluationConstant
1165:__ZN31AnimationStreamHandleDefinition7ResolveERK35AnimationPlayableEvaluationConstant
1166:__ZN21AnimationHandleBinder22ResolveAllSceneHandlesERK35AnimationPlayableEvaluationConstant
1167:__ZN11UnityEngine9Animation28GenericAnimationBindingCache11BindGenericERKNS0_14GenericBindingER9TransformRNS0_10BoundCurveE
1168:__ZL48InvalidatePropertySceneHandleBoundCurvesCallbackPvS_i
1169:__ZNK11UnityEngine9Animation28GenericAnimationBindingCache10BindCustomERKNS0_14GenericBindingER9TransformRNS0_10BoundCurveE
1170:__ZN11UnityEngine9Animation28GenericAnimationBindingCache10BindScriptERKNS0_14GenericBindingER9TransformRNS0_10BoundCurveE
1171:__ZN11UnityEngine9Animation28GenericAnimationBindingCache20BindGenericComponentERKNS0_14GenericBindingER9TransformRNS0_10BoundCurveE
1172:__ZN11UnityEngine9AnimationL24GenerateComponentBindingEPKN5Unity4TypeE18ScriptingObjectPtr17ScriptingClassPtrP6Object
1173:__ZNSt3__26__sortIRNS_6__lessIN11UnityEngine9Animation13CachedBindingES4_EEPS4_EEvT0_S8_T_
1174:__ZN11UnityEngine9AnimationL22GenerateBindingRecurseERK16TypeTreeIterator18ScriptingObjectPtr5crc32R13dynamic_arrayINS0_13CachedBindingELj0EE
1175:__ZN11UnityEngine9Animation19GetTypeTreeBindTypeERK16TypeTreeIterator
1176:__ZNSt3__27__sort4IRNS_6__lessIN11UnityEngine9Animation13CachedBindingES4_EEPS4_EEjT0_S8_S8_S8_T_
1177:__ZNSt3__227__insertion_sort_incompleteIRNS_6__lessIN11UnityEngine9Animation13CachedBindingES4_EEPS4_EEbT0_S8_T_
1178:__ZN4coreplEPKcRKNS_12basic_stringIcNS_20StringStorageDefaultIcEEEE
1179:__ZN4coreplERKNS_12basic_stringIcNS_20StringStorageDefaultIcEEEEPKc
1180:__ZN4coreplERKNS_12basic_stringIcNS_20StringStorageDefaultIcEEEES5_
1181:__ZN17AnimationPlayable28UpdateInternalStateRecursiveILi3ELb0EEEvPK35AnimationPlayableEvaluationConstant
1182:__ZN11UnityEngine9Animation26CreateAnimationSetBindingsERK13dynamic_arrayIP13AnimationClipLj0EER20RuntimeBaseAllocator
1183:__ZN11UnityEngine9Animation27DestroyAnimationSetBindingsEPNS0_20AnimationSetBindingsER20RuntimeBaseAllocator
1184:__ZN7mecanim9animation32DeallocateAvatarOuputForBindingsEPNS0_12AvatarOutputER20RuntimeBaseAllocator
1185:__ZN8Animator20SetupBindingsDataSetEN4core8AllocPtrIN11UnityEngine9Animation20AnimationSetBindingsE20MecanimDestroyPolicyIS4_EEERNS_15BindingsDataSetERNS_13AvatarDataSetE
1186:__ZN11UnityEngine9Animation29CreateAnimatorGenericBindingsERKNS0_20AnimationSetBindingsER9TransformPKN7mecanim9animation14AvatarConstantEbR20RuntimeBaseAllocatorR8Animator
1187:__ZN11UnityEngine9Animation32CreateAnimatorGenericBindingsOptERKNS0_20AnimationSetBindingsER9TransformPKN7mecanim9animation14AvatarConstantEPKNS0_21AvatarBindingConstantEbR20RuntimeBaseAllocatorR8Animator
1188:__ZN7mecanim9animation30AllocateAvatarOuputForBindingsEPNS0_12AvatarOutputEbPKNS_18ValueArrayConstantER20RuntimeBaseAllocator
1189:__ZN11UnityEngine9AnimationL56CalculateTransformBindingSizeBasedOnConstantOptimizationERKNS0_20AnimationSetBindingsERK13dynamic_arrayINS0_14BoundTransformELj0EEPKiPKN7mecanim9animation14AvatarConstantEb
1190:__ZN11UnityEngine9Animation28GenericAnimationBindingCache15BindPPtrGenericERKNS0_14GenericBindingER9TransformRNS0_10BoundCurveE
1191:__ZN7mecanim28CreateValueArrayConstantCopyEPKNS_18ValueArrayConstantEjR20RuntimeBaseAllocator
1192:__ZN11UnityEngine9AnimationL29RegisterGenericBindingObjectsEPNS0_30AnimatorGenericBindingConstantE
1193:__ZN11UnityEngine9AnimationL23InitializeDefaultValuesERKNS0_30AnimatorGenericBindingConstantEPKN7mecanim9animation14AvatarConstantEb
1194:__ZN7mecanim9animation21ValueFromSkeletonPoseERKNS_8skeleton8SkeletonERKNS1_13SkeletonPoseTIN4math4trsXEEEPKNS0_14SkeletonTQSMapERNS_10ValueArrayE
1195:__ZN11UnityEngine9Animation23GetBoundCurveFloatValueERKNS0_10BoundCurveE
1196:__ZN11UnityEngine9Animation28GetBoundCurveInstanceIDValueERKNS0_10BoundCurveE
1197:__ZN7mecanim9animation19DestroyAnimationSetEPNS0_12AnimationSetER20RuntimeBaseAllocator
1198:__ZN7mecanim9animation18CreateAnimationSetEjR20RuntimeBaseAllocator
1199:__ZN4core8hash_mapIN11UnityEngine9Animation14GenericBindingENS2_10BoundIndexENS2_25GenericBindingHashFunctorENS2_30GenericBindingValueArrayUniqueEE6insertERKS3_RKS4_
1200:__ZNSt3__26__sortIRN11UnityEngine9Animation11BindingSortEPNS_4pairINS2_14GenericBindingEPNS2_10BoundIndexEEEEEvT0_SB_T_
1201:__ZN11UnityEngine9Animation15IsMuscleBindingERKNS0_14GenericBindingE
1202:__ZNK11UnityEngine9Animation30GenericBindingValueArrayUniqueclERKNS0_14GenericBindingES4_
1203:__ZN7mecanim24CreateValueArrayConstantENS_9ValueTypeEjR20RuntimeBaseAllocator
1204:__ZN11UnityEngine9AnimationltERKNS0_14GenericBindingES3_
1205:__ZNSt3__27__sort3IRN11UnityEngine9Animation11BindingSortEPNS_4pairINS2_14GenericBindingEPNS2_10BoundIndexEEEEEjT0_SB_SB_T_
1206:__ZNSt3__27__sort4IRN11UnityEngine9Animation11BindingSortEPNS_4pairINS2_14GenericBindingEPNS2_10BoundIndexEEEEEjT0_SB_SB_SB_T_
1207:__ZNSt3__27__sort5IRN11UnityEngine9Animation11BindingSortEPNS_4pairINS2_14GenericBindingEPNS2_10BoundIndexEEEEEjT0_SB_SB_SB_SB_T_
1208:__ZNSt3__218__insertion_sort_3IRN11UnityEngine9Animation11BindingSortEPNS_4pairINS2_14GenericBindingEPNS2_10BoundIndexEEEEEvT0_SB_T_
1209:__ZNSt3__227__insertion_sort_incompleteIRN11UnityEngine9Animation11BindingSortEPNS_4pairINS2_14GenericBindingEPNS2_10BoundIndexEEEEEbT0_SB_T_
1210:__ZN4core8hash_setINS_4pairIKN11UnityEngine9Animation14GenericBindingENS3_10BoundIndexELb0EEENS_9hash_pairINS3_25GenericBindingHashFunctorES5_S6_EENS_10equal_pairINS3_30GenericBindingValueArrayUniqueES5_S6_EEE4growEi
1211:__ZNK21AnimationHandleBinder36CreateAnimationStreamHandlesBindingsEv
1212:__ZNK21AnimationHandleBinder21BuildClipFromBindingsERK13dynamic_arrayI31AnimationStreamHandleDefinitionLj0EEP13AnimationClip
1213:__ZN13AnimationClip11ClearCurvesEv
1214:__ZN13AnimationClip18CleanupMecanimDataEv
1215:__ZN13AnimationClip26BuildMecanimDataMainThreadEv
1216:__ZN13AnimationClip16AddPositionCurveERK17AnimationCurveTplI8Vector3fERKN4core12basic_stringIcNS5_20StringStorageDefaultIcEEEE
1217:__ZN13AnimationClip18AddQuaternionCurveERK17AnimationCurveTplI11QuaternionfERKN4core12basic_stringIcNS5_20StringStorageDefaultIcEEEE
1218:__ZN13AnimationClip13AddScaleCurveERK17AnimationCurveTplI8Vector3fERKN4core12basic_stringIcNS5_20StringStorageDefaultIcEEEE
1219:__ZN13AnimationClip13AddFloatCurveERK17AnimationCurveTplIfERKN4core12basic_stringIcNS4_20StringStorageDefaultIcEEEEPKN5Unity4TypeESA_4PPtrI10MonoScriptE
1220:__ZN13AnimationClip10FloatCurveC2ERKS0_
1221:__ZNSt3__26vectorIN13AnimationClip10FloatCurveE13stl_allocatorIS2_L18MemLabelIdentifier26ELi16EEE21__push_back_slow_pathIS2_EEvOT_
1222:__ZNSt3__214__split_bufferIN13AnimationClip10FloatCurveER13stl_allocatorIS2_L18MemLabelIdentifier26ELi16EEED2Ev
1223:__ZNSt3__26vectorIN13AnimationClip12Vector3CurveE13stl_allocatorIS2_L18MemLabelIdentifier26ELi16EEE21__push_back_slow_pathIS2_EEvOT_
1224:__ZN17AnimationCurveTplI8Vector3fEC2ERKS1_
1225:__ZN13stl_allocatorIN13AnimationClip15QuaternionCurveEL18MemLabelIdentifier26ELi16EE9constructEPS1_RKS1_
1226:__ZNSt3__26vectorIN13AnimationClip15QuaternionCurveE13stl_allocatorIS2_L18MemLabelIdentifier26ELi16EEE21__push_back_slow_pathIS2_EEvOT_
1227:__ZN13AnimationClip18GenerateMuscleClipEv
1228:__ZN13AnimationClip8GetRangeEv
1229:__ZN7mecanim9animation15FindMuscleIndexEj
1230:__ZNSt3__26vectorIP17AnimationCurveTplI8Vector3fE13stl_allocatorIS4_L18MemLabelIdentifier1ELi16EEE21__push_back_slow_pathIS4_EEvOT_
1231:__Z32GenerateRootMotionPositionCurvesRNSt3__26vectorI15RootMotionCurve13stl_allocatorIS1_L18MemLabelIdentifier1ELi16EEEERK17AnimationCurveTplI8Vector3fE
1232:__Z29AddPositionCurveToClipBuilderR17AnimationCurveTplI8Vector3fERKN4core12basic_stringIcNS3_20StringStorageDefaultIcEEEER18MecanimClipBuilderb
1233:__Z32GenerateRootMotionRotationCurvesRNSt3__26vectorI15RootMotionCurve13stl_allocatorIS1_L18MemLabelIdentifier1ELi16EEEERK17AnimationCurveTplI11QuaternionfE
1234:__Z29AddRotationCurveToClipBuilderR17AnimationCurveTplI11QuaternionfERKN4core12basic_stringIcNS3_20StringStorageDefaultIcEEEER18MecanimClipBuilderb
1235:__Z32GenerateRootMotionRotationCurvesRNSt3__26vectorI15RootMotionCurve13stl_allocatorIS1_L18MemLabelIdentifier1ELi16EEEERK17AnimationCurveTplI8Vector3fEf
1236:__Z26AddEulerCurveToClipBuilderR17AnimationCurveTplI8Vector3fERKN4core12basic_stringIcNS3_20StringStorageDefaultIcEEEER18MecanimClipBuilderb
1237:__Z26AddScaleCurveToClipBuilderR17AnimationCurveTplI8Vector3fERKN4core12basic_stringIcNS3_20StringStorageDefaultIcEEEER18MecanimClipBuilderb
1238:__ZNK11UnityEngine9Animation28GenericAnimationBindingCache20CreateGenericBindingERKN4core12basic_stringIcNS2_20StringStorageDefaultIcEEEEPKN5Unity4TypeE4PPtrI10MonoScriptES8_bRNS0_14GenericBindingE
1239:__Z28AddGenericCurveToClipBuilderR17AnimationCurveTplIfERKN11UnityEngine9Animation14GenericBindingER18MecanimClipBuilderb
1240:__Z18PrepareClipBuilderR18MecanimClipBuilder
1241:__Z25AddPPtrCurveToClipBuilderR13dynamic_arrayI12PPtrKeyframeLj0EERKN11UnityEngine9Animation14GenericBindingER18MecanimClipBuilder
1242:__Z15BuildMuscleClipRK18MecanimClipBuilderRK21AnimationClipSettingsbRN11UnityEngine9Animation28AnimationClipBindingConstantER20RuntimeBaseAllocator
1243:__ZN9BlobWrite8TransferIN7mecanim9animation18ClipMuscleConstantEEEvRT_PKc17TransferMetaFlags
1244:__Z23PatchMuscleClipWithInfoP13AnimationClipRK21AnimationClipSettingsbPN7mecanim9animation18ClipMuscleConstantER20RuntimeBaseAllocator
1245:__ZN18MecanimClipBuilder6CurvesD2Ev
1246:__ZN7mecanim9animation25InitClipMuscleDeltaValuesERNS0_18ClipMuscleConstantEb
1247:__ZN7mecanim9animation26InitClipMuscleAverageSpeedERNS0_18ClipMuscleConstantEi
1248:__Z26InitClipMuscleAdditivePoseRN7mecanim9animation18ClipMuscleConstantES2_PN11UnityEngine9Animation20AnimationSetBindingsEfR20RuntimeBaseAllocator
1249:__ZN7mecanim9animation16CreateClipMemoryEPKNS0_4ClipER20RuntimeBaseAllocator
1250:__ZN7mecanim9animation18ClipMuscleConstant8TransferI8BlobSizeEEvRT_
1251:__ZN7mecanim9animation18ClipMuscleConstant8TransferI9BlobWriteEEvRT_
1252:__ZN9BlobWrite8TransferIN7mecanim5human9HumanPoseEEEvRT_PKc17TransferMetaFlags
1253:__ZN9BlobWrite8TransferIN4math4trsXEEEvRT_PKc17TransferMetaFlags
1254:__ZN9BlobWrite8TransferIKN4math7_float3EEEvRT_PKc17TransferMetaFlags
1255:__ZN9BlobWrite8TransferI9OffsetPtrIN7mecanim9animation4ClipEEEEvRT_PKc17TransferMetaFlags
1256:__ZN9BlobWrite8TransferIfEEvRT_PKc17TransferMetaFlags
1257:__ZN9BlobWrite8TransferI19StaticArrayTransferIiLi200EEEEvRT_PKc17TransferMetaFlags
1258:__ZN9BlobWrite8TransferI22OffsetPtrArrayTransferIN7mecanim9animation10ValueDeltaEEEEvRT_PKc17TransferMetaFlags
1259:__ZN9BlobWrite8TransferI22OffsetPtrArrayTransferIfEEEvRT_PKc17TransferMetaFlags
1260:__ZN9BlobWrite8TransferIbEEvRT_PKc17TransferMetaFlags
1261:__ZN34BlobWriteTransferSTLStyleArrayImplI22OffsetPtrArrayTransferIfEEclERS1_17TransferMetaFlagsR9BlobWrite
1262:__ZN34BlobWriteTransferSTLStyleArrayImplI22OffsetPtrArrayTransferIN7mecanim9animation10ValueDeltaEEEclERS4_17TransferMetaFlagsR9BlobWrite
1263:__ZN9BlobWrite8TransferIN7mecanim9animation10ValueDeltaEEEvRT_PKc17TransferMetaFlags
1264:__ZN9BlobWrite8TransferIN7mecanim9animation4ClipEEEvRT_PKc17TransferMetaFlags
1265:__ZN7mecanim9animation4Clip8TransferI8BlobSizeEEvRT_
1266:__ZN9BlobWrite8TransferIN7mecanim9animation12StreamedClipEEEvRT_PKc17TransferMetaFlags
1267:__ZN9BlobWrite8TransferIN7mecanim9animation9DenseClipEEEvRT_PKc17TransferMetaFlags
1268:__ZN9BlobWrite8TransferIN7mecanim9animation12ConstantClipEEEvRT_PKc17TransferMetaFlags
1269:__ZN9BlobWrite8TransferI9OffsetPtrIN7mecanim18ValueArrayConstantEEEEvRT_PKc17TransferMetaFlags
1270:__ZN9BlobWrite8TransferIN7mecanim18ValueArrayConstantEEEvRT_PKc17TransferMetaFlags
1271:__ZN9BlobWrite8TransferI22OffsetPtrArrayTransferIN7mecanim13ValueConstantEEEEvRT_PKc17TransferMetaFlags
1272:__ZN34BlobWriteTransferSTLStyleArrayImplI22OffsetPtrArrayTransferIN7mecanim13ValueConstantEEEclERS3_17TransferMetaFlagsR9BlobWrite
1273:__ZN9BlobWrite8TransferIN7mecanim13ValueConstantEEEvRT_PKc17TransferMetaFlags
1274:__ZN15SerializeTraitsIN4math4trsXEE8TransferI8BlobSizeEEvRS1_RT_
1275:__ZN9BlobWrite8TransferIKN4math7_float4EEEvRT_PKc17TransferMetaFlags
1276:__ZN7mecanim5human9HumanPose8TransferI8BlobSizeEEvRT_
1277:__ZN9BlobWrite8TransferI19StaticArrayTransferIN7mecanim5human9HumanGoalELi4EEEEvRT_PKc17TransferMetaFlags
1278:__ZN9BlobWrite8TransferIN7mecanim4hand8HandPoseEEEvRT_PKc17TransferMetaFlags
1279:__ZN9BlobWrite8TransferI19StaticArrayTransferIKN4math7_float3ELi21EEEEvRT_PKc17TransferMetaFlags
1280:__ZN9BlobWrite8TransferIN7mecanim5human9HumanGoalEEEvRT_PKc17TransferMetaFlags
1281:__ZN7mecanim5human9HumanGoal8TransferI8BlobSizeEEvRT_
1282:__ZN13dynamic_arrayIN11UnityEngine9Animation14GenericBindingELj0EE6insertEPS2_PKS2_S6_
1283:__ZN7mecanim9animation16CreateClipSimpleEjR20RuntimeBaseAllocator
1284:__Z25CreateStreamedClipBuilderjj
1285:__ZN7mecanim9animation18CreateConstantClipERNS0_12ConstantClipEjR20RuntimeBaseAllocator
1286:__Z15CreateDenseClipRN7mecanim9animation9DenseClipEjfffR20RuntimeBaseAllocator
1287:__Z22AddCurveToStreamedClipI8Vector3fEvP19StreamedClipBuilderiRK17AnimationCurveTplIT_E
1288:__Z19AddCurveToDenseClipI8Vector3fEvRN7mecanim9animation9DenseClipEiRK17AnimationCurveTplIT_E
1289:__Z22AddCurveToStreamedClipI11QuaternionfEvP19StreamedClipBuilderiRK17AnimationCurveTplIT_E
1290:__Z19AddCurveToDenseClipI11QuaternionfEvRN7mecanim9animation9DenseClipEiRK17AnimationCurveTplIT_E
1291:__Z22AddCurveToStreamedClipIfEvP19StreamedClipBuilderiRK17AnimationCurveTplIT_E
1292:__Z19AddCurveToDenseClipIfEvRN7mecanim9animation9DenseClipEiRK17AnimationCurveTplIT_E
1293:__ZL32AddMappedPPtrCurveToStreamedClipP19StreamedClipBuilderiRN11UnityEngine9Animation28AnimationClipBindingConstantERK13dynamic_arrayI12PPtrKeyframeLj0EE
1294:__Z24CreateStreamClipConstantP19StreamedClipBuilderRN7mecanim9animation12StreamedClipER20RuntimeBaseAllocator
1295:__Z26DestroyStreamedClipBuilderP19StreamedClipBuilder
1296:__ZN7mecanim9animation24CreateClipMuscleConstantEPNS0_4ClipER20RuntimeBaseAllocator
1297:__ZNSt3__26__sortIRNS_6__lessI13BuildCurveKeyS2_EEPS2_EEvT0_S6_T_
1298:__ZNSt3__27__sort4IRNS_6__lessI13BuildCurveKeyS2_EEPS2_EEjT0_S6_S6_S6_T_
1299:__ZNSt3__27__sort5IRNS_6__lessI13BuildCurveKeyS2_EEPS2_EEjT0_S6_S6_S6_S6_T_
1300:__ZNSt3__218__insertion_sort_3IRNS_6__lessI13BuildCurveKeyS2_EEPS2_EEvT0_S6_T_
1301:__ZNSt3__227__insertion_sort_incompleteIRNS_6__lessI13BuildCurveKeyS2_EEPS2_EEbT0_S6_T_
1302:__Z29AddIntegerCurveToStreamedClipP19StreamedClipBuilderiPfPii
1303:__Z23ConvertCacheToBuildKeysIfEvRN17AnimationCurveTplIT_E5CacheEiP19StreamedClipBuilder
1304:__Z23ConvertCacheToBuildKeysI11QuaternionfEvRN17AnimationCurveTplIT_E5CacheEiP19StreamedClipBuilder
1305:__Z23ConvertCacheToBuildKeysI8Vector3fEvRN17AnimationCurveTplIT_E5CacheEiP19StreamedClipBuilder
1306:__ZN11UnityEngine9Animation20IsDiscreteIntBindingE4PPtrI10MonoScriptERKN4core12basic_stringIcNS4_20StringStorageDefaultIcEEEEPKN5Unity4TypeE
1307:__ZL13ClassifyCurveI8Vector3fE11ClipOptTypeR17AnimationCurveTplIT_Ebf
1308:__ZN11UnityEngine9Animation22CreateTransformBindingERKN4core12basic_stringIcNS1_20StringStorageDefaultIcEEEEiRNS0_14GenericBindingE
1309:__ZNSt3__26vectorI15RootMotionCurve13stl_allocatorIS1_L18MemLabelIdentifier1ELi16EEE21__push_back_slow_pathIRKS1_EEvOT_
1310:__ZN18MecanimClipBuilderC2Ev
1311:__ZN6Motion17NotifyObjectUsersERK17MessageIdentifier
1312:__ZN13AnimationClipC2E10MemLabelId18ObjectCreationMode
1313:__ZN6MotionC2E10MemLabelId18ObjectCreationMode
1314:__ZN7mecanim6memory16ChainedAllocator8AllocateEjj
1315:__ZN13AnimationClipD2Ev
1316:__ZN13AnimationClipD0Ev
1317:__ZN13AnimationClip17MainThreadCleanupEv
1318:__ZN13AnimationClip13AwakeFromLoadE17AwakeFromLoadMode
1319:__ZNK13AnimationClip22GetTypeVirtualInternalEv
1320:__ZN13AnimationClip7SetNameEPKc
1321:__ZN13AnimationClip23VirtualRedirectTransferER19StreamedBinaryWrite
1322:__ZN13AnimationClip23VirtualRedirectTransferER18StreamedBinaryRead
1323:__ZN13AnimationClip23VirtualRedirectTransferER17RemapPPtrTransfer
1324:__ZN13AnimationClip23VirtualRedirectTransferER24GenerateTypeTreeTransfer
1325:__ZN13AnimationClip23VirtualRedirectTransferER14SafeBinaryRead
1326:__ZNK13AnimationClip18GetAverageDurationEv
1327:__ZNK13AnimationClip22GetAverageAngularSpeedEv
1328:__ZNK13AnimationClip15GetAverageSpeedEv
1329:__ZNK13AnimationClip16GetApparentSpeedEv
1330:__ZNK13AnimationClip13IsHumanMotionEv
1331:__ZNK13AnimationClip9IsLoopingEv
1332:__ZNK13AnimationClip17GetAnimationClipsEv
1333:__ZNK13AnimationClip8IsLegacyEv
1334:__ZN13AnimationClip8TransferI14SafeBinaryReadEEvRT_
1335:__ZN14SafeBinaryRead21TransferSTLStyleArrayINSt3__26vectorIN13AnimationClip15QuaternionCurveE13stl_allocatorIS4_L18MemLabelIdentifier26ELi16EEEEEEvRT_17TransferMetaFlags
1336:__ZN14SafeBinaryRead21TransferSTLStyleArrayINSt3__26vectorI24CompressedAnimationCurve13stl_allocatorIS3_L18MemLabelIdentifier26ELi16EEEEEEvRT_17TransferMetaFlags
1337:__ZN13stl_allocatorI24CompressedAnimationCurveL18MemLabelIdentifier26ELi16EE7destroyEPS0_
1338:__ZNSt3__26vectorIN13AnimationClip15QuaternionCurveE13stl_allocatorIS2_L18MemLabelIdentifier26ELi16EEE6resizeEj
1339:__ZN14SafeBinaryRead21TransferSTLStyleArrayINSt3__26vectorIN13AnimationClip12Vector3CurveE13stl_allocatorIS4_L18MemLabelIdentifier26ELi16EEEEEEvRT_17TransferMetaFlags
1340:__ZN14SafeBinaryRead21TransferSTLStyleArrayINSt3__26vectorIN13AnimationClip10FloatCurveE13stl_allocatorIS4_L18MemLabelIdentifier26ELi16EEEEEEvRT_17TransferMetaFlags
1341:__ZN14SafeBinaryRead21TransferSTLStyleArrayINSt3__26vectorIN13AnimationClip9PPtrCurveE13stl_allocatorIS4_L18MemLabelIdentifier26ELi16EEEEEEvRT_17TransferMetaFlags
1342:__ZL51RenameMotionCurvesToRootCurvesBackwardCompatibilityRNSt3__26vectorIN13AnimationClip10FloatCurveE13stl_allocatorIS2_L18MemLabelIdentifier26ELi16EEEE
1343:__Z21TransferBlobSerializeIN7mecanim9animation18ClipMuscleConstantE14SafeBinaryReadEvRPT_PKcRjS8_RT0_
1344:__ZN11UnityEngine9Animation28AnimationClipBindingConstant8TransferI14SafeBinaryReadEEvRT_
1345:__ZN14SafeBinaryRead21TransferSTLStyleArrayINSt3__26vectorI14AnimationEvent13stl_allocatorIS3_L18MemLabelIdentifier26ELi16EEEEEEvRT_17TransferMetaFlags
1346:__Z14resize_trimmedINSt3__26vectorI14AnimationEvent13stl_allocatorIS2_L18MemLabelIdentifier26ELi16EEEEEvRT_j
1347:__ZN14AnimationEvent8TransferI14SafeBinaryReadEEvRT_
1348:__ZNSt3__26vectorI14AnimationEvent13stl_allocatorIS1_L18MemLabelIdentifier26ELi16EEE7reserveEj
1349:__ZNSt3__26vectorI14AnimationEvent13stl_allocatorIS1_L18MemLabelIdentifier26ELi16EEE6assignINS_11__wrap_iterIPS1_EEEENS_9enable_ifIXaasr21__is_forward_iteratorIT_EE5valuesr16is_constructibleIS1_NS_15iterator_traitsISB_E9referenceEEE5valueEvE4typeESB_SB_
1350:__ZNSt3__26vectorI14AnimationEvent13stl_allocatorIS1_L18MemLabelIdentifier26ELi16EEE6resizeEj
1351:__ZNSt3__26vectorI14AnimationEvent13stl_allocatorIS1_L18MemLabelIdentifier26ELi16EEE8__appendEj
1352:__ZNSt3__26vectorI14AnimationEvent13stl_allocatorIS1_L18MemLabelIdentifier26ELi16EEE26__swap_out_circular_bufferERNS_14__split_bufferIS1_RS4_EE
1353:__ZN14AnimationEventaSERKS_
1354:__ZNSt3__26vectorI14AnimationEvent13stl_allocatorIS1_L18MemLabelIdentifier26ELi16EEE18__construct_at_endINS_11__wrap_iterIPS1_EEEENS_9enable_ifIXsr21__is_forward_iteratorIT_EE5valueEvE4typeESB_SB_j
1355:__ZNSt3__26vectorI14AnimationEvent13stl_allocatorIS1_L18MemLabelIdentifier26ELi16EEE10deallocateEv
1356:__ZN14SafeBinaryRead21TransferSTLStyleArrayI13dynamic_arrayIN11UnityEngine9Animation14GenericBindingELj0EEEEvRT_17TransferMetaFlags
1357:__ZN14SafeBinaryRead21TransferSTLStyleArrayI13dynamic_arrayI4PPtrI6ObjectELj0EEEEvRT_17TransferMetaFlags
1358:__ZN13dynamic_arrayIN11UnityEngine9Animation14GenericBindingELj0EE18resize_initializedEj12ResizePolicy
1359:__ZN11UnityEngine9Animation14GenericBinding8TransferI14SafeBinaryReadEEvRT_
1360:__ZN14SafeBinaryRead8TransferIPKN5Unity4TypeEEEvRT_PKc17TransferMetaFlags
1361:__ZN7mecanim6memory16ChainedAllocator7ReserveEj
1362:__ZN7mecanim9animation18ClipMuscleConstant8TransferI14SafeBinaryReadEEvRT_
1363:__ZN7mecanim5human9HumanPose8TransferI14SafeBinaryReadEEvRT_
1364:__ZN15SerializeTraitsIN4math4trsXEE8TransferI14SafeBinaryReadEEvRS1_RT_
1365:__ZN7mecanim9animation4Clip8TransferI14SafeBinaryReadEEvRT_
1366:__ZN14SafeBinaryRead21TransferSTLStyleArrayI19StaticArrayTransferIiLi200EEEEvRT_17TransferMetaFlags
1367:__ZN14SafeBinaryRead21TransferSTLStyleArrayI22OffsetPtrArrayTransferIN7mecanim9animation10ValueDeltaEEEEvRT_17TransferMetaFlags
1368:__ZN14SafeBinaryRead21TransferSTLStyleArrayI22OffsetPtrArrayTransferIfEEEvRT_17TransferMetaFlags
1369:__ZN7mecanim9animation10ValueDelta8TransferI14SafeBinaryReadEEvRT_
1370:__ZN14SafeBinaryRead21TransferSTLStyleArrayI22OffsetPtrArrayTransferIjEEEvRT_17TransferMetaFlags
1371:__ZN7mecanim9animation9DenseClip8TransferI14SafeBinaryReadEEvRT_
1372:__ZN15SerializeTraitsI9OffsetPtrIN7mecanim18ValueArrayConstantEEE8TransferI14SafeBinaryReadEEvRS3_RT_
1373:__ZN14SafeBinaryRead21TransferSTLStyleArrayI22OffsetPtrArrayTransferIN7mecanim13ValueConstantEEEEvRT_17TransferMetaFlags
1374:__ZN7mecanim13ValueConstant8TransferI14SafeBinaryReadEEvRT_
1375:__ZN14SafeBinaryRead21TransferSTLStyleArrayI19StaticArrayTransferIN7mecanim5human9HumanGoalELi4EEEEvRT_17TransferMetaFlags
1376:__ZN7mecanim4hand8HandPose8TransferI14SafeBinaryReadEEvRT_
1377:__ZN14SafeBinaryRead21TransferSTLStyleArrayI19StaticArrayTransferIfLi55EEEEvRT_17TransferMetaFlags
1378:__ZN14SafeBinaryRead21TransferSTLStyleArrayI19StaticArrayTransferIKN4math7_float3ELi21EEEEvRT_17TransferMetaFlags
1379:__ZN14SafeBinaryRead21TransferSTLStyleArrayI19StaticArrayTransferIfLi20EEEEvRT_17TransferMetaFlags
1380:__ZN7mecanim5human9HumanGoal8TransferI14SafeBinaryReadEEvRT_
1381:__Z14resize_trimmedINSt3__26vectorIN13AnimationClip9PPtrCurveE13stl_allocatorIS3_L18MemLabelIdentifier26ELi16EEEEEvRT_j
1382:__ZN13AnimationClip9PPtrCurve8TransferI14SafeBinaryReadEEvRT_
1383:__ZN14SafeBinaryRead21TransferSTLStyleArrayI13dynamic_arrayI12PPtrKeyframeLj0EEEEvRT_17TransferMetaFlags
1384:__ZN15SerializeTraitsI13dynamic_arrayI12PPtrKeyframeLj0EEE19ResizeSTLStyleArrayERS2_i
1385:__ZN12PPtrKeyframe8TransferI14SafeBinaryReadEEvRT_
1386:__ZN13AnimationClip9PPtrCurveC2ERKS0_
1387:__ZNSt3__214__split_bufferIN13AnimationClip9PPtrCurveER13stl_allocatorIS2_L18MemLabelIdentifier26ELi16EEED2Ev
1388:__ZNSt3__26vectorIN13AnimationClip9PPtrCurveE13stl_allocatorIS2_L18MemLabelIdentifier26ELi16EEE6assignINS_11__wrap_iterIPS2_EEEENS_9enable_ifIXaasr21__is_forward_iteratorIT_EE5valuesr16is_constructibleIS2_NS_15iterator_traitsISC_E9referenceEEE5valueEvE4typeESC_SC_
1389:__ZNSt3__26vectorIN13AnimationClip9PPtrCurveE13stl_allocatorIS2_L18MemLabelIdentifier26ELi16EEE6resizeEj
1390:__ZNSt3__213__vector_baseIN13AnimationClip9PPtrCurveE13stl_allocatorIS2_L18MemLabelIdentifier26ELi16EEED2Ev
1391:__ZNSt3__26vectorIN13AnimationClip9PPtrCurveE13stl_allocatorIS2_L18MemLabelIdentifier26ELi16EEE8__appendEj
1392:__ZN13AnimationClip9PPtrCurveaSERKS0_
1393:__ZNSt3__26vectorIN13AnimationClip9PPtrCurveE13stl_allocatorIS2_L18MemLabelIdentifier26ELi16EEE10deallocateEv
1394:__Z14resize_trimmedINSt3__26vectorIN13AnimationClip10FloatCurveE13stl_allocatorIS3_L18MemLabelIdentifier26ELi16EEEEEvRT_j
1395:__ZN13AnimationClip10FloatCurve8TransferI14SafeBinaryReadEEvRT_
1396:__ZN17AnimationCurveTplIfE8TransferI14SafeBinaryReadEEvRT_
1397:__ZN14SafeBinaryRead21TransferSTLStyleArrayI13dynamic_arrayI11KeyframeTplIfELj0EEEEvRT_17TransferMetaFlags
1398:__ZN15SerializeTraitsI13dynamic_arrayI11KeyframeTplIfELj0EEE19ResizeSTLStyleArrayERS3_i
1399:__ZN11KeyframeTplIfE8TransferI14SafeBinaryReadEEvRT_
1400:__ZNSt3__26vectorIN13AnimationClip10FloatCurveE13stl_allocatorIS2_L18MemLabelIdentifier26ELi16EEE6assignINS_11__wrap_iterIPS2_EEEENS_9enable_ifIXaasr21__is_forward_iteratorIT_EE5valuesr16is_constructibleIS2_NS_15iterator_traitsISC_E9referenceEEE5valueEvE4typeESC_SC_
1401:__ZNSt3__26vectorIN13AnimationClip10FloatCurveE13stl_allocatorIS2_L18MemLabelIdentifier26ELi16EEE6resizeEj
1402:__ZNSt3__213__vector_baseIN13AnimationClip10FloatCurveE13stl_allocatorIS2_L18MemLabelIdentifier26ELi16EEED2Ev
1403:__ZNSt3__26vectorIN13AnimationClip10FloatCurveE13stl_allocatorIS2_L18MemLabelIdentifier26ELi16EEE8__appendEj
1404:__ZN13AnimationClip10FloatCurveaSERKS0_
1405:__ZNSt3__26vectorIN13AnimationClip10FloatCurveE13stl_allocatorIS2_L18MemLabelIdentifier26ELi16EEE10deallocateEv
1406:__Z14resize_trimmedINSt3__26vectorIN13AnimationClip12Vector3CurveE13stl_allocatorIS3_L18MemLabelIdentifier26ELi16EEEEEvRT_j
1407:__ZN13AnimationClip12Vector3Curve8TransferI14SafeBinaryReadEEvRT_
1408:__ZN17AnimationCurveTplI8Vector3fE8TransferI14SafeBinaryReadEEvRT_
1409:__ZN14SafeBinaryRead21TransferSTLStyleArrayI13dynamic_arrayI11KeyframeTplI8Vector3fELj0EEEEvRT_17TransferMetaFlags
1410:__ZN13dynamic_arrayI11KeyframeTplI8Vector3fELj0EE18resize_initializedEj12ResizePolicy
1411:__ZN11KeyframeTplI8Vector3fE8TransferI14SafeBinaryReadEEvRT_
1412:__ZNSt3__26vectorIN13AnimationClip12Vector3CurveE13stl_allocatorIS2_L18MemLabelIdentifier26ELi16EEE7reserveEj
1413:__ZNSt3__26vectorIN13AnimationClip12Vector3CurveE13stl_allocatorIS2_L18MemLabelIdentifier26ELi16EEE6assignINS_11__wrap_iterIPS2_EEEENS_9enable_ifIXaasr21__is_forward_iteratorIT_EE5valuesr16is_constructibleIS2_NS_15iterator_traitsISC_E9referenceEEE5valueEvE4typeESC_SC_
1414:__ZNSt3__26vectorIN13AnimationClip12Vector3CurveE13stl_allocatorIS2_L18MemLabelIdentifier26ELi16EEE6resizeEj
1415:__ZNSt3__26vectorIN13AnimationClip12Vector3CurveE13stl_allocatorIS2_L18MemLabelIdentifier26ELi16EEEC2INS_11__wrap_iterIPS2_EEEET_SB_RKS5_PNS_9enable_ifIXaasr21__is_forward_iteratorISB_EE5valuesr16is_constructibleIS2_NS_15iterator_traitsISB_E9referenceEEE5valueEvE4typeE
1416:__ZNSt3__26vectorIN13AnimationClip12Vector3CurveE13stl_allocatorIS2_L18MemLabelIdentifier26ELi16EEE8__appendEj
1417:__ZNSt3__26vectorIN13AnimationClip12Vector3CurveE13stl_allocatorIS2_L18MemLabelIdentifier26ELi16EEE10deallocateEv
1418:__ZNSt3__26vectorIN13AnimationClip15QuaternionCurveE13stl_allocatorIS2_L18MemLabelIdentifier26ELi16EEE8__appendEj
1419:__Z14resize_trimmedINSt3__26vectorI24CompressedAnimationCurve13stl_allocatorIS2_L18MemLabelIdentifier26ELi16EEEEEvRT_j
1420:__ZN24CompressedAnimationCurve8TransferI14SafeBinaryReadEEvRT_
1421:__ZN15PackedIntVector8TransferI14SafeBinaryReadEEvRT_
1422:__ZN16PackedQuatVector8TransferI14SafeBinaryReadEEvRT_
1423:__ZN17PackedFloatVector8TransferI14SafeBinaryReadEEvRT_
1424:__ZNSt3__26vectorI24CompressedAnimationCurve13stl_allocatorIS1_L18MemLabelIdentifier26ELi16EEE7reserveEj
1425:__ZNSt3__26vectorI24CompressedAnimationCurve13stl_allocatorIS1_L18MemLabelIdentifier26ELi16EEE6assignINS_11__wrap_iterIPS1_EEEENS_9enable_ifIXaasr21__is_forward_iteratorIT_EE5valuesr16is_constructibleIS1_NS_15iterator_traitsISB_E9referenceEEE5valueEvE4typeESB_SB_
1426:__ZNSt3__26vectorI24CompressedAnimationCurve13stl_allocatorIS1_L18MemLabelIdentifier26ELi16EEE8__appendEj
1427:__ZN24CompressedAnimationCurveC2ERKS_
1428:__ZN24CompressedAnimationCurveaSERKS_
1429:__Z14resize_trimmedINSt3__26vectorIN13AnimationClip15QuaternionCurveE13stl_allocatorIS3_L18MemLabelIdentifier26ELi16EEEEEvRT_j
1430:__ZN13AnimationClip15QuaternionCurve8TransferI14SafeBinaryReadEEvRT_
1431:__ZN17AnimationCurveTplI11QuaternionfE8TransferI14SafeBinaryReadEEvRT_
1432:__ZN14SafeBinaryRead21TransferSTLStyleArrayI13dynamic_arrayI11KeyframeTplI11QuaternionfELj0EEEEvRT_17TransferMetaFlags
1433:__ZN13dynamic_arrayI11KeyframeTplI11QuaternionfELj0EE18resize_initializedEj12ResizePolicy
1434:__ZN11KeyframeTplI11QuaternionfE8TransferI14SafeBinaryReadEEvRT_
1435:__ZNSt3__26vectorIN13AnimationClip15QuaternionCurveE13stl_allocatorIS2_L18MemLabelIdentifier26ELi16EEE7reserveEj
1436:__ZNSt3__26vectorIN13AnimationClip15QuaternionCurveE13stl_allocatorIS2_L18MemLabelIdentifier26ELi16EEE6assignINS_11__wrap_iterIPS2_EEEENS_9enable_ifIXaasr21__is_forward_iteratorIT_EE5valuesr16is_constructibleIS2_NS_15iterator_traitsISC_E9referenceEEE5valueEvE4typeESC_SC_
1437:__ZNSt3__26vectorIN13AnimationClip15QuaternionCurveE13stl_allocatorIS2_L18MemLabelIdentifier26ELi16EEE10deallocateEv
1438:__ZN13AnimationClip8TransferI24GenerateTypeTreeTransferEEvRT_
1439:__ZN24GenerateTypeTreeTransfer21TransferSTLStyleArrayINSt3__26vectorIN13AnimationClip15QuaternionCurveE13stl_allocatorIS4_L18MemLabelIdentifier26ELi16EEEEEEvRT_17TransferMetaFlags
1440:__ZN24GenerateTypeTreeTransfer21TransferSTLStyleArrayINSt3__26vectorI24CompressedAnimationCurve13stl_allocatorIS3_L18MemLabelIdentifier26ELi16EEEEEEvRT_17TransferMetaFlags
1441:__ZN24GenerateTypeTreeTransfer21TransferSTLStyleArrayINSt3__26vectorIN13AnimationClip12Vector3CurveE13stl_allocatorIS4_L18MemLabelIdentifier26ELi16EEEEEEvRT_17TransferMetaFlags
1442:__ZN24GenerateTypeTreeTransfer21TransferSTLStyleArrayINSt3__26vectorIN13AnimationClip10FloatCurveE13stl_allocatorIS4_L18MemLabelIdentifier26ELi16EEEEEEvRT_17TransferMetaFlags
1443:__ZN24GenerateTypeTreeTransfer21TransferSTLStyleArrayINSt3__26vectorIN13AnimationClip9PPtrCurveE13stl_allocatorIS4_L18MemLabelIdentifier26ELi16EEEEEEvRT_17TransferMetaFlags
1444:__Z21TransferBlobSerializeIN7mecanim9animation18ClipMuscleConstantE24GenerateTypeTreeTransferEvRPT_PKcRjS8_RT0_
1445:__ZN11UnityEngine9Animation28AnimationClipBindingConstant8TransferI24GenerateTypeTreeTransferEEvRT_
1446:__ZN24GenerateTypeTreeTransfer21TransferSTLStyleArrayINSt3__26vectorI14AnimationEvent13stl_allocatorIS3_L18MemLabelIdentifier26ELi16EEEEEEvRT_17TransferMetaFlags
1447:__ZN14AnimationEvent8TransferI24GenerateTypeTreeTransferEEvRT_
1448:__ZN11UnityEngine9Animation14GenericBinding8TransferI24GenerateTypeTreeTransferEEvRT_
1449:__ZN7mecanim9animation18ClipMuscleConstant8TransferI24GenerateTypeTreeTransferEEvRT_
1450:__ZN7mecanim5human9HumanPose8TransferI24GenerateTypeTreeTransferEEvRT_
1451:__ZN24GenerateTypeTreeTransfer8TransferIN4math4trsXEEEvRT_PKc17TransferMetaFlags
1452:__ZN7mecanim9animation4Clip8TransferI24GenerateTypeTreeTransferEEvRT_
1453:__ZN7mecanim9animation9DenseClip8TransferI24GenerateTypeTreeTransferEEvRT_
1454:__Z17TransferOffsetPtrI9OffsetPtrIN7mecanim13ValueConstantEE24GenerateTypeTreeTransferEvRT_PKcRjRT0_
1455:__ZN7mecanim4hand8HandPose8TransferI24GenerateTypeTreeTransferEEvRT_
1456:__ZN24GenerateTypeTreeTransfer8TransferIN13AnimationClip9PPtrCurveEEEvRT_PKc17TransferMetaFlags
1457:__ZN13AnimationClip10FloatCurve8TransferI24GenerateTypeTreeTransferEEvRT_
1458:__ZN17AnimationCurveTplIfE8TransferI24GenerateTypeTreeTransferEEvRT_
1459:__ZN11KeyframeTplIfE8TransferI24GenerateTypeTreeTransferEEvRT_
1460:__ZN17AnimationCurveTplI8Vector3fE8TransferI24GenerateTypeTreeTransferEEvRT_
1461:__ZN11KeyframeTplI8Vector3fE8TransferI24GenerateTypeTreeTransferEEvRT_
1462:__ZN24CompressedAnimationCurve8TransferI24GenerateTypeTreeTransferEEvRT_
1463:__ZN24GenerateTypeTreeTransfer8TransferI15PackedIntVectorEEvRT_PKc17TransferMetaFlags
1464:__ZN17PackedFloatVector8TransferI24GenerateTypeTreeTransferEEvRT_
1465:__ZN17AnimationCurveTplI11QuaternionfE8TransferI24GenerateTypeTreeTransferEEvRT_
1466:__ZN11KeyframeTplI11QuaternionfE8TransferI24GenerateTypeTreeTransferEEvRT_
1467:__ZN13AnimationClip8TransferI17RemapPPtrTransferEEvRT_
1468:__ZN14AnimationEvent8TransferI17RemapPPtrTransferEEvRT_
1469:__ZN13AnimationClip8TransferI18StreamedBinaryReadEEvRT_
1470:__ZN18StreamedBinaryRead8TransferINSt3__26vectorIN13AnimationClip15QuaternionCurveE13stl_allocatorIS4_L18MemLabelIdentifier26ELi16EEEEEEvRT_PKc17TransferMetaFlags
1471:__ZN24CompressedAnimationCurve8TransferI18StreamedBinaryReadEEvRT_
1472:__ZN18StreamedBinaryRead8TransferINSt3__26vectorIN13AnimationClip12Vector3CurveE13stl_allocatorIS4_L18MemLabelIdentifier26ELi16EEEEEEvRT_PKc17TransferMetaFlags
1473:__ZN13AnimationClip10FloatCurve8TransferI18StreamedBinaryReadEEvRT_
1474:__ZN13AnimationClip9PPtrCurve8TransferI18StreamedBinaryReadEEvRT_
1475:__Z21TransferBlobSerializeIN7mecanim9animation18ClipMuscleConstantE18StreamedBinaryReadEvRPT_PKcRjS8_RT0_
1476:__ZN18StreamedBinaryRead8TransferIN11UnityEngine9Animation28AnimationClipBindingConstantEEEvRT_PKc17TransferMetaFlags
1477:__ZN14AnimationEvent8TransferI18StreamedBinaryReadEEvRT_
1478:__ZN11UnityEngine9Animation14GenericBinding8TransferI18StreamedBinaryReadEEvRT_
1479:__ZN18StreamedBinaryRead21TransferSTLStyleArrayI13dynamic_arrayI4PPtrI6ObjectELj0EEEEvRT_17TransferMetaFlags
1480:__ZN7mecanim9animation18ClipMuscleConstant8TransferI18StreamedBinaryReadEEvRT_
1481:__ZN7mecanim5human9HumanPose8TransferI18StreamedBinaryReadEEvRT_
1482:__ZN15SerializeTraitsIN4math4trsXEE8TransferI18StreamedBinaryReadEEvRS1_RT_
1483:__ZN7mecanim9animation4Clip8TransferI18StreamedBinaryReadEEvRT_
1484:__ZN18StreamedBinaryRead21TransferSTLStyleArrayI22OffsetPtrArrayTransferIN7mecanim9animation10ValueDeltaEEEEvRT_17TransferMetaFlags
1485:__ZN18StreamedBinaryRead8TransferIN7mecanim9animation12StreamedClipEEEvRT_PKc17TransferMetaFlags
1486:__ZN7mecanim9animation9DenseClip8TransferI18StreamedBinaryReadEEvRT_
1487:__ZN18StreamedBinaryRead21TransferSTLStyleArrayI22OffsetPtrArrayTransferIN7mecanim13ValueConstantEEEEvRT_17TransferMetaFlags
1488:__ZN7mecanim5human9HumanGoal8TransferI18StreamedBinaryReadEEvRT_
1489:__ZN7mecanim4hand8HandPose8TransferI18StreamedBinaryReadEEvRT_
1490:__ZN18StreamedBinaryRead21TransferSTLStyleArrayI19StaticArrayTransferIKN4math7_float3ELi21EEEEvRT_17TransferMetaFlags
1491:__ZN18StreamedBinaryRead8TransferI13dynamic_arrayI12PPtrKeyframeLj0EEEEvRT_PKc17TransferMetaFlags
1492:__ZN17AnimationCurveTplIfE8TransferI18StreamedBinaryReadEEvRT_
1493:__ZN17AnimationCurveTplI8Vector3fE8TransferI18StreamedBinaryReadEEvRT_
1494:__ZN17PackedFloatVector8TransferI18StreamedBinaryReadEEvRT_
1495:__ZN17AnimationCurveTplI11QuaternionfE8TransferI18StreamedBinaryReadEEvRT_
1496:__ZN13AnimationClip8TransferI19StreamedBinaryWriteEEvRT_
1497:__ZN17AnimationCurveTplI11QuaternionfE8TransferI19StreamedBinaryWriteEEvRT_
1498:__ZN24CompressedAnimationCurve8TransferI19StreamedBinaryWriteEEvRT_
1499:__ZN13AnimationClip14CompressCurvesERNSt3__26vectorI24CompressedAnimationCurve13stl_allocatorIS2_L18MemLabelIdentifier26ELi16EEEE
1500:__ZN17AnimationCurveTplI8Vector3fE8TransferI19StreamedBinaryWriteEEvRT_
1501:__ZN13AnimationClip10FloatCurve8TransferI19StreamedBinaryWriteEEvRT_
1502:__ZN13AnimationClip9PPtrCurve8TransferI19StreamedBinaryWriteEEvRT_
1503:__Z21TransferBlobSerializeIN7mecanim9animation18ClipMuscleConstantE19StreamedBinaryWriteEvRPT_PKcRjS8_RT0_
1504:__ZN11UnityEngine9Animation28AnimationClipBindingConstant8TransferI19StreamedBinaryWriteEEvRT_
1505:__ZN14AnimationEvent8TransferI19StreamedBinaryWriteEEvRT_
1506:__ZN11UnityEngine9Animation14GenericBinding8TransferI19StreamedBinaryWriteEEvRT_
1507:__ZN7mecanim9animation18ClipMuscleConstant8TransferI19StreamedBinaryWriteEEvRT_
1508:__ZN7mecanim5human9HumanPose8TransferI19StreamedBinaryWriteEEvRT_
1509:__ZN15SerializeTraitsIN4math4trsXEE8TransferI19StreamedBinaryWriteEEvRS1_RT_
1510:__ZN7mecanim9animation4Clip8TransferI19StreamedBinaryWriteEEvRT_
1511:__Z17TransferOffsetPtrI9OffsetPtrIN7mecanim9animation10ValueDeltaEE19StreamedBinaryWriteEvRT_PKcRjRT0_
1512:__ZN7mecanim9animation9DenseClip8TransferI19StreamedBinaryWriteEEvRT_
1513:__ZN15SerializeTraitsI22OffsetPtrArrayTransferIN7mecanim13ValueConstantEEE8TransferI19StreamedBinaryWriteEEvRS3_RT_
1514:__ZN7mecanim5human9HumanGoal8TransferI19StreamedBinaryWriteEEvRT_
1515:__ZN7mecanim4hand8HandPose8TransferI19StreamedBinaryWriteEEvRT_
1516:__Z13TransferArrayILi21EKN4math7_float3E19StreamedBinaryWriteEjRAT__T0_PKcRT1_
1517:__Z13TransferArrayILi20Ef19StreamedBinaryWriteEjRAT__T0_PKcRT1_
1518:__ZN17AnimationCurveTplIfE8TransferI19StreamedBinaryWriteEEvRT_
1519:__ZN11KeyframeTplIfE8TransferI19StreamedBinaryWriteEEvRT_
1520:__ZN11KeyframeTplI8Vector3fE8TransferI19StreamedBinaryWriteEEvRT_
1521:__ZN15PackedIntVector8TransferI19StreamedBinaryWriteEEvRT_
1522:__ZN15SerializeTraitsI16PackedQuatVectorE8TransferI19StreamedBinaryWriteEEvRS0_RT_
1523:__ZN17PackedFloatVector8TransferI19StreamedBinaryWriteEEvRT_
1524:__ZN11KeyframeTplI11QuaternionfE8TransferI19StreamedBinaryWriteEEvRT_
1525:__ZL25SetAdditionalCurvesValuesRN7mecanim10ValueArrayERKN11UnityEngine9Animation20AnimationSetBindingsERKNS_18ValueArrayConstantES9_RKS0_
1526:__ZN11UnityEngine9Animation29SetGenericFloatPropertyValuesERKNS0_30AnimatorGenericBindingConstantERKN7mecanim10ValueArrayE
1527:__ZN11UnityEngine9Animation28SetGenericPPtrPropertyValuesERKNS0_30AnimatorGenericBindingConstantERKN7mecanim10ValueArrayE
1528:__ZN11UnityEngine9Animation27SetGenericIntPropertyValuesERKNS0_30AnimatorGenericBindingConstantERKN7mecanim10ValueArrayE
1529:__ZN11UnityEngine9Animation31SetHumanTransformPropertyValuesERKNS0_21AvatarBindingConstantERKN7mecanim8skeleton13SkeletonPoseTIN4math4trsXEEEby
1530:__ZN11UnityEngine9Animation33SetGenericTransformPropertyValuesERKNS0_30AnimatorGenericBindingConstantERKN7mecanim10ValueArrayEP9Transformy
1531:__ZN11UnityEngine9Animation39SetGenericTransformPropertyValuesNoSyncERKNS0_30AnimatorGenericBindingConstantERKN7mecanim10ValueArrayEP9Transformy
1532:__Z10SetLocalTR15TransformAccessRKN4math7_float3ERKNS0_7_float4Ey
1533:__ZN11UnityEngine9Animation23SetBoundCurveFloatValueERKNS0_10BoundCurveEf
1534:__ZN11UnityEngine9Animation28SetBoundCurveInstanceIDValueERKNS0_10BoundCurveEi
1535:__Z20BindAdditionalCurvesRKN7mecanim18ValueArrayConstantEjPKN11UnityEngine9Animation14GenericBindingEPi
1536:__ZN8Animator13BatchedFKPassERK13dynamic_arrayIP14PlayableOutputLj0EE
1537:__ZN8Animator13BatchedIKPassERK13dynamic_arrayIP14PlayableOutputLj0EE
1538:__ZN8Animator13UpdateAvatarsERK13dynamic_arrayIP14PlayableOutputLj0EEbbb
1539:__ZN8Animator9BuildJobsERK13dynamic_arrayIP14PlayableOutputLj0EERS0_INS_11AnimatorJobELj0EEPS7_bb
1540:__ZN8Animator12CreateObjectEv
1541:__ZN8Animator23SetPlaybackTimeInternalEf
1542:__ZN21AnimationHandleBinder24ReadPropertySceneHandlesEv
1543:__ZN8Animator20ProcessRootMotionJobEPNS_11AnimatorJobEj
1544:__ZN8Animator19FireAnimationEventsERNS_11AnimatorJobE
1545:__ZN8Animator14FireBehavioursEN7mecanim12statemachine19StateMachineMessageERNS_11AnimatorJobE
1546:__ZN13dynamic_arrayIN8Animator11AnimatorJobELj0EED2Ev
1547:__ZN26AnimatorControllerPlayable24ClearFirstEvaluationFlagEv
1548:__ZN8Animator19ApplyOnAnimatorMoveERNS_11AnimatorJobE
1549:__ZN8Animator24SortJobsBasedOnHierarchyERK13dynamic_arrayINS_11AnimatorJobELj0EERS0_IS2_Lj0EE
1550:__ZN8Animator21ProcessAnimationsStepERNS_11AnimatorJobE
1551:__ZN7mecanim9animation22EvaluateAvatarRetargetEPKNS0_14AvatarConstantEPKNS0_11AvatarInputEPNS0_12AvatarOutputEPNS0_12AvatarMemoryEPNS0_15AvatarWorkspaceEb
1552:__ZN8Animator9WriteStepEy
1553:__ZN8Animator5IKJobEPNS_11AnimatorJobEj
1554:__ZN8Animator17ApplyOnAnimatorIKEiRNS_11AnimatorJobE
1555:__ZN8Animator15WritePropertiesEff
1556:__ZN21AnimationHandleBinder25WritePropertySceneHandlesEv
1557:__ZN14AvatarPlayback11RecordFrameEfPKN7mecanim9animation12AvatarMemoryEPNS1_16ControllerMemoryE
1558:__Z8CopyBlobIN7mecanim9animation12AvatarMemoryEEPT_RKS3_R20RuntimeBaseAllocatorRj
1559:__Z8CopyBlobIN7mecanim9animation16ControllerMemoryEEPT_RKS3_R20RuntimeBaseAllocatorRj
1560:__ZNSt3__26vectorI11AvatarFrameNS_9allocatorIS1_EEE21__push_back_slow_pathIRKS1_EEvOT_
1561:__ZN9BlobWrite8TransferIN7mecanim9animation16ControllerMemoryEEEvRT_PKc17TransferMetaFlags
1562:__ZN7mecanim9animation16ControllerMemory8TransferI8BlobSizeEEvRT_
1563:__ZN7mecanim9animation16ControllerMemory8TransferI9BlobWriteEEvRT_
1564:__ZN9BlobWrite8TransferI22OffsetPtrArrayTransferI9OffsetPtrIN7mecanim12statemachine18StateMachineMemoryEEEEEvRT_PKc17TransferMetaFlags
1565:__ZN9BlobWrite8TransferI9OffsetPtrIN7mecanim10ValueArrayEEEEvRT_PKc17TransferMetaFlags
1566:__ZN9BlobWrite8TransferIN7mecanim10ValueArrayEEEvRT_PKc17TransferMetaFlags
1567:__ZN7mecanim10ValueArray8TransferI8BlobSizeEEvRT_
1568:__ZN7mecanim10ValueArray8TransferI9BlobWriteEEvRT_
1569:__ZN9BlobWrite8TransferI22OffsetPtrArrayTransferIKN4math7_float3EEEEvRT_PKc17TransferMetaFlags
1570:__ZN9BlobWrite8TransferI22OffsetPtrArrayTransferIKN4math7_float4EEEEvRT_PKc17TransferMetaFlags
1571:__ZN9BlobWrite8TransferI22OffsetPtrArrayTransferIbEEEvRT_PKc17TransferMetaFlags
1572:__ZN34BlobWriteTransferSTLStyleArrayImplI22OffsetPtrArrayTransferIbEEclERS1_17TransferMetaFlagsR9BlobWrite
1573:__ZN34BlobWriteTransferSTLStyleArrayImplI22OffsetPtrArrayTransferIKN4math7_float4EEEclERS4_17TransferMetaFlagsR9BlobWrite
1574:__ZN34BlobWriteTransferSTLStyleArrayImplI22OffsetPtrArrayTransferIKN4math7_float3EEEclERS4_17TransferMetaFlagsR9BlobWrite
1575:__ZN34BlobWriteTransferSTLStyleArrayImplI22OffsetPtrArrayTransferI9OffsetPtrIN7mecanim12statemachine18StateMachineMemoryEEEEclERS6_17TransferMetaFlagsR9BlobWrite
1576:__ZN9BlobWrite8TransferI9OffsetPtrIN7mecanim12statemachine18StateMachineMemoryEEEEvRT_PKc17TransferMetaFlags
1577:__ZN9BlobWrite8TransferIN7mecanim12statemachine18StateMachineMemoryEEEvRT_PKc17TransferMetaFlags
1578:__ZN7mecanim12statemachine18StateMachineMemory8TransferI8BlobSizeEEvRT_
1579:__ZN7mecanim12statemachine18StateMachineMemory8TransferI9BlobWriteEEvRT_
1580:__ZN9BlobWrite8TransferIN7mecanim9animation12AvatarMemoryEEEvRT_PKc17TransferMetaFlags
1581:__ZN7mecanim9animation12AvatarMemory8TransferI8BlobSizeEEvRT_
1582:__ZN7mecanim9animation12AvatarMemory8TransferI9BlobWriteEEvRT_
1583:__ZN7mecanim9animation16EvaluateAvatarIKEPKNS0_14AvatarConstantEPKNS0_11AvatarInputEPNS0_12AvatarOutputEPNS0_12AvatarMemoryEPNS0_15AvatarWorkspaceEb
1584:__ZN7mecanim9animation17EvaluateAvatarEndEPKNS0_14AvatarConstantEPKNS0_11AvatarInputEPNS0_12AvatarOutputEPNS0_12AvatarMemoryEPNS0_15AvatarWorkspaceE
1585:__ZN7mecanim8skeleton16SkeletonPoseCopyIN4math4trsXES3_EEvPKNS0_13SkeletonPoseTIT_EEPNS4_IT0_EE
1586:__ZN7mecanim5human10TwistSolveEPKNS0_5HumanEPNS_8skeleton13SkeletonPoseTIN4math4trsXEEES9_
1587:__ZN7mecanim8skeleton16SkeletonPoseCopyIN4math4trsXES3_EEvPKNS0_13SkeletonPoseTIT_EEPNS4_IT0_EEjPKi
1588:__ZN7mecanim5human13HumanFixTwistEPKNS0_5HumanEPNS_8skeleton13SkeletonPoseTIN4math4trsXEEES9_iiRKf
1589:__ZN7mecanim8skeleton26SkeletonPoseComputeGlobalQEPKNS0_8SkeletonEPKNS0_13SkeletonPoseTIN4math4trsXEEEPS7_ii
1590:__ZN7mecanim8skeleton13SkeletonAlignEPKNS0_8SkeletonERKN4math7_float4ES7_i
1591:__ZN7mecanim8skeleton25SkeletonPoseComputeLocalQEPKNS0_8SkeletonEPKNS0_13SkeletonPoseTIN4math4trsXEEEPS7_ii
1592:__ZN7mecanim5human20HumanGetHintPositionEPKNS0_5HumanEPKNS_8skeleton13SkeletonPoseTIN4math4trsXEEENS0_4GoalE
1593:__ZN7mecanim5human13FullBodySolveEPKNS0_5HumanEPKNS0_9HumanPoseEPNS_8skeleton13SkeletonPoseTIN4math4trsXEEESC_SC_
1594:__ZN7mecanim5human15GetLookAtDeltaQERKN4math7_float3ES4_RKNS1_7_float4ES4_S4_RKf
1595:__ZN7mecanim8skeleton25Skeleton2BoneAdjustLengthEPKNS0_8SkeletonEiiiRKN4math7_float3ERKfPNS0_13SkeletonPoseTINS4_4trsXEEESD_
1596:__ZN7mecanim8skeleton15Skeleton2BoneIKEPKNS0_8SkeletonEiiiRKN4math7_float3EfPNS0_13SkeletonPoseTINS4_4trsXEEESB_
1597:__ZN7mecanim8skeleton23Skeleton2BoneAdjustHintEPKNS0_8SkeletonEiiiRKN4math7_float3EfPNS0_13SkeletonPoseTINS4_4trsXEEESB_f
1598:__ZN7mecanim5human17ReachGoalRotationEPKNS0_5HumanERKN4math7_float4EiPNS_8skeleton13SkeletonPoseTINS4_4trsXEEESC_SC_
1599:__ZN7mecanim5human14HumanFixEndDoFEPKNS0_5HumanEPNS_8skeleton13SkeletonPoseTIN4math4trsXEEES9_iifi
1600:__ZN7mecanim8skeleton14SkeletonGetDoFEPKNS0_8SkeletonEPKNS0_13SkeletonPoseTIN4math4trsXEEEi
1601:__ZN7mecanim8skeleton14SkeletonSetDoFEPKNS0_8SkeletonEPNS0_13SkeletonPoseTIN4math4trsXEEERKNS5_7_float3Ei
1602:__ZN11UnityEngine9Animation37SetHumanTransformPropertyValuesNoSyncERKNS0_21AvatarBindingConstantERKN7mecanim8skeleton13SkeletonPoseTIN4math4trsXEEEby
1603:__ZN7mecanim9animation21SkeletonPoseFromValueIN4math4trsXEEEvRKNS_8skeleton8SkeletonERKNS4_13SkeletonPoseTIS3_EERKNS_10ValueArrayEPKNS0_14SkeletonTQSMapERNS8_IT_EEPKib
1604:__ZN7mecanim8skeleton16SkeletonPoseCopyIN4math4trsXENS2_7affineXEEEvPKNS0_13SkeletonPoseTIT_EEPNS5_IT0_EE
1605:__ZN7mecanim8skeleton25SkeletonPoseComputeGlobalIN4math7affineXEEEvPKNS0_8SkeletonEPKNS0_13SkeletonPoseTIT_EEPS9_
1606:__Z34SetExposedSkeletonTransformsNoSyncRKN7mecanim9animation14AvatarConstantERKN11UnityEngine9Animation30AnimatorGenericBindingConstantERKNS_8skeleton13SkeletonPoseTIN4math4trsXEEERKNSA_INSB_7affineXEEERNS5_21AvatarBindingConstantEy
1607:__ZN7mecanim8skeleton25SkeletonGetGlobalRotationEPKNS0_8SkeletonEPKNS0_13SkeletonPoseTIN4math4trsXEEEi
1608:__ZN7mecanim5human10RetargetToEPKNS0_5HumanEPKNS0_9HumanPoseES6_RKN4math4trsXEPS4_PNS_8skeleton13SkeletonPoseTIS8_EESF_
1609:__ZN7mecanim9animation11SetIKOnFeetEbRKNS0_14AvatarConstantERKNS0_11AvatarInputERNS0_12AvatarMemoryERNS0_15AvatarWorkspaceERNS0_12AvatarOutputE
1610:__ZN7mecanim5human30HumanPoseAdjustForMissingBonesEPKNS0_5HumanEPNS0_9HumanPoseE
1611:__ZN7mecanim5human18Human2SkeletonPoseEPKNS0_5HumanEPKNS0_9HumanPoseEPNS_8skeleton13SkeletonPoseTIN4math4trsXEEE
1612:__ZN7mecanim5human14RetargetToTDoFEPKNS0_5HumanEPNS0_9HumanPoseEPKNS_8skeleton13SkeletonPoseTIN4math4trsXEEEPSA_SD_
1613:__ZN7mecanim5human26HumanComputeBoneMassCenterEPKNS0_5HumanEPKNS_8skeleton13SkeletonPoseTIN4math4trsXEEEi
1614:__ZN7mecanim5human23HumanComputeOrientationEPKNS0_5HumanEPKNS_8skeleton13SkeletonPoseTIN4math4trsXEEE
1615:__ZN7mecanim4hand17Hand2SkeletonPoseEPKNS0_4HandEPKNS_8skeleton8SkeletonEPKNS0_8HandPoseEPNS4_13SkeletonPoseTIN4math4trsXEEE
1616:__ZN12_GLOBAL__N_121ProcessAnimationBeginER35AnimationPlayableEvaluationConstantR32AnimationPlayableEvaluationInputR33AnimationPlayableEvaluationOutput
1617:__ZN12_GLOBAL__N_119ProcessAnimationMixER33AnimationPlayableEvaluationOutputR35AnimationPlayableEvaluationConstantR32AnimationPlayableEvaluationInputS1_f
1618:__ZN12_GLOBAL__N_119ProcessAnimationEndER35AnimationPlayableEvaluationConstantR32AnimationPlayableEvaluationInputR33AnimationPlayableEvaluationOutput
1619:__ZN12_GLOBAL__N_120ProcessPlayableGraphERN8Animator11AnimatorJobER35AnimationPlayableEvaluationConstantR32AnimationPlayableEvaluationInputR33AnimationPlayableEvaluationOutputPFvS4_R17AnimationPlayableEPFvS4_S6_S8_EPFvS8_S4_S6_S8_fESE_MS9_FvPS3_PS5_PS7_E
1620:__ZN17AnimationPlayable28UpdateInternalStateRecursiveILi3ELb1EEEvPK35AnimationPlayableEvaluationConstant
1621:__ZN7mecanim15InvertValueMaskILb0EEEvPNS_14ValueArrayMaskE
1622:__ZN27AnimationLayerMixerPlayable9MixValuesILb0EEEvP33AnimationPlayableEvaluationOutputP35AnimationPlayableEvaluationConstantP32AnimationPlayableEvaluationInputS2_f
1623:__ZL7JobSortPKN8Animator11AnimatorJobES2_
1624:__ZNSt3__26__sortIRPFbPKN8Animator11AnimatorJobES4_EPS4_EEvT0_S9_T_
1625:__ZN13dynamic_arrayIN8Animator11AnimatorJobELj0EE9push_backERKS1_
1626:__ZN15AllocatorTraitsIN8Animator11AnimatorJobELb0EE9ConstructIS1_EEvPS1_RKT_10MemLabelId
1627:__ZNSt3__27__sort4IRPFbPKN8Animator11AnimatorJobES4_EPS4_EEjT0_S9_S9_S9_T_
1628:__ZNSt3__218__insertion_sort_3IRPFbPKN8Animator11AnimatorJobES4_EPS4_EEvT0_S9_T_
1629:__ZNSt3__227__insertion_sort_incompleteIRPFbPKN8Animator11AnimatorJobES4_EPS4_EEbT0_S9_T_
1630:__ZN11UnityEngine9Animation23SetMotionXProperyValuesERKNS0_30AnimatorGenericBindingConstantERKN7mecanim9animation14AvatarConstantERKNS5_12AvatarOutputE15TransformAccessy
1631:__ZN8Animator22ApplyBuiltinRootMotionEv
1632:__ZN11UnityEngine9Animation37HasGenericRootTransformPropertyValuesERKNS0_30AnimatorGenericBindingConstantEb
1633:__ZN11UnityEngine9Animation37SetGenericRootTransformPropertyValuesERKNS0_30AnimatorGenericBindingConstantERKN7mecanim10ValueArrayER9Transformbb
1634:__Z35InverseTransformPositionAndRotationRK23TransformAccessReadOnlyRKN4math7_float3ERKNS2_7_float4E
1635:__ZNK26AnimatorControllerPlayable20GetAnimatorStateInfoEi14StateInfoIndexR17AnimatorStateInfo
1636:__ZNK27StateMachineBehaviourPlayer18FireStateBehaviourER17AnimatorStateInfoiN7mecanim12statemachine19StateMachineMessageE
1637:__ZNK26AnimatorControllerPlayable18ValidateLayerIndexEi
1638:__ZN13AnimationClip19FireAnimationEventsEP22AnimationClipEventInfoRN5Unity9ComponentE
1639:__Z9FireEventR14AnimationEventRN5Unity9ComponentEP14AnimationStateP17AnimatorStateInfoP16AnimatorClipInfo
1640:__Z20AnimationEventToMonoRK14AnimationEventR18MonoAnimationEvent
1641:__Z22AnimatorClipInfoToMonoRK16AnimatorClipInfoR20MonoAnimatorClipInfo
1642:__ZN8Animator21ProcessRootMotionStepERNS_11AnimatorJobE
1643:__ZNK13BoundPlayable20GetAnimationPlayableEv
1644:__ZN12_GLOBAL__N_120PreProcessRootMotionER35AnimationPlayableEvaluationConstantR17AnimationPlayable
1645:__ZN12_GLOBAL__N_122ProcessRootMotionBeginER35AnimationPlayableEvaluationConstantR32AnimationPlayableEvaluationInputR33AnimationPlayableEvaluationOutput
1646:__ZN12_GLOBAL__N_120ProcessRootMotionMixER33AnimationPlayableEvaluationOutputR35AnimationPlayableEvaluationConstantR32AnimationPlayableEvaluationInputS1_f
1647:__ZN12_GLOBAL__N_120ProcessRootMotionEndER35AnimationPlayableEvaluationConstantR32AnimationPlayableEvaluationInputR33AnimationPlayableEvaluationOutput
1648:__ZN7mecanim9animation16EvaluateAvatarDXEPKNS0_14AvatarConstantEPKNS0_11AvatarInputEPNS0_12AvatarMemoryEPNS0_15AvatarWorkspaceEPNS0_12AvatarOutputE
1649:__ZN8Animator11TargetMatchEv
1650:__ZN7mecanim9animation28MotionOutputGetDeltaPositionEPKNS0_12MotionOutputE
1651:__ZN7mecanim9animation28MotionOutputGetDeltaRotationEPKNS0_12MotionOutputE
1652:__ZN7mecanim9animation15EvaluateAvatarXEPKNS0_14AvatarConstantEPKNS0_11AvatarInputEPNS0_12AvatarOutputEPNS0_12AvatarMemoryEPNS0_15AvatarWorkspaceE
1653:__ZN7mecanim9animation29MotionOutputGetDeltaTransformEPKNS0_12MotionOutputE
1654:__ZNK26AnimatorControllerPlayable22IsInTransitionInternalEi
1655:__ZNK8Animator20IsInMatchTargetStateEv
1656:__ZN7mecanim5human29HumanGetGoalOrientationOffsetENS0_4GoalE
1657:__ZN7mecanim9animation29MotionOutputSetDeltaTransformEPNS0_12MotionOutputERKN4math4trsXE
1658:__ZNK26AnimatorControllerPlayable21GetStateMachineMemoryEi
1659:__ZN7mecanim9animation28MotionOutputSetDeltaPositionEPNS0_12MotionOutputERKN4math7_float3E
1660:__ZN27AnimationLayerMixerPlayable13MixRootMotionEP33AnimationPlayableEvaluationOutputP35AnimationPlayableEvaluationConstantP32AnimationPlayableEvaluationInputS1_fb
1661:__ZN27AnimationLayerMixerPlayable22MixRootTransformValuesEP33AnimationPlayableEvaluationOutputP35AnimationPlayableEvaluationConstantP32AnimationPlayableEvaluationInputS1_f
1662:__ZN27AnimationLayerMixerPlayable9MixValuesILb1EEEvP33AnimationPlayableEvaluationOutputP35AnimationPlayableEvaluationConstantP32AnimationPlayableEvaluationInputS2_f
1663:__ZN14AvatarPlayback9PlayFrameEfRPN7mecanim9animation12AvatarMemoryERPNS1_16ControllerMemoryE
1664:__ZN26AnimatorControllerPlayable18PrepareForPlaybackER20RuntimeBaseAllocator
1665:__ZN26AnimatorControllerPlayable15SetRecorderDataEPN7mecanim9animation16ControllerMemoryER20RuntimeBaseAllocator
1666:__ZN34AnimationStateMachineMixerPlayable16ArrangePlayablesEbb
1667:__ZN8Animator11ClearObjectEv
1668:__ZN8Animator24CollectAnimatedRenderersERKNS_15BindingsDataSetE
1669:__ZN8Animator13AvatarDataSet5ResetEv
1670:__ZN7mecanim9animation21DestroyAvatarConstantEPNS0_14AvatarConstantER20RuntimeBaseAllocator
1671:__ZN7mecanim9animation19DestroyAvatarOutputEPNS0_12AvatarOutputER20RuntimeBaseAllocator
1672:__ZN7mecanim9animation22DestroyAvatarWorkspaceEPNS0_15AvatarWorkspaceER20RuntimeBaseAllocator
1673:__ZN11UnityEngine9Animation28DestroyAvatarBindingConstantEPNS0_21AvatarBindingConstantER20RuntimeBaseAllocator
1674:__ZN8Animator11AnimatorJob11AddPlayableEP17AnimationPlayablef
1675:__ZN21AnimationHandleBinder31SyncSceneHandlesTransformAccessEv
1676:__ZNK6Avatar7IsHumanEv
1677:__ZN13dynamic_arrayI16WeightedPlayableLj0EE6insertEPS0_jRKS0_
1678:__ZN8Animator26AnimatorVisibilityCallbackEPvS0_i
1679:__ZN8Animator19SetVisibleRenderersEb
1680:__ZN8Animator8TransferI14SafeBinaryReadEEvRT_
1681:__ZN8Animator8TransferI24GenerateTypeTreeTransferEEvRT_
1682:__ZN8Animator8TransferI18StreamedBinaryReadEEvRT_
1683:__ZN8Animator8TransferI19StreamedBinaryWriteEEvRT_
1684:__ZN8Animator27InitializeVisibilityCullingEv
1685:__ZN8Animator34RecomputeContainedRenderersRecurseER9Transform
1686:__ZN21AnimationHandleBinder17MainThreadCleanupEv
1687:__ZL39InvalidateSceneHandleTransformsCallbackPvS_i
1688:__ZN25RuntimeAnimatorController23DestroyCustomControllerEPN7mecanim9animation18ControllerConstantER20RuntimeBaseAllocator
1689:__ZN21AnimationHandleBinderD2Ev
1690:__ZN7mecanim9animation24DestroyBlendTreeConstantEPNS0_17BlendTreeConstantER20RuntimeBaseAllocator
1691:__ZN7mecanim12statemachine20DestroyStateConstantEPNS0_13StateConstantER20RuntimeBaseAllocator
1692:__ZN7mecanim9animation25DestroyControllerConstantEPNS0_18ControllerConstantER20RuntimeBaseAllocator
1693:__ZN7mecanim9animation28DestroyBlendTreeNodeConstantEPNS0_21BlendTreeNodeConstantER20RuntimeBaseAllocator
1694:__ZN14AvatarPlaybackD2Ev
1695:__ZN14AvatarPlaybackD0Ev
1696:__ZN14SafeBinaryRead21TransferSTLStyleArrayI13dynamic_arrayIjLj0EEEEvRT_17TransferMetaFlags
1697:__ZN14SafeBinaryRead8TransferIjEEvRT_PKc17TransferMetaFlags
1698:__ZN18StreamedBinaryRead21TransferSTLStyleArrayI13dynamic_arrayIjLj0EEEEvRT_17TransferMetaFlags
1699:__ZN26AnimatorOverrideControllerD2Ev
1700:__ZN26AnimatorOverrideControllerD0Ev
1701:__ZN26AnimatorOverrideController17MainThreadCleanupEv
1702:__ZN26AnimatorOverrideController13AwakeFromLoadE17AwakeFromLoadMode
1703:__ZNK26AnimatorOverrideController22GetTypeVirtualInternalEv
1704:__ZN26AnimatorOverrideController23VirtualRedirectTransferER19StreamedBinaryWrite
1705:__ZN26AnimatorOverrideController23VirtualRedirectTransferER18StreamedBinaryRead
1706:__ZN26AnimatorOverrideController23VirtualRedirectTransferER17RemapPPtrTransfer
1707:__ZN26AnimatorOverrideController23VirtualRedirectTransferER24GenerateTypeTreeTransfer
1708:__ZN26AnimatorOverrideController23VirtualRedirectTransferER14SafeBinaryRead
1709:__ZN26AnimatorOverrideController8GetAssetEb
1710:__ZN26AnimatorOverrideController23GetAnimationSetBindingsEv
1711:__ZNK26AnimatorOverrideController17GetAnimationClipsEv
1712:__ZNK26AnimatorOverrideController12StringFromIDEj
1713:__ZNK26AnimatorOverrideController13GetBehavioursEv
1714:__ZNK26AnimatorOverrideController41GetStateMachineBehaviourVectorDescriptionEv
1715:__ZNK26AnimatorOverrideController28HasMultiThreadedStateMachineEv
1716:__ZNK26AnimatorOverrideController30GetAnimationClipOverrideVectorEv
1717:__ZNK26AnimatorOverrideController27GetAnimationClipsToRegisterEv
1718:__ZN26AnimatorOverrideController10BuildAssetEv
1719:__ZN26AnimatorOverrideController10ClearAssetEv
1720:__ZN11UnityEngine9Animation26CreateAnimationSetBindingsERK13dynamic_arrayI4PPtrI13AnimationClipELj0EER20RuntimeBaseAllocator
1721:__ZNK26AnimatorOverrideController16GetOverrideClipsEv
1722:__ZNK26AnimatorOverrideController16GetOriginalClipsEv
1723:__ZNSt3__26__sortIRNS_6__lessI4PPtrI13AnimationClipES4_EEPS4_EEvT0_S8_T_
1724:__ZNSt3__27__sort5IRNS_6__lessI4PPtrI13AnimationClipES4_EEPS4_EEjT0_S8_S8_S8_S8_T_
1725:__ZNSt3__227__insertion_sort_incompleteIRNS_6__lessI4PPtrI13AnimationClipES4_EEPS4_EEbT0_S8_T_
1726:__ZN26AnimatorOverrideController8TransferI14SafeBinaryReadEEvRT_
1727:__ZN14SafeBinaryRead21TransferSTLStyleArrayI13dynamic_arrayI21AnimationClipOverrideLj0EEEEvRT_17TransferMetaFlags
1728:__ZN21AnimationClipOverride8TransferI14SafeBinaryReadEEvRT_
1729:__ZN26AnimatorOverrideController8TransferI24GenerateTypeTreeTransferEEvRT_
1730:__ZN21AnimationClipOverride8TransferI24GenerateTypeTreeTransferEEvRT_
1731:__ZN18StreamedBinaryRead21TransferSTLStyleArrayI13dynamic_arrayI21AnimationClipOverrideLj0EEEEvRT_17TransferMetaFlags
1732:__ZN26AnimatorOverrideController8TransferI19StreamedBinaryWriteEEvRT_
1733:__ZN8Vector2f8TransferI14SafeBinaryReadEEvRT_
1734:__ZNSt3__26vectorIiNS_9allocatorIiEEE6insertENS_11__wrap_iterIPKiEERS5_
1735:__Z18RegisterUnityClassI8AnimatorEvPKc
1736:__Z18RegisterUnityClassI26AnimatorOverrideControllerEvPKc
1737:__Z18RegisterUnityClassI25RuntimeAnimatorControllerEvPKc
1738:__ZN13ProduceHelperI25RuntimeAnimatorControllerLb1EE7ProduceE10MemLabelId18ObjectCreationMode
1739:__ZN25RuntimeAnimatorController12CleanupClassEv
1740:__ZNK17IAnimationBinding38SerializedPropertyPathToCurveAttributeER6ObjectPKc
1741:__ZNK17IAnimationBinding30CurveAttributeToSerializedPathERKN11UnityEngine9Animation10BoundCurveE
1742:__ZN13ProduceHelperI26AnimatorOverrideControllerLb0EE7ProduceE10MemLabelId18ObjectCreationMode
1743:__ZN26AnimatorOverrideController15InitializeClassEv
1744:__ZZN26AnimatorOverrideController15InitializeClassEvEN42FunctorImpl_87kDidModifyAnimatorController4CallEPviR11MessageData
1745:__ZN25RuntimeAnimatorControllerC2E10MemLabelId18ObjectCreationMode
1746:__ZN13ProduceHelperI8AnimatorLb0EE7ProduceE10MemLabelId18ObjectCreationMode
1747:__ZN8Animator15InitializeClassEv
1748:__ZN8Animator12CleanupClassEv
1749:__ZN10HumanTrait12CleanupClassEv
1750:__ZN7mecanim9animation23CleanupMuscleClipTablesEv
1751:__ZN8Animator20RebindOnDomainReloadEv
1752:__ZZN8Animator15InitializeClassEvEN43FunctorImpl_449kDidModifyAnimatorController4CallEPviR11MessageData
1753:__ZZN8Animator15InitializeClassEvEN37FunctorImpl_450kDidModifyOverrideClip4CallEPviR11MessageData
1754:__ZZN8Animator15InitializeClassEvEN31FunctorImpl_452kDidModifyMotion4CallEPviR11MessageData
1755:__ZZN8Animator15InitializeClassEvEN31FunctorImpl_454kDidModifyAvatar4CallEPviR11MessageData
1756:__ZZN8Animator15InitializeClassEvEN31FunctorImpl_459kDidAddComponent4CallEPviR11MessageData
1757:__ZN7mecanim9animation26InitializeMuscleClipTablesEv
1758:__ZN10HumanTrait15InitializeClassEv
1759:__Z27StateChangeValidateCallback18ScriptingMethodPtr17ScriptingClassPtrP6Object
1760:__Z28StateMachineValidateCallback18ScriptingMethodPtr17ScriptingClassPtrP6Object
1761:__ZN10HumanTrait21InitializeMuscleNamesEv
1762:__ZN10HumanTrait19InitializeBoneNamesEv
1763:__ZN10HumanTrait21InitializeMonoIndicesEv
1764:__ZN7mecanim5human21ComputeHierarchicMassEiPf
1765:__ZN13dynamic_arrayIN4core12basic_stringIcNS0_20StringStorageDefaultIcEEEELj0EE9push_backERKS4_
1766:__ZN10HumanTrait13GetFingerNameEib
1767:__ZN10HumanTrait19GetFingerMuscleNameEib
1768:__ZN13dynamic_arrayIN4core12basic_stringIcNS0_20StringStorageDefaultIcEEEELj0EE18resize_initializedEj12ResizePolicy
1769:__ZN7mecanim9animationL25MuscleIndexIdSortFunctionENS0_13MuscleIndexIdES1_
1770:__ZNSt3__26__sortIRPFbN7mecanim9animation13MuscleIndexIdES3_EPS3_EEvT0_S8_T_
1771:__ZNSt3__27__sort3IRPFbN7mecanim9animation13MuscleIndexIdES3_EPS3_EEjT0_S8_S8_T_
1772:__ZNSt3__27__sort5IRPFbN7mecanim9animation13MuscleIndexIdES3_EPS3_EEjT0_S8_S8_S8_S8_T_
1773:__ZNSt3__227__insertion_sort_incompleteIRPFbN7mecanim9animation13MuscleIndexIdES3_EPS3_EEbT0_S8_T_
1774:__ZN26AnimatorControllerPlayable21OverrideClipPlayablesEv
1775:__ZN17AnimationPlayable28UpdateInternalStateRecursiveILi2ELb0EEEvPK35AnimationPlayableEvaluationConstant
1776:__ZN8Animator23ClearAnimatorControllerEv
1777:__ZN8AnimatorC2E10MemLabelId18ObjectCreationMode
1778:__ZN14AvatarPlaybackC2E10MemLabelId
1779:__ZN21AnimationHandleBinderC2Ev
1780:__Z20SetGlobalMatrixLossy15TransformAccessRKN4math7_float3ERKNS0_7_float4ERKNS0_8float3x3E
1781:__Z24CalculateGlobalRSInverse23TransformAccessReadOnly
1782:__ZNSt3__26vectorIN4core12basic_stringIcNS1_20StringStorageDefaultIcEEEE13stl_allocatorIS5_L18MemLabelIdentifier1ELi16EEE21__push_back_slow_pathIS5_EEvOT_
1783:__ZN8Animator22ScriptingStringToCRC32ERK11ICallString
1784:__ZN8Animator12ResetTriggerEi
1785:__ZN8Animator10SetTriggerEi
1786:__ZN8Animator23ValidateParameterStringE17GetSetValueResultRKN4core12basic_stringIcNS1_20StringStorageDefaultIcEEEE
1787:__Z24RegisterModule_Animationv
1788:__ZL26InitializeModule_Animationv
1789:__ZL23CleanupModule_Animationv
1790:__Z32SetupMonoScriptCacheForAnimationP15MonoScriptCache
1791:__ZN11Marshalling39CreateNullExceptionForUnityEngineObjectE18ScriptingObjectPtr
1792:__ZN11Marshalling16StringMarshaller16EnsureMarshalledEv
1793:__ZN11Marshalling16StringMarshallerD2Ev
1794:__Z41Animator_Get_Custom_PropHasBoundPlayablesP12Il2CppObject
1795:__Z32Animator_CUSTOM_SetTriggerStringP12Il2CppObjectP12Il2CppString
1796:__Z34Animator_CUSTOM_ResetTriggerStringP12Il2CppObjectP12Il2CppString
1797:__GLOBAL__sub_I_ARScriptingClasses_cpp
1798:__ZL60__ManagedRegistrationHelperFunction_CoordinateFramePairProxyPv
1799:__ZL50__ManagedRegistrationHelperFunction_GridIndexProxyPv
1800:__ZL65__ManagedRegistrationHelperFunction_MeshReconstructionConfigProxyPv
1801:__ZL65__ManagedRegistrationHelperFunction_MeshReconstructionServerProxyPv
1802:__ZL49__ManagedRegistrationHelperFunction_PoseDataProxyPv
1803:__ZL59__ManagedRegistrationHelperFunction_TangoInputTrackingProxyPv
1804:__ZN9Scripting11UnityEngine2XR5Tango23TangoInputTrackingProxy9InitProxyEv
1805:__ZN9Scripting11UnityEngine2XR5Tango23TangoInputTrackingProxy12CleanupProxyEv
1806:__ZN9Scripting11UnityEngine2XR5Tango13PoseDataProxy9InitProxyEv
1807:__ZN9Scripting11UnityEngine2XR5Tango13PoseDataProxy12CleanupProxyEv
1808:__ZN9Scripting11UnityEngine2XR5Tango29MeshReconstructionServerProxy9InitProxyEv
1809:__ZN9Scripting11UnityEngine2XR5Tango29MeshReconstructionServerProxy12CleanupProxyEv
1810:__ZN9Scripting11UnityEngine2XR5Tango29MeshReconstructionConfigProxy9InitProxyEv
1811:__ZN9Scripting11UnityEngine2XR5Tango29MeshReconstructionConfigProxy12CleanupProxyEv
1812:__ZN9Scripting11UnityEngine2XR5Tango14GridIndexProxy9InitProxyEv
1813:__ZN9Scripting11UnityEngine2XR5Tango14GridIndexProxy12CleanupProxyEv
1814:__ZN9Scripting11UnityEngine2XR5Tango24CoordinateFramePairProxy9InitProxyEv
1815:__ZN9Scripting11UnityEngine2XR5Tango24CoordinateFramePairProxy12CleanupProxyEv
1816:__GLOBAL__sub_I_AssetBundleScriptingClasses_cpp
1817:__GLOBAL__sub_I_Modules_AssetBundle_Public_1_cpp
1818:__ZN13RuntimeStaticI18AssetBundleManagerLb1EE16StaticInitializeEPv
1819:__ZN13RuntimeStaticI18AssetBundleManagerLb1EE13StaticDestroyEPv
1820:__ZN18AssetBundleManagerD2Ev
1821:__ZL65__ManagedRegistrationHelperFunction_AssetBundleCreateRequestProxyPv
1822:__ZL59__ManagedRegistrationHelperFunction_AssetBundleRequestProxyPv
1823:__ZN9Scripting11UnityEngine23AssetBundleRequestProxy9InitProxyEv
1824:__ZN9Scripting11UnityEngine23AssetBundleRequestProxy12CleanupProxyEv
1825:__ZN9Scripting11UnityEngine29AssetBundleCreateRequestProxy9InitProxyEv
1826:__ZN9Scripting11UnityEngine29AssetBundleCreateRequestProxy12CleanupProxyEv
1827:__ZN14SafeBinaryRead21TransferSTLStyleArrayINSt3__26vectorI14ConstantStringNS1_9allocatorIS3_EEEEEEvRT_17TransferMetaFlags
1828:__Z14resize_trimmedINSt3__26vectorI14ConstantStringNS0_9allocatorIS2_EEEEEvRT_j
1829:__ZNSt3__26vectorI14ConstantStringNS_9allocatorIS1_EEE6assignINS_11__wrap_iterIPS1_EEEENS_9enable_ifIXaasr21__is_forward_iteratorIT_EE5valuesr16is_constructibleIS1_NS_15iterator_traitsISA_E9referenceEEE5valueEvE4typeESA_SA_
1830:__ZNSt3__26vectorI14ConstantStringNS_9allocatorIS1_EEE8__appendEj
1831:__ZN15SerializeTraitsINSt3__24pairIN4core12basic_stringIcNS2_20StringStorageDefaultIcEEEE4PPtrI6ObjectEEEE8TransferI14SafeBinaryReadEEvRSA_RT_
1832:__ZN18StreamedBinaryRead21TransferSTLStyleArrayINSt3__26vectorI14ConstantStringNS1_9allocatorIS3_EEEEEEvRT_17TransferMetaFlags
1833:__ZN19StreamedBinaryWrite21TransferSTLStyleArrayINSt3__26vectorI14ConstantStringNS1_9allocatorIS3_EEEEEEvRT_17TransferMetaFlags
1834:__ZN23PreloadManagerOperation11GetPriorityEv
1835:__ZN23PreloadManagerOperation14SetFinalTimingEffff
1836:__ZN23PreloadManagerOperation19IntegrateTimeSlicedEi
1837:__ZN23PreloadManagerOperation12GetDebugNameEv
1838:__ZNSt3__26__treeIiNS_4lessIiEENS_9allocatorIiEEE7destroyEPNS_11__tree_nodeIiPvEE
1839:__ZN23PreloadManagerOperation11SetPriorityEi
1840:__ZN27TimeSliceAwakeFromLoadQueueD2Ev
1841:__ZNSt3__26__sortIRNS_6__lessIN4core12basic_stringIcNS2_20StringStorageDefaultIcEEEES6_EEPS6_EEvT0_SA_T_
1842:__ZNSt3__27__sort3IRNS_6__lessIN4core12basic_stringIcNS2_20StringStorageDefaultIcEEEES6_EEPS6_EEjT0_SA_SA_T_
1843:__ZNSt3__27__sort4IRNS_6__lessIN4core12basic_stringIcNS2_20StringStorageDefaultIcEEEES6_EEPS6_EEjT0_SA_SA_SA_T_
1844:__ZNSt3__27__sort5IRNS_6__lessIN4core12basic_stringIcNS2_20StringStorageDefaultIcEEEES6_EEPS6_EEjT0_SA_SA_SA_SA_T_
1845:__ZNSt3__218__insertion_sort_3IRNS_6__lessIN4core12basic_stringIcNS2_20StringStorageDefaultIcEEEES6_EEPS6_EEvT0_SA_T_
1846:__ZNSt3__227__insertion_sort_incompleteIRNS_6__lessIN4core12basic_stringIcNS2_20StringStorageDefaultIcEEEES6_EEPS6_EEbT0_SA_T_
1847:__Z7ToLowerIN4core12basic_stringIcNS0_20StringStorageDefaultIcEEEEET_RKS5_
1848:__ZN4core8hash_mapIiiNS_4hashIiEENSt3__28equal_toIiEEE6insertERKiS8_
1849:__GLOBAL__sub_I_AudioScriptingClasses_cpp
1850:__GLOBAL__sub_I_Modules_Audio_Public_0_cpp
1851:__GLOBAL__sub_I_Modules_Audio_Public_1_cpp
1852:__GLOBAL__sub_I_Modules_Audio_Public_3_cpp
1853:__GLOBAL__sub_I_Runtime_Video_0_cpp
1854:__ZN13RuntimeStaticINSt3__26vectorIP16BaseVideoTexture13stl_allocatorIS3_L18MemLabelIdentifier20ELi16EEEELb0EE16StaticInitializeEPv
1855:__ZN13RuntimeStaticINSt3__26vectorIP16BaseVideoTexture13stl_allocatorIS3_L18MemLabelIdentifier20ELi16EEEELb0EE13StaticDestroyEPv
1856:__ZN13RuntimeStaticINSt3__26vectorI12WebCamDeviceNS0_9allocatorIS2_EEEELb0EE13StaticDestroyEPv
1857:__ZL37StaticInitializeAudioCustomFilterRootPv
1858:__ZL34StaticDestroyAudioCustomFilterRootPv
1859:__ZN13RuntimeStaticINSt3__23mapIjP19AudioSampleProviderNS0_4lessIjEE13stl_allocatorINS0_4pairIKjS3_EEL18MemLabelIdentifier27ELi16EEEELb0EE13StaticDestroyEPv
1860:__ZL37StaticInitializeAudioSourceFilterRootPv
1861:__ZL34StaticDestroyAudioSourceFilterRootPv
1862:__ZNSt3__26__treeINS_12__value_typeIjP19AudioSampleProviderEENS_19__map_value_compareIjS4_NS_4lessIjEELb1EEE13stl_allocatorIS4_L18MemLabelIdentifier27ELi16EEE7destroyEPNS_11__tree_nodeIS4_PvEE
1863:__ZN20DiagnosticSwitchEnumI23FMODDebugDisplayOptionsE18SetValueFromStringEPKc
1864:__ZN20DiagnosticSwitchEnumI23FMODDebugDisplayOptionsE20ApplyPersistentValueEv
1865:__ZN20DiagnosticSwitchEnumI23FMODDebugDisplayOptionsE20CollectScriptingInfoERN20DiagnosticSwitchBase13ScriptingInfoE
1866:__ZN20DiagnosticSwitchEnumI23FMODDebugDisplayOptionsE24UpdateFromScriptingValueE18ScriptingObjectPtrb
1867:__ZN10EnumTraits8ToStringI23FMODDebugDisplayOptionsEEN4core12basic_stringIcNS2_20StringStorageDefaultIcEEEET_
1868:__ZN4core20StringStorageDefaultIcE7replaceEjjPKcj
1869:__ZN10EnumTraits13TryFromStringI23FMODDebugDisplayOptionsEEbPKcbRT_
1870:__ZN20DiagnosticSwitchEnumI14FMODDebugTypesE18SetValueFromStringEPKc
1871:__ZN20DiagnosticSwitchEnumI14FMODDebugTypesE20ApplyPersistentValueEv
1872:__ZN20DiagnosticSwitchEnumI14FMODDebugTypesE20CollectScriptingInfoERN20DiagnosticSwitchBase13ScriptingInfoE
1873:__ZN20DiagnosticSwitchEnumI14FMODDebugTypesE24UpdateFromScriptingValueE18ScriptingObjectPtrb
1874:__ZN10EnumTraits8ToStringI14FMODDebugTypesEEN4core12basic_stringIcNS2_20StringStorageDefaultIcEEEET_
1875:__ZN10EnumTraits13TryFromStringI14FMODDebugTypesEEbPKcbRT_
1876:__ZN13RuntimeStaticINSt3__23setIP26AudioSampleProviderChannelNS0_4lessIS3_EE13stl_allocatorIS3_L18MemLabelIdentifier27ELi16EEEELb0EE13StaticDestroyEPv
1877:__ZNSt3__26__treeIP26AudioSampleProviderChannelNS_4lessIS2_EE13stl_allocatorIS2_L18MemLabelIdentifier27ELi16EEE7destroyEPNS_11__tree_nodeIS2_PvEE
1878:__ZL58__ManagedRegistrationHelperFunction_AudioClipPlayableProxyPv
1879:__ZL59__ManagedRegistrationHelperFunction_AudioMixerPlayableProxyPv
1880:__ZL60__ManagedRegistrationHelperFunction_AudioPlayableOutputProxyPv
1881:__ZL50__ManagedRegistrationHelperFunction_AudioClipProxyPv
1882:__ZL54__ManagedRegistrationHelperFunction_AudioSettingsProxyPv
1883:__ZL60__ManagedRegistrationHelperFunction_AudioSampleProviderProxyPv
1884:__ZL53__ManagedRegistrationHelperFunction_WebCamDeviceProxyPv
1885:__ZN9Scripting11UnityEngine17WebCamDeviceProxy9InitProxyEv
1886:__ZN9Scripting11UnityEngine17WebCamDeviceProxy12CleanupProxyEv
1887:__ZN9Scripting11UnityEngine12Experimental5Audio24AudioSampleProviderProxy9InitProxyEv
1888:__ZN9Scripting11UnityEngine12Experimental5Audio24AudioSampleProviderProxy12CleanupProxyEv
1889:__ZN9Scripting11UnityEngine18AudioSettingsProxy9InitProxyEv
1890:__ZN9Scripting11UnityEngine18AudioSettingsProxy12CleanupProxyEv
1891:__ZN9Scripting11UnityEngine14AudioClipProxy9InitProxyEv
1892:__ZN9Scripting11UnityEngine14AudioClipProxy12CleanupProxyEv
1893:__ZN9Scripting11UnityEngine5Audio24AudioPlayableOutputProxy9InitProxyEv
1894:__ZN9Scripting11UnityEngine5Audio24AudioPlayableOutputProxy12CleanupProxyEv
1895:__ZN9Scripting11UnityEngine5Audio23AudioMixerPlayableProxy9InitProxyEv
1896:__ZN9Scripting11UnityEngine5Audio23AudioMixerPlayableProxy12CleanupProxyEv
1897:__ZN9Scripting11UnityEngine5Audio22AudioClipPlayableProxy9InitProxyEv
1898:__ZN9Scripting11UnityEngine5Audio22AudioClipPlayableProxy12CleanupProxyEv
1899:__ZN4FMOD3DSP9setBypassEb
1900:__ZN4FMOD6System15createDSPByTypeE13FMOD_DSP_TYPEPPNS_3DSPE
1901:__ZN10ObjectPoolIN4FMOD3DSPENS0_4DSPIEE7GetFreeEi
1902:__ZN4FMOD3DSP12setParameterEif
1903:__ZN4FMOD3DSP7releaseEv
1904:__ZN15SerializeTraitsI9UnityGUIDE8TransferI14SafeBinaryReadEEvRS0_RT_
1905:__ZN9UnityGUID8TransferI24GenerateTypeTreeTransferEEvRT_
1906:__ZN9UnityGUID8TransferI18StreamedBinaryReadEEvRT_
1907:__ZN9UnityGUID8TransferI19StreamedBinaryWriteEEvRT_
1908:__ZN4FMOD6Reverb9setActiveEb
1909:__Z15GetAudioManagerv
1910:__ZN15AudioReverbZone4InitEv
1911:__ZN4FMOD6System12createReverbEPPNS_6ReverbE
1912:__ZL16FMOD_ErrorString11FMOD_RESULT
1913:__ZN12AudioManager21FixMasterGroupRoutingEv
1914:__ZN15AudioReverbZone13SetFMODValuesEv
1915:__ZN4FMOD6System6updateEv
1916:__ZN4FMOD6Reverb15set3DAttributesEPK11FMOD_VECTORff
1917:__ZN4FMOD6Reverb13setPropertiesEPK22FMOD_REVERB_PROPERTIES
1918:__ZN4FMOD12ChannelGroup10getDSPHeadEPPNS_3DSPE
1919:__ZN4FMOD3DSP9getOutputEiPPS0_PPNS_13DSPConnectionE
1920:__ZN4FMOD3DSP8getInputEiPPS0_PPNS_13DSPConnectionE
1921:__ZN4FMOD3DSP12getNumInputsEPi
1922:__ZN4FMOD3DSP7getInfoEPcPjPiS3_S3_
1923:__ZN4FMOD3DSP13disconnectAllEbb
1924:__ZN4FMOD3DSP8addInputEPS0_PPNS_13DSPConnectionE
1925:__ZN4FMOD6Reverb7releaseEv
1926:__ZN17AnimationCurveTplIfE6AssignEPK11KeyframeTplIfES4_
1927:__ZN12AudioManagerD2Ev
1928:__ZN12AudioManagerD0Ev
1929:__ZN12AudioManager17MainThreadCleanupEv
1930:__ZN12AudioManager13AwakeFromLoadE17AwakeFromLoadMode
1931:__ZN12AudioManager16CheckConsistencyEv
1932:__ZN12AudioManager5ResetEv
1933:__ZNK12AudioManager22GetTypeVirtualInternalEv
1934:__ZN12AudioManager23VirtualRedirectTransferER19StreamedBinaryWrite
1935:__ZN12AudioManager23VirtualRedirectTransferER18StreamedBinaryRead
1936:__ZN12AudioManager23VirtualRedirectTransferER24GenerateTypeTreeTransfer
1937:__ZN12AudioManager23VirtualRedirectTransferER14SafeBinaryRead
1938:__ZN12AudioManager8TransferI14SafeBinaryReadEEvRT_
1939:__ZN12AudioManager8TransferI24GenerateTypeTreeTransferEEvRT_
1940:__ZN12AudioManager8TransferI18StreamedBinaryReadEEvRT_
1941:__ZN12AudioManager8TransferI19StreamedBinaryWriteEEvRT_
1942:__ZN12AudioManager8InitFMODE15FMOD_OUTPUTTYPE
1943:__ZN12AudioManager29ShutdownReinitializeAndReloadE15FMOD_OUTPUTTYPEPS0_
1944:__ZN4FMOD12ChannelGroup9setVolumeEf
1945:__ZN4FMOD6System13set3DSettingsEfff
1946:__ZN4FMOD6System9getOutputEP15FMOD_OUTPUTTYPE
1947:__ZN12AudioManager9CloseFMODEv
1948:__ZN9AudioClip6ReloadEv
1949:__ZN13AudioListener12ApplyFiltersEv
1950:__ZN12AudioManager39HandlePendingAudioConfigurationCallbackEv
1951:__Z24GetAudioScriptingClassesv
1952:__ZL31InitializeAudioScriptingClassesv
1953:__ZL28CleanupAudioScriptingClassesv
1954:__ZN11AudioFilter6GetDSPEv
1955:__ZN4FMOD3DSP6removeEv
1956:__Z15_CheckFMODError11FMOD_RESULTPKciS1_
1957:__ZN4FMOD12ChannelGroup6addDSPEPNS_3DSPEPPNS_13DSPConnectionE
1958:__ZN4FMOD3DSP9getBypassEPb
1959:__ZN11AudioSource7CleanupEv
1960:__ZN13AudioListener7CleanupEv
1961:__ZN15AudioReverbZone7CleanupEv
1962:__ZN26AudioSampleProviderChannel7CleanupEv
1963:__ZN10AudioMixer33EnsureMixerGroupSinksAreDestroyedEv
1964:__ZN5audio5mixer23DestroyAudioMixerMemoryEPNS0_16AudioMixerMemoryERKNS0_18AudioMixerConstantEPN4FMOD6SystemER20RuntimeBaseAllocator
1965:__ZN4FMOD12ChannelGroup7releaseEv
1966:__ZN9AudioClip7CleanupEv
1967:__ZN4FMOD6System5closeEv
1968:__ZN12SoundManagerD2Ev
1969:__ZN12SoundManager20OnExitPlayModeStaticEv
1970:__ZN12SoundManager26OnBeforeDomainUnloadStaticEv
1971:__ZN12SoundManager6UpdateEv
1972:__ZN11SoundHandle8InstanceD2Ev
1973:__ZN20SoundChannelInstance4StopEv
1974:__ZN4FMOD5Sound7releaseEv
1975:__ZN4FMOD6SoundI7releaseEv
1976:__ZN4FMOD8ChannelI11EndCallbackEv
1977:__ZN4FMOD7Channel4stopEv
1978:__ZN4FMOD7Channel11setPositionEjj
1979:__ZN11SoundHandle8Instance15UpdateLoadStateEv
1980:__ZN4FMOD6System9playSoundE17FMOD_CHANNELINDEXPNS_5SoundEbPPNS_7ChannelE
1981:__ZN20SoundChannelInstance14SetFMODChannelEPN4FMOD7ChannelE
1982:__ZN20SoundChannelInstance15ParameterBuffer5ApplyEPN4FMOD7ChannelE
1983:__ZN20SoundChannelInstance12UpdateVolumeEv
1984:__ZN20SoundChannelInstance11UpdatePitchEv
1985:__ZN20SoundChannelInstance16UpdatePauseStateEv
1986:__ZN4FMOD7Channel9setPausedEb
1987:__ZN4FMOD7Channel12setFrequencyEf
1988:__ZN4FMOD7Channel9setVolumeEf
1989:__ZN4FMOD8ChannelI9setVolumeEf
1990:__ZN4FMOD7Channel7setMuteEb
1991:__ZN4FMOD7Channel11setCallbackEPF11FMOD_RESULTP12FMOD_CHANNEL25FMOD_CHANNEL_CALLBACKTYPEPvS5_E
1992:__ZN4FMOD7Channel7setModeEj
1993:__ZN4FMOD7Channel15setChannelGroupEPNS_12ChannelGroupE
1994:__ZN4FMOD7Channel11setPriorityEi
1995:__ZN4FMOD7Channel19setReverbPropertiesEPK29FMOD_REVERB_CHANNELPROPERTIES
1996:__ZN4FMOD7Channel8setDelayE14FMOD_DELAYTYPEjj
1997:__ZN4FMOD7Channel6setPanEf
1998:__ZN4FMOD7Channel15set3DAttributesEPK11FMOD_VECTORS3_
1999:__ZN4FMOD7Channel20set3DConeOrientationEP11FMOD_VECTOR
2000:__ZN4FMOD7Channel17set3DConeSettingsEfff
2001:__ZN4FMOD7Channel19set3DMinMaxDistanceEff
2002:__ZN4FMOD7Channel13set3DPanLevelEf
2003:__ZN4FMOD7Channel11set3DSpreadEf
2004:__ZN4FMOD8ChannelI15set3DAttributesEPK11FMOD_VECTORS3_
2005:__ZN4FMOD8ChannelI18UpdateDopplerPitchEv
2006:__ZN4FMOD8ChannelI8setDelayE14FMOD_DELAYTYPEjj
2007:__ZN4FMOD7Channel6addDSPEPNS_3DSPEPPNS_13DSPConnectionE
2008:__ZN4FMOD7Channel11setUserDataEPv
2009:__ZN20SoundChannelInstance19FMODChannelCallbackEP12FMOD_CHANNEL25FMOD_CHANNEL_CALLBACKTYPEPvS3_
2010:__ZN4FMOD7Channel12getFrequencyEPf
2011:__ZN4FMOD7Channel11getUserDataEPPv
2012:__ZN4FMOD7SystemI9playSoundE17FMOD_CHANNELINDEXPNS_5SoundEbPPNS_7ChannelE
2013:__ZN10ObjectPoolIN4FMOD7ChannelENS0_8ChannelIEE7GetFreeEi
2014:__ZN4FMOD22FakeModChannelCallbackEPv
2015:__ZN4FMOD5Sound12getOpenStateEP14FMOD_OPENSTATEPjPbS4_
2016:__ZN4FMOD5Sound15getNumSubSoundsEPi
2017:__ZN4FMOD5Sound11getSubSoundEiPPS0_
2018:__ZN4FMOD5Sound11setUserDataEPv
2019:__ZN4FMOD8ChannelI11setPositionEjj
2020:__ZN10SampleClip15UnloadAudioDataEv
2021:__Z15GetSoundManagerv
2022:__ZN12SoundManager10UnloadClipEP10SampleClip
2023:__ZN12SoundManager20RegisterModifiedClipEP10SampleClip
2024:__ZN11SoundHandle8Instance7DisposeEv
2025:__ZN11SoundHandleD2Ev
2026:__ZN11SoundHandle7ReleaseEv
2027:__ZN11SoundHandleaSERKS_
2028:__ZN11AudioFilter7CleanupEv
2029:__ZN17AudioCustomFilter7CleanupEv
2030:__ZN11AudioSource4StopEb
2031:__ZN4FMOD3DSP11getUserDataEPPv
2032:__ZN11AudioSource16CleanAudioSourceEb
2033:__ZNK11AudioSource19GetFilterComponentsERNSt3__26vectorIPN4FMOD3DSPENS0_9allocatorIS4_EEEEb
2034:__ZNSt3__26vectorIPN4FMOD3DSPENS_9allocatorIS3_EEE21__push_back_slow_pathIRKS3_EEvOT_
2035:__ZN11AudioSource26MuteActiveProviderChannelsEv
2036:__ZN20SoundChannelInstance7setMuteEb
2037:_FMOD_Memory_Initialize
2038:_FMOD_System_Create
2039:__ZNK12AudioManager18ValidateFMODResultE11FMOD_RESULTiPKcS2_
2040:__Z14FMOD_FILE_OpenPKciPjPPvS3_
2041:__Z15FMOD_FILE_ClosePvS_
2042:__Z14FMOD_FILE_ReadPvS_jPjS_
2043:__Z14FMOD_FILE_SeekPvjS_
2044:__ZN4FMOD6System13setFileSystemEPF11FMOD_RESULTPKciPjPPvS6_EPFS1_S5_S5_EPFS1_S5_S5_jS4_S5_EPFS1_S5_jS5_EPFS1_P18FMOD_ASYNCREADINFOS5_ESA_i
2045:__ZN4FMOD6System10getVersionEPj
2046:__ZN4FMOD6System19setStreamBufferSizeEjj
2047:__ZN12AudioManager14systemCallbackEP11FMOD_SYSTEM24FMOD_SYSTEM_CALLBACKTYPEPvS3_
2048:__ZN4FMOD6System11setCallbackEPF11FMOD_RESULTP11FMOD_SYSTEM24FMOD_SYSTEM_CALLBACKTYPEPvS5_E
2049:__ZN11AudioSource15rolloffCallbackEP12FMOD_CHANNELf
2050:__ZN4FMOD6System20set3DRolloffCallbackEPFfP12FMOD_CHANNELfE
2051:__ZN12AudioManager10InitNormalEb15FMOD_OUTPUTTYPE
2052:__ZN4FMOD6System7releaseEv
2053:__ZN4FMOD6System21getMasterChannelGroupEPPNS_12ChannelGroupE
2054:__ZN4FMOD6System17getSoftwareFormatEPiP17FMOD_SOUND_FORMATS1_S1_P18FMOD_DSP_RESAMPLERS1_
2055:__ZN4FMOD6System16getDSPBufferSizeEPjPi
2056:__ZN4FMOD6System11getDSPClockEPjS1_
2057:__Z29AudioMasterDSPProcessCallbackP21UnityAudioEffectStatePfS1_jii
2058:__ZN29AudioEffectInternalDefinition9CreateDSPEPN4FMOD6SystemEPvPfP23UnityAudioAmbisonicDataPP25UnityAudioSpatializerData
2059:__ZN4FMOD6System18createChannelGroupEPKcPPNS_12ChannelGroupE
2060:__ZN4FMOD12ChannelGroup8addGroupEPS0_
2061:__ZN29AudioEffectInternalDefinitionD2Ev
2062:__ZN12SoundManagerC2Ev
2063:__ZN10ObjectPoolIN4FMOD12ChannelGroupENS0_13ChannelGroupIEE7GetFreeEi
2064:__ZN4FMOD6System9createDSPEP20FMOD_DSP_DESCRIPTIONPPNS_3DSPE
2065:__ZN29AudioEffectInternalDefinitionC2EP26UnityAudioEffectDefinitionb
2066:__ZN30AudioEffectInternalDescriptionC2EP26UnityAudioEffectDefinition
2067:__ZL39UnityAudioEffect_InternalCreateCallbackP14FMOD_DSP_STATE
2068:__ZL40UnityAudioEffect_InternalReleaseCallbackP14FMOD_DSP_STATE
2069:__ZL38UnityAudioEffect_InternalResetCallbackP14FMOD_DSP_STATE
2070:__ZL37UnityAudioEffect_InternalReadCallbackP14FMOD_DSP_STATEPfS1_jii
2071:__ZL44UnityAudioEffect_InternalSetPositionCallbackP14FMOD_DSP_STATEj
2072:__ZL50UnityAudioEffect_InternalSetFloatParameterCallbackP14FMOD_DSP_STATEif
2073:__ZL50UnityAudioEffect_InternalGetFloatParameterCallbackP14FMOD_DSP_STATEiPfPc
2074:__ZN4FMOD3DSP11setUserDataEPv
2075:__ZN4FMOD6System9setOutputE15FMOD_OUTPUTTYPE
2076:__ZN4FMOD6System13getNumDriversEPi
2077:__ZN4FMOD6System9getDriverEPi
2078:__ZN4FMOD6System13getDriverCapsEiPjPiP16FMOD_SPEAKERMODE
2079:__ZN4FMOD6System14setSpeakerModeE16FMOD_SPEAKERMODE
2080:__ZN4FMOD6System16setDSPBufferSizeEji
2081:__ZN4FMOD6System17setSoftwareFormatEi17FMOD_SOUND_FORMATii18FMOD_DSP_RESAMPLER
2082:__ZN4FMOD6System19setSoftwareChannelsEi
2083:__ZN4FMOD6System4initEijPv
2084:__ZN10ObjectPoolIN4FMOD7ChannelENS0_8ChannelIEE7SetSizeEi
2085:__ZN12AudioManager21SetActiveOutputDriverEP9FMOD_GUID
2086:__ZN4FMOD6System9setDriverEi
2087:__ZN4FMOD6System13getDriverInfoEiPciP9FMOD_GUID
2088:__ZN4FMOD7SystemIC2Ei
2089:__ZN10ObjectPoolIN4FMOD12ChannelGroupENS0_13ChannelGroupIEE7SetSizeEi
2090:__ZN10ObjectPoolIN4FMOD5SoundENS0_6SoundIEE7SetSizeEi
2091:__ZN10ObjectPoolIN4FMOD3DSPENS0_4DSPIEE7SetSizeEi
2092:__ZN12AudioManager27InitialCompleteDomainReloadEv
2093:__ZN24AudioScriptBufferManager4InitEv
2094:__ZN24AudioScriptBufferManagerC2Ev
2095:__ZN10AudioMixer6UpdateEf
2096:__ZN10AudioMixer18EnsureValidRuntimeEv
2097:__ZN5audio5mixer22UpdateAudioMixerMemoryERKNS0_18AudioMixerConstantERNS0_16AudioMixerMemoryEfPN4FMOD6SystemEf
2098:__ZN4FMOD12ChannelGroup19setAudibilityFactorEf
2099:__ZN4FMOD12ChannelGroup8setPitchEf
2100:__ZN4FMOD13DSPConnection6setMixEf
2101:__ZN5audio5mixerL19IsAnyChannelPlayingEPN4FMOD12ChannelGroupE
2102:__ZN5audio5mixer12SetSuspendedERNS0_16AudioMixerMemoryEb
2103:__ZN4FMOD3DSP9getActiveEPb
2104:__ZN4FMOD3DSP15getSystemObjectEPPNS_6SystemE
2105:__ZN4FMOD3DSP9setActiveEb
2106:__ZN4FMOD12ChannelGroup14getNumChannelsEPi
2107:__ZN4FMOD12ChannelGroup10getChannelEiPPNS_7ChannelE
2108:__ZN4FMOD7Channel9isPlayingEPb
2109:__ZN4FMOD12ChannelGroup12getNumGroupsEPi
2110:__ZN4FMOD12ChannelGroup8getGroupEiPPS0_
2111:__ZN5audio5mixer22CreateAudioMixerMemoryERKNS0_18AudioMixerConstantEPN4FMOD6SystemER20RuntimeBaseAllocatorib
2112:__ZN10AudioMixer31EnsureMixerGroupSinksAreCreatedEv
2113:__ZN10AudioMixer14UpdateMuteSoloEv
2114:__ZN5audio5mixer12UpdateBypassERNS0_18AudioMixerConstantERNS0_16AudioMixerMemoryE
2115:__ZN5audio5mixer21SetResultingMuteStateERKNS0_18AudioMixerConstantERKNS0_16AudioMixerMemoryEib
2116:__ZN10AudioMixer11SetupGroupsEv
2117:__ZN12AudioManager37RebindAudioSourcesAndSubMixersToMixerEP10AudioMixer
2118:__ZN11AudioSource19ConfigureFMODGroupsEv
2119:__ZN10AudioMixer12RebindOutputEv
2120:__ZN5audio5mixer16FindChannelGroupERKNS0_18AudioMixerConstantERKNS0_16AudioMixerMemoryERK9UnityGUID
2121:__ZN5audio5mixer17AssignOutputGroupERKNS0_18AudioMixerConstantERKNS0_16AudioMixerMemoryEPN4FMOD12ChannelGroupE
2122:__ZN4FMOD12ChannelGroup14getParentGroupEPPS0_
2123:__ZN11AudioSource12ApplyFiltersEv
2124:__ZN11AudioSource20SetEffectActiveStateEb
2125:__ZN10AudioMixer14MixerGroupSink15ProcessCallbackEP21UnityAudioEffectStatePfS3_jii
2126:__ZN4FMOD12ChannelGroup7setMuteEb
2127:__Z32AudioMeasurement_GetTimeConstantff
2128:__Z25GetAudioEffectDefinitionsPi
2129:__Z29AudioMixerSendProcessCallbackP21UnityAudioEffectStatePfS1_jii
2130:__Z32AudioMixerReceiveProcessCallbackP21UnityAudioEffectStatePfS1_jii
2131:__Z31AudioMixerDuckingCreateCallbackP21UnityAudioEffectState
2132:__Z32AudioMixerDuckingDestroyCallbackP21UnityAudioEffectState
2133:__Z37AudioMixerDuckingSetParameterCallbackP21UnityAudioEffectStateif
2134:__Z39AudioMixerDuckingGetFloatBufferCallbackP21UnityAudioEffectStatePKcPfi
2135:__Z32AudioMixerDuckingProcessCallbackP21UnityAudioEffectStatePfS1_jii
2136:__Z30AudioMixerFaderProcessCallbackP21UnityAudioEffectStatePfS1_jii
2137:__ZN12AudioManager33GetAudioEffectInternalDefinitionsEv
2138:__ZN11AudioSourceD2Ev
2139:__ZN11AudioSourceD0Ev
2140:__ZN11AudioSource17MainThreadCleanupEv
2141:__ZN11AudioSource13AwakeFromLoadE17AwakeFromLoadMode
2142:__ZN11AudioSource16CheckConsistencyEv
2143:__ZN11AudioSource5ResetEv
2144:__ZNK11AudioSource22GetTypeVirtualInternalEv
2145:__ZN11AudioSource23VirtualRedirectTransferER19StreamedBinaryWrite
2146:__ZN11AudioSource23VirtualRedirectTransferER18StreamedBinaryRead
2147:__ZN11AudioSource23VirtualRedirectTransferER17RemapPPtrTransfer
2148:__ZN11AudioSource23VirtualRedirectTransferER24GenerateTypeTreeTransfer
2149:__ZN11AudioSource23VirtualRedirectTransferER14SafeBinaryRead
2150:__ZN11AudioSource6UpdateEv
2151:__ZN11AudioSource11FixedUpdateEv
2152:__ZN11AudioSource12AddToManagerEv
2153:__ZN11AudioSource17RemoveFromManagerEv
2154:__ZN11AudioSource4PlayEd
2155:__ZN10SampleClip13LoadAudioDataEv
2156:__ZN11AudioSource28UnmuteActiveProviderChannelsEv
2157:__ZN11AudioSource16CreateFMODGroupsEv
2158:__ZN11AudioSource11AssignPropsEv
2159:__ZN11AudioSource20ApplySpatializerDataERKNS_14ParameterCacheE
2160:__ZN11AudioSource18ApplyAmbisonicDataERKNS_14ParameterCacheE
2161:__ZN20SoundChannelInstance15setChannelGroupEPN4FMOD12ChannelGroupE
2162:__ZN11AudioSource21ApplyCachedParametersE12SoundChannel
2163:__ZN20SoundChannelInstance15set3DAttributesEPK11FMOD_VECTORS2_
2164:__ZN11AudioSource20Apply3DPanParametersERKNS_14ParameterCacheE12SoundChannel
2165:__ZN11AudioSource19ApplyMinMaxDistanceERKNS_14ParameterCacheE12SoundChannel
2166:__ZN11AudioSource18ApplyReverbZoneMixERKNS_14ParameterCacheE12SoundChannel
2167:__ZN11AudioSource13ApplyPriorityERKNS_14ParameterCacheE12SoundChannel
2168:__ZN20SoundChannelInstance9isVirtualEPb
2169:__ZN4FMOD7Channel9isVirtualEPb
2170:__ZN20SoundChannelInstance11setPriorityEi
2171:__ZN20SoundChannelInstance19getReverbPropertiesEP29FMOD_REVERB_CHANNELPROPERTIES
2172:__ZN20SoundChannelInstance19setReverbPropertiesEP29FMOD_REVERB_CHANNELPROPERTIES
2173:__ZN4FMOD7Channel19getReverbPropertiesEP29FMOD_REVERB_CHANNELPROPERTIES
2174:__ZN20SoundChannelInstance19set3DMinMaxDistanceEff
2175:__ZN20SoundChannelInstance13set3DPanLevelEf
2176:__ZN20SoundChannelInstance6setPanEf
2177:__ZN20SoundChannelInstance11set3DSpreadEf
2178:__ZN11AudioSource8SetPitchEf
2179:__ZN20SoundChannelInstance7SetLoopEb
2180:__ZN11AudioSource20CacheFrameParametersEv
2181:__ZN11AudioSource15CachePositionalERNS_14ParameterCacheE
2182:__ZN11AudioSource24CacheDistanceAttenuationERNS_14ParameterCacheE
2183:__ZN11AudioSource11CacheVolumeERNS_14ParameterCacheE
2184:__ZN12AudioManager31GetCurrentSpatializerDefinitionEv
2185:__ZN10AudioMixer16ResumeProcessingEv
2186:__Z30GetAudioSpatializerDefinitionsR13dynamic_arrayIP29AudioEffectInternalDefinitionLj0EE31UnityAudioEffectDefinitionFlags
2187:__ZN10SampleClip13LoadBaseSoundEv
2188:__ZNK10SampleClip17CalculateFMODModeEv
2189:__ZN12SoundManager9GetHandleERK16StreamedResourceijjP10SampleClipb
2190:__Z13LoadFMODSoundPPN11SoundHandle8InstanceEPKcjP10SampleClipjjP22FMOD_CREATESOUNDEXINFO
2191:__ZN12SoundManager18IntegrateFMODSoundEPN11SoundHandle8InstanceERK16StreamedResourcejiN17SoundHandleShared9LoadStateE
2192:__ZN4FMOD5Sound13setLoopPointsEjjjj
2193:__ZN11SoundHandle8InstanceC2Ev
2194:__ZN4FMOD6System11createSoundEPKcjP22FMOD_CREATESOUNDEXINFOPPNS_5SoundE
2195:__ZN4FMOD7SystemI11createSoundEPKcjP22FMOD_CREATESOUNDEXINFOPPNS_5SoundE
2196:__ZN10ObjectPoolIN4FMOD5SoundENS0_6SoundIEE7GetFreeEi
2197:__ZNK7WeakPtrIN11SoundHandle8InstanceEE10SharedData9GetRawPtrEv
2198:__ZN11AudioSource16UpdatePauseStateEv
2199:__ZN10SampleClip15AllocateChannelEby
2200:__ZN4FMOD6System7playDSPE17FMOD_CHANNELINDEXPNS_3DSPEbPPNS_7ChannelE
2201:__ZN11AudioSource15AddAmbisonicDSPE12SoundChannel
2202:__ZN20SoundChannelInstance14SetPositionPCMEj
2203:__ZN21AudioScriptingClasses23InvokeOnAudioSourcePlayE18ScriptingObjectPtrP21ScriptingExceptionPtr
2204:__ZN12AudioManager29GetCurrentAmbisonicDefinitionE31UnityAudioEffectDefinitionFlags
2205:__ZN20SoundChannelInstance15AddAmbisonicDSPE31UnityAudioEffectDefinitionFlagsP23UnityAudioAmbisonicData
2206:__ZN4FMOD3DSP12getParameterEiPfPci
2207:__ZN20SoundChannelInstanceC2E11SoundHandleb
2208:__ZN20SoundChannelInstanceD2Ev
2209:__ZN20SoundChannelInstanceD0Ev
2210:__ZN11SoundHandleC2ERKS_
2211:__ZN4FMOD7SystemI7playDSPE17FMOD_CHANNELINDEXPNS_3DSPEbPPNS_7ChannelE
2212:__ZN11SoundHandle13CreateChannelEb
2213:__ZN20SoundChannelInstance8setDelayE14FMOD_DELAYTYPEjj
2214:__ZN11SoundHandle8Instance13CreateChannelERS_b
2215:__ZN11AudioSource32CorrectScheduledTimeAfterUnpauseEy
2216:__ZN20SoundChannelInstance8getDelayE14FMOD_DELAYTYPEPjS1_
2217:__ZN11AudioSource8DoUpdateEv
2218:__ZN11AudioSource19UpdateLocalChannelsER13dynamic_arrayI12SoundChannelLj0EE
2219:__ZN13dynamic_arrayI12SoundChannelLj0EE9push_backERKS0_
2220:__ZN11AudioSource8TransferI14SafeBinaryReadEEvRT_
2221:__ZN11AudioSource19CreateOpenALRolloffEfff
2222:__ZN11AudioSource8TransferI24GenerateTypeTreeTransferEEvRT_
2223:__ZN11AudioSource8TransferI18StreamedBinaryReadEEvRT_
2224:__ZN11AudioSource8TransferI19StreamedBinaryWriteEEvRT_
2225:__ZN11AudioSource26KillActiveProviderChannelsEv
2226:__ZN15AudioParametersD2Ev
2227:__ZN10SampleClipD2Ev
2228:__ZN10SampleClipD0Ev
2229:__ZN10SampleClip17MainThreadCleanupEv
2230:__ZNK10SampleClip22GetTypeVirtualInternalEv
2231:__ZN10SampleClip23VirtualRedirectTransferER24GenerateTypeTreeTransfer
2232:__ZN10SampleClip23VirtualRedirectTransferER14SafeBinaryRead
2233:__ZNK10SampleClip12GetLoadStateEv
2234:__ZN9AudioClipD2Ev
2235:__ZN9AudioClipD0Ev
2236:__ZN9AudioClip17MainThreadCleanupEv
2237:__ZN9AudioClip13AwakeFromLoadE17AwakeFromLoadMode
2238:__ZN9AudioClip21AwakeFromLoadThreadedEv
2239:__ZNK9AudioClip22GetTypeVirtualInternalEv
2240:__ZN9AudioClip23VirtualRedirectTransferER19StreamedBinaryWrite
2241:__ZN9AudioClip23VirtualRedirectTransferER18StreamedBinaryRead
2242:__ZN9AudioClip23VirtualRedirectTransferER24GenerateTypeTreeTransfer
2243:__ZN9AudioClip23VirtualRedirectTransferER14SafeBinaryRead
2244:__ZN9AudioClip8TransferI14SafeBinaryReadEEvRT_
2245:__ZN9AudioClip8TransferI24GenerateTypeTreeTransferEEvRT_
2246:__ZN9AudioClip8TransferI18StreamedBinaryReadEEvRT_
2247:__ZN9AudioClip8TransferI19StreamedBinaryWriteEEvRT_
2248:__ZN9AudioClip9LoadSoundEv
2249:__ZN9AudioClip11CreateSoundEv
2250:__ZN12AudioManager22CreateFMODSoundFromWWWEP10IWWWStream15FMOD_SOUND_TYPE17FMOD_SOUND_FORMATjjbbP10SampleClip
2251:__ZN12SoundManager22GetHandleFromFMODSoundEPN11SoundHandle8InstanceEjP10SampleClip
2252:__ZN12AudioManager24CreateFMODSoundFromMovieEP9AudioClip
2253:__ZN9AudioClip21ScriptPCMReadCallbackEP10FMOD_SOUNDPvj
2254:__ZN9AudioClip28ScriptPCMSetPositionCallbackEP10FMOD_SOUNDijj
2255:__ZN12SoundManager19CreateSoundInternalEPKcjP22FMOD_CREATESOUNDEXINFOR11SoundHandlejP10SampleClip
2256:__ZN4FMOD5Sound11getUserDataEPPv
2257:__ZN12AudioManager22GetScriptBufferManagerEv
2258:__ZN9AudioClip12moviepcmreadEP10FMOD_SOUNDPvj
2259:__ZN9AudioClip18GetQueuedAudioDataEPPvj
2260:__ZN9AudioClip7WWWOpenEPKciPjPPvS4_
2261:__ZN9AudioClip8WWWCloseEPvS0_
2262:__ZN9AudioClip7WWWReadEPvS0_jPjS0_
2263:__ZN9AudioClip7WWWSeekEPvjS0_
2264:__ZN10IWWWStream25FromTextualRepresentationEPKc
2265:__ZN13AudioListenerD2Ev
2266:__ZN13AudioListenerD0Ev
2267:__ZN13AudioListener13AwakeFromLoadE17AwakeFromLoadMode
2268:__ZN13AudioListener5ResetEv
2269:__ZNK13AudioListener22GetTypeVirtualInternalEv
2270:__ZN13AudioListener23VirtualRedirectTransferER19StreamedBinaryWrite
2271:__ZN13AudioListener23VirtualRedirectTransferER18StreamedBinaryRead
2272:__ZN13AudioListener23VirtualRedirectTransferER17RemapPPtrTransfer
2273:__ZN13AudioListener23VirtualRedirectTransferER24GenerateTypeTreeTransfer
2274:__ZN13AudioListener23VirtualRedirectTransferER14SafeBinaryRead
2275:__ZN13AudioListener6UpdateEv
2276:__ZN13AudioListener11FixedUpdateEv
2277:__ZN13AudioListener12AddToManagerEv
2278:__ZN13AudioListener17RemoveFromManagerEv
2279:__ZN12AudioManager19RemoveAudioListenerEP13AudioListener
2280:__ZN12AudioManager16AddAudioListenerEP13AudioListener
2281:__ZN13AudioListener8DoUpdateEv
2282:__ZN12AudioManager14UpdateListenerERK8Vector3fS2_S2_S2_
2283:__ZNK18AudioLowPassFilter18GetCutoffFrequencyEv
2284:__ZN4FMOD6System23set3DListenerAttributesEiPK11FMOD_VECTORS3_S3_S3_
2285:__ZN12AudioManager22GetAutomaticUpdateModeEP10GameObject
2286:__ZN14AudioBehaviourD2Ev
2287:__ZNK14AudioBehaviour22GetTypeVirtualInternalEv
2288:__ZN17AudioCustomFilterD2Ev
2289:__ZN17AudioCustomFilterD0Ev
2290:__ZN14PlayableOutput19SetSourceOutputPortEi
2291:__ZNK7Texture20GetUnscaledTextureIDEv
2292:__ZNK7Texture11GetGPUWidthEv
2293:__ZNK7Texture12GetGPUHeightEv
2294:__ZNK7Texture16GetNpotTexelSizeEv
2295:__ZNK7Texture9HasMipMapEv
2296:__ZNK7Texture14GetMipmapCountEv
2297:__ZNK7Texture21GetShadowSamplingModeEv
2298:__ZN7Texture34UpdateFileTextureUploadInstructionEP24TextureUploadInstructionj
2299:__Z18RegisterUnityClassI9AudioClipEvPKc
2300:__Z18RegisterUnityClassI14AudioBehaviourEvPKc
2301:__Z18RegisterUnityClassI13AudioListenerEvPKc
2302:__Z18RegisterUnityClassI11AudioSourceEvPKc
2303:__ZN13ProduceHelperI11AudioSourceLb0EE7ProduceE10MemLabelId18ObjectCreationMode
2304:__ZN11AudioSource15InitializeClassEv
2305:__ZZN11AudioSource15InitializeClassEvEN32FunctorImpl_2792kDidAddComponent4CallEPviR11MessageData
2306:__ZN11AudioSourceC2E10MemLabelId18ObjectCreationMode
2307:__ZN13ProduceHelperI13AudioListenerLb0EE7ProduceE10MemLabelId18ObjectCreationMode
2308:__ZN13AudioListener15InitializeClassEv
2309:__ZZN13AudioListener15InitializeClassEvEN31FunctorImpl_187kDidAddComponent4CallEPviR11MessageData
2310:__ZN14AudioBehaviourC2E10MemLabelId18ObjectCreationMode
2311:__ZN13ProduceHelperI9AudioClipLb0EE7ProduceE10MemLabelId18ObjectCreationMode
2312:__ZN10SampleClipC2E10MemLabelId18ObjectCreationMode
2313:__Z45AudioSettings_CUSTOM_GetSpatializerPluginNamev
2314:__ZN12AudioManager35GetCurrentSpatializerDefinitionNameEv
2315:__Z50AudioSettings_CUSTOM_GetAmbisonicDecoderPluginNamev
2316:__ZN12AudioManager33GetCurrentAmbisonicDefinitionNameE31UnityAudioEffectDefinitionFlags
2317:__Z45AudioExtensionManager_CUSTOM_GetAudioListenerv
2318:__Z34AudioClip_Get_Custom_PropAmbisonicP12Il2CppObject
2319:__ZN9AudioClipC2E10MemLabelId18ObjectCreationMode
2320:__ZN12AudioManager16SetListenerPauseEb
2321:__Z46AudioListener_CUSTOM_GetNumExtensionPropertiesP12Il2CppObject
2322:__Z52AudioListener_CUSTOM_INTERNAL_CALL_ReadExtensionNameP12Il2CppObjectiR12PropertyName
2323:__Z60AudioListener_CUSTOM_INTERNAL_CALL_ReadExtensionPropertyNameP12Il2CppObjectiR12PropertyName
2324:__Z47AudioListener_CUSTOM_ReadExtensionPropertyValueP12Il2CppObjecti
2325:__Z59AudioListener_CUSTOM_INTERNAL_CALL_ClearExtensionPropertiesP12Il2CppObjectRK12PropertyName
2326:__ZN13AudioListener24ClearExtensionPropertiesE12PropertyName
2327:__Z31AudioSource_Get_Custom_PropClipP12Il2CppObject
2328:__Z31AudioSource_Set_Custom_PropClipP12Il2CppObjectS0_
2329:__ZN11AudioSource12SetAudioClipEP9AudioClip
2330:__Z23AudioSource_CUSTOM_PlayP12Il2CppObjecty
2331:__Z36AudioSource_Get_Custom_PropIsPlayingP12Il2CppObject
2332:__ZNK11AudioSource9IsPlayingEv
2333:__ZN20SoundChannelInstance9isPlayingEPb
2334:__Z45AudioSource_Get_Custom_PropSpatializeInternalP12Il2CppObject
2335:__Z44AudioSource_CUSTOM_GetNumExtensionPropertiesP12Il2CppObject
2336:__Z50AudioSource_CUSTOM_INTERNAL_CALL_ReadExtensionNameP12Il2CppObjectiR12PropertyName
2337:__Z58AudioSource_CUSTOM_INTERNAL_CALL_ReadExtensionPropertyNameP12Il2CppObjectiR12PropertyName
2338:__Z45AudioSource_CUSTOM_ReadExtensionPropertyValueP12Il2CppObjecti
2339:__Z57AudioSource_CUSTOM_INTERNAL_CALL_ClearExtensionPropertiesP12Il2CppObjectRK12PropertyName
2340:__ZN11AudioSource24ClearExtensionPropertiesE12PropertyName
2341:__ZN21AudioScriptingClasses26InvokeOnAudioManagerUpdateEP21ScriptingExceptionPtr
2342:__ZZL31InitializeAudioManagerCallbacksvEN38FixedUpdateAudioFixedUpdateRegistrator7ForwardEv
2343:__ZZL31InitializeAudioManagerCallbacksvEN36PostLateUpdateUpdateAudioRegistrator7ForwardEv
2344:__ZZL31InitializeAudioManagerCallbacksvEN44PostLateUpdateUpdateVideoTexturesRegistrator7ForwardEv
2345:__ZN11AudioModule16SetListenerPauseEb
2346:__ZN11AudioModule19SetApplicationPauseEb
2347:__ZN11AudioModule11FixedUpdateEv
2348:__ZN11AudioModule6UpdateEv
2349:__ZN11AudioModule11GetDSPClockEv
2350:__ZN11AudioModule16GetDSPSampleRateEv
2351:__ZN11AudioModule15GetDSPBlockSizeEv
2352:__ZN11AudioModule17StopVideoTexturesEv
2353:__ZN11AudioModule19UpdateVideoTexturesEv
2354:__ZN11AudioModule18PauseVideoTexturesEv
2355:__ZN11AudioModule20SuspendVideoTexturesEv
2356:__ZN11AudioModule19ResumeVideoTexturesEv
2357:__ZN11AudioModule22CreateAudioClipFromWWWEP10IWWWStreamPKcbbi
2358:__ZN11AudioModule27IsFormatSupportedByPlatformEPKc
2359:__ZN11AudioModule30GetOrCreateDSPFromCustomFilterEP17AudioCustomFilter
2360:__ZN11AudioModule23CreateAudioCustomFilterEP13MonoBehaviour
2361:__ZN11AudioModule23DeleteAudioCustomFilterEP17AudioCustomFilter
2362:__ZN11AudioModule27GetDSPFromAudioCustomFilterEP17AudioCustomFilter
2363:__ZN11AudioModule14SetBypassOnDSPEPN4FMOD3DSPEb
2364:__ZN11AudioModule12CaptureFrameER13dynamic_arrayI22AudioProfilerGroupInfoLj0EERS0_I20AudioProfilerDSPInfoLj0EERS0_I21AudioProfilerClipInfoLj0EERS0_IcLj0EE
2365:__ZN11AudioModule25AudioManagerAwakeFromLoadE17AwakeFromLoadMode
2366:__ZN11AudioModule21SetActiveOutputDriverEPv
2367:__ZN11AudioModule26SetDefaultMicrophoneDriverEPv
2368:__ZN11AudioModule13GetNumDevicesEv
2369:__ZN11AudioModule15IsAudioDisabledEv
2370:__ZNK12AudioManager13GetNumDevicesEv
2371:__ZN12AudioManager26SetDefaultMicrophoneDriverEP9FMOD_GUID
2372:__ZN17AudioCustomFilterC2EP13MonoBehaviour
2373:__ZN17AudioCustomFilter4InitEv
2374:__ZL22FMODDSPReleaseCallbackP14FMOD_DSP_STATE
2375:__ZL20SharedDataDeleterJobP21UnownedResourceHandleI17AudioCustomFilterE
2376:__ZN9AudioClip22GetFormatFromExtensionERKN4core12basic_stringIcNS0_20StringStorageDefaultIcEEEE
2377:__ZN9AudioClip16EnableLegacyModeEv
2378:__ZN9AudioClip10InitStreamEP10IWWWStreamPKcP13MoviePlaybackbb15FMOD_SOUND_TYPE
2379:__ZN16BaseVideoTexture19ResumeVideoTexturesEv
2380:__ZN16BaseVideoTexture20SuspendVideoTexturesEv
2381:__ZN16BaseVideoTexture18PauseVideoTexturesEv
2382:__ZN16BaseVideoTexture19UpdateVideoTexturesEv
2383:__ZN16BaseVideoTexture17StopVideoTexturesEv
2384:__ZNK12AudioManager15GetDSPBlockSizeEv
2385:__ZNK12AudioManager16GetDSPSampleRateEv
2386:__ZNK12AudioManager11GetDSPClockEv
2387:__ZN12AudioManager6UpdateEv
2388:__ZN12AudioManager23ProcessScheduledSourcesEv
2389:__ZN12AudioManager11FixedUpdateEv
2390:__ZN12AudioManager19SetApplicationPauseEb
2391:__Z18RegisterUnityClassI12AudioManagerEvPKc
2392:__Z18RegisterUnityClassI10SampleClipEvPKc
2393:__ZN13ProduceHelperI10SampleClipLb0EE7ProduceE10MemLabelId18ObjectCreationMode
2394:__ZN13ProduceHelperI12AudioManagerLb0EE7ProduceE10MemLabelId18ObjectCreationMode
2395:__ZN12AudioManagerC2E10MemLabelId18ObjectCreationMode
2396:__Z20RegisterModule_Audiov
2397:__ZL22InitializeModule_Audiov
2398:__ZL19CleanupModule_Audiov
2399:__ZN19AudioSampleProvider7AcquireEjRNS_6HandleE
2400:__ZN19AudioSampleProvider15SetScriptingPtrERK18ScriptingObjectPtr
2401:__ZN27AudioSampleProviderBindings23InternalSetScriptingPtrEj18ScriptingObjectPtr
2402:__Z50AudioSampleProvider_CUSTOM_InternalSetScriptingPtrjP12Il2CppObject
2403:__GLOBAL__sub_I_ClothScriptingClasses_cpp
2404:__GLOBAL__sub_I_Runtime_Cloth_0_cpp
2405:___cxx_global_var_init_13
2406:__GLOBAL__sub_I_SwCollision_cpp
2407:__GLOBAL__sub_I_SwInterCollision_cpp
2408:__GLOBAL__sub_I_SwSelfCollision_cpp
2409:__GLOBAL__sub_I_SwSolverKernel_cpp
2410:___cxx_global_var_init
2411:___cxx_global_var_init_1
2412:___cxx_global_var_init_2
2413:___cxx_global_var_init_3
2414:___cxx_global_var_init_4
2415:___cxx_global_var_init_5
2416:___cxx_global_var_init_6
2417:___cxx_global_var_init_7
2418:___cxx_global_var_init_8
2419:___cxx_global_var_init_10
2420:___cxx_global_var_init_11
2421:__Z6simd4fffff
2422:__Z6simd4fRKf
2423:__Z6simd4iiiii
2424:__ZN5physx14PxLightCpuTaskD2Ev
2425:__ZN5physx14PxLightCpuTask12addReferenceEv
2426:__ZN5physx14PxLightCpuTask15removeReferenceEv
2427:__ZNK5physx14PxLightCpuTask12getReferenceEv
2428:__ZN5physx14PxLightCpuTask7releaseEv
2429:__ZL65__ManagedRegistrationHelperFunction_ClothSkinningCoefficientProxyPv
2430:__ZL64__ManagedRegistrationHelperFunction_ClothSphereColliderPairProxyPv
2431:__ZN9Scripting11UnityEngine28ClothSphereColliderPairProxy9InitProxyEv
2432:__ZN9Scripting11UnityEngine28ClothSphereColliderPairProxy12CleanupProxyEv
2433:__ZN9Scripting11UnityEngine29ClothSkinningCoefficientProxy9InitProxyEv
2434:__ZN9Scripting11UnityEngine29ClothSkinningCoefficientProxy12CleanupProxyEv
2435:__ZN11UnityEngine15CloudWebService17CloudJobScheduler10InitializeEv
2436:__ZN11UnityEngine15CloudWebService17CloudJobScheduler5CloseEv
2437:__ZN11UnityEngine15CloudWebService17CloudJobScheduler11ScheduleJobEPFvPvES2_
2438:__ZN11UnityEngine15CloudWebService17CloudJobSchedulerD2Ev
2439:__ZN11UnityEngine15CloudWebService17CloudJobSchedulerD0Ev
2440:__ZN23CloudWebServicesManagerD2Ev
2441:__ZN23CloudWebServicesManagerD0Ev
2442:__ZNK23CloudWebServicesManager22GetTypeVirtualInternalEv
2443:__ZN23CloudWebServicesManager23VirtualRedirectTransferER24GenerateTypeTreeTransfer
2444:__ZN23CloudWebServicesManager23VirtualRedirectTransferER14SafeBinaryRead
2445:__ZN23CloudWebServicesManager15ThreadedCleanupEv
2446:__ZNSt3__26__treeINS_12__value_typeIN19CloudServiceHandler11ServiceTypeEPS2_EENS_19__map_value_compareIS3_S5_NS_4lessIS3_EELb1EEE13stl_allocatorIS5_L18MemLabelIdentifier88ELi16EEE7destroyEPNS_11__tree_nodeIS5_PvEE
2447:__ZNSt3__26__treeINS_12__value_typeIN19CloudServiceHandler11ServiceTypeEPS2_EENS_19__map_value_compareIS3_S5_NS_4lessIS3_EELb1EEE13stl_allocatorIS5_L18MemLabelIdentifier88ELi16EEE12__find_equalIS3_EERPNS_16__tree_node_baseIPvEENS_21__tree_const_iteratorIS5_PNS_11__tree_nodeIS5_SG_EEiEERPNS_15__tree_end_nodeISI_EESJ_RKT_
2448:__ZN19CloudServiceHandler12CloseServiceEv
2449:__ZN19CloudServiceHandlerD2Ev
2450:__ZN23CloudWebServicesManager25RemoveCloudServiceHandlerEP19CloudServiceHandler
2451:__ZN11UnityEngine15CloudWebService18CloudServiceConfigD2Ev
2452:__ZN11UnityEngine15CloudWebService19SessionEventManagerD2Ev
2453:__ZN11UnityEngine15CloudWebService16SessionContainerD2Ev
2454:__ZN11UnityEngine15CloudWebService17SessionEventQueueD2Ev
2455:__ZN11UnityEngine15CloudWebService17SessionEventQueue10PurgeQueueEv
2456:__ZN11UnityEngine15CloudWebService14DataDispatcherD2Ev
2457:__ZNSt3__26__treeINS_12__value_typeIN4core12basic_stringIcNS2_20StringStorageDefaultIcEEEEjEENS_19__map_value_compareIS6_S7_NS_4lessIS6_EELb1EEE13stl_allocatorIS7_L18MemLabelIdentifier88ELi16EEE7destroyEPNS_11__tree_nodeIS7_PvEE
2458:__ZN11UnityEngine15CloudWebService14DataDispatcher26OnSessionContainerArchivedERNS0_16SessionContainerE
2459:__ZN11UnityEngine15CloudWebService14DataDispatcher34OnSessionContainerArchivedAndReadyERNS0_16SessionContainerE
2460:__ZN11UnityEngine15CloudWebService14DataDispatcherD0Ev
2461:__ZN11UnityEngine15CloudWebService14DataDispatcher20OnRestDownloaderDoneERNS0_14RestDownloaderE
2462:__ZThn4_N11UnityEngine15CloudWebService14DataDispatcher20OnRestDownloaderDoneERNS0_14RestDownloaderE
2463:__ZThn4_N11UnityEngine15CloudWebService14DataDispatcherD1Ev
2464:__ZThn4_N11UnityEngine15CloudWebService14DataDispatcherD0Ev
2465:__ZN11UnityEngine15CloudWebService14DataDispatcher25OnDataBlockConsumedStaticEPv
2466:__ZN11UnityEngine15CloudWebService14DataDispatcher19OnDataBlockConsumedEv
2467:__ZN11UnityEngine15CloudWebService16SessionContainer11PurgeEventsEj
2468:__ZN11UnityEngine15CloudWebService16SessionContainer22ArchiveDirtyEventQueueEv
2469:__ZN11UnityEngine15CloudWebService16SessionContainer9ResetDataEv
2470:__ZN11UnityEngine15CloudWebService16SessionContainer13DeleteArchiveERKN4core12basic_stringIcNS2_20StringStorageDefaultIcEEEE
2471:__ZN11UnityEngine15CloudWebService14DataDispatcher16PrepareDataBlockERNS0_16SessionContainerE
2472:__ZN11UnityEngine15CloudWebService16SessionContainer16MarkAsDispatchedERKN4core12basic_stringIcNS2_20StringStorageDefaultIcEEEE
2473:__ZN11UnityEngine15CloudWebService14DataDispatcher19HandleDeleteFailureERNS0_16SessionContainerE
2474:__ZN11UnityEngine15CloudWebService14DataDispatcher31SetupSessionContainerToDispatchEv
2475:__ZN11UnityEngine15CloudWebService14DataDispatcher30FindSessionContainerToDispatchEv
2476:__ZN11UnityEngine15CloudWebService14DataDispatcher23EnumerateSessionFoldersER15SortedHashArrayI13FileEntryInfoNS1_6HasherEERPKS3_
2477:__ZN11UnityEngine15CloudWebService16SessionContainer21ConvertFromFolderTimeERKN4core12basic_stringIcNS2_20StringStorageDefaultIcEEEEPjPt
2478:__ZN11UnityEngine15CloudWebService16SessionContainer12IsDispatchedERKN4core12basic_stringIcNS2_20StringStorageDefaultIcEEEE
2479:__ZN11UnityEngine15CloudWebService16SessionContainer7RestoreERKN4core12basic_stringIcNS2_20StringStorageDefaultIcEEEEPvy
2480:__ZNSt3__26__treeINS_12__value_typeIN4core12basic_stringIcNS2_20StringStorageDefaultIcEEEEjEENS_19__map_value_compareIS6_S7_NS_4lessIS6_EELb1EEE13stl_allocatorIS7_L18MemLabelIdentifier88ELi16EEE25__emplace_unique_key_argsIS6_JRKNS_21piecewise_construct_tENS_5tupleIJRKS6_EEENSK_IJEEEEEENS_4pairINS_15__tree_iteratorIS7_PNS_11__tree_nodeIS7_PvEEiEEbEERKT_DpOT0_
2481:__ZNK15SortedHashArrayI13FileEntryInfoN11UnityEngine15CloudWebService14DataDispatcher6HasherEE4sortEv
2482:__ZNSt3__26__sortIR14SortByHashPredI13FileEntryInfoN11UnityEngine15CloudWebService14DataDispatcher6HasherEEPS2_EEvT0_SA_T_
2483:__ZNK11UnityEngine15CloudWebService14DataDispatcher6HasherclERK13FileEntryInfo
2484:__Z37remove_duplicates_using_copy_internalIP13FileEntryInfo14SortByHashPredIS0_N11UnityEngine15CloudWebService14DataDispatcher6HasherEEET_S8_S8_T0_
2485:__ZNSt3__27__sort3IR14SortByHashPredI13FileEntryInfoN11UnityEngine15CloudWebService14DataDispatcher6HasherEEPS2_EEjT0_SA_SA_T_
2486:__ZNSt3__27__sort4IR14SortByHashPredI13FileEntryInfoN11UnityEngine15CloudWebService14DataDispatcher6HasherEEPS2_EEjT0_SA_SA_SA_T_
2487:__ZNSt3__27__sort5IR14SortByHashPredI13FileEntryInfoN11UnityEngine15CloudWebService14DataDispatcher6HasherEEPS2_EEjT0_SA_SA_SA_SA_T_
2488:__ZNSt3__218__insertion_sort_3IR14SortByHashPredI13FileEntryInfoN11UnityEngine15CloudWebService14DataDispatcher6HasherEEPS2_EEvT0_SA_T_
2489:__ZNSt3__227__insertion_sort_incompleteIR14SortByHashPredI13FileEntryInfoN11UnityEngine15CloudWebService14DataDispatcher6HasherEEPS2_EEbT0_SA_T_
2490:__ZN11UnityEngine15CloudWebService16SessionContainer17RestoreEventQueueERKN4core12basic_stringIcNS2_20StringStorageDefaultIcEEEES8_Pvy
2491:__ZN11UnityEngine15CloudWebService16SessionContainer20RestoreSessionHeaderERKN4core12basic_stringIcNS2_20StringStorageDefaultIcEEEES8_RNS0_13SessionHeaderE
2492:__ZN11UnityEngine15CloudWebService17SessionEventQueue15RestoreFromFileER12FileAccessorPvy
2493:__ZN11UnityEngine15CloudWebService17SessionEventQueue16ExtractEventDataEPKcyRN4core12basic_stringIcNS4_20StringStorageDefaultIcEEEE
2494:__ZN11UnityEngine15CloudWebService17SessionEventQueue14ParseEventDataERKN4core12basic_stringIcNS2_20StringStorageDefaultIcEEEE
2495:__ZNSt3__26vectorIPN11UnityEngine15CloudWebService14CloudEventInfoE13stl_allocatorIS4_L18MemLabelIdentifier88ELi16EEE21__push_back_slow_pathIRKS4_EEvOT_
2496:__ZN11UnityEngine15CloudWebService14DataDispatcher21SortFileEntryInfoListERK19dynamic_block_arrayI13FileEntryInfoLj32EER15SortedHashArrayIS3_NS1_6HasherEE
2497:__ZN15SortedHashArrayI13FileEntryInfoN11UnityEngine15CloudWebService14DataDispatcher6HasherEE9push_backERKS0_
2498:__ZN11UnityEngine15CloudWebService16SessionContainer38GetDeleteErrorJsonDataBlockAsJsonArrayERKN4core12basic_stringIcNS2_20StringStorageDefaultIcEEEES8_RS6_
2499:__ZN11UnityEngine15CloudWebService16SessionContainer27GetDeleteErrorJsonDataBlockERKN4core12basic_stringIcNS2_20StringStorageDefaultIcEEEERS6_
2500:__ZN11UnityEngine15CloudWebService14DataDispatcher15SetupWebRequestEv
2501:__ZN11UnityEngine15CloudWebService14DataDispatcher18PreformWebDispatchEv
2502:__ZN11UnityEngine15CloudWebService16SessionContainer21PrepareDataErrorEventERN4core12basic_stringIcNS2_20StringStorageDefaultIcEEEE
2503:__ZN11UnityEngine15CloudWebService16SessionContainer15FormatDataBlockERKN4core12basic_stringIcNS2_20StringStorageDefaultIcEEEES6_RS6_
2504:__ZN11UnityEngine15CloudWebService16SessionContainer24GetSessionHeaderJsonDataERKN4core12basic_stringIcNS2_20StringStorageDefaultIcEEEERNS2_13StringBuilderE
2505:__ZN4core13StringBuilder14UpdateWritePtrERPcb
2506:__ZN11UnityEngine15CloudWebService17CloudServiceEventD2Ev
2507:__ZN11UnityEngine15CloudWebService17CloudServiceEventD0Ev
2508:__ZN11UnityEngine15CloudWebService17CloudServiceEvent12ToJsonStringER9JSONWrite
2509:__ZN9JSONWrite8TransferIyEEvRT_PKc17TransferMetaFlags
2510:__ZN24TextDOMTransferWriteBaseI9JSONWriteE12PushMetaFlagEi
2511:__ZN5Unity9rapidjson12GenericValueINS0_4UTF8IcEE13JSONAllocatorED2Ev
2512:__ZN11UnityEngine15CloudWebService14DataErrorEventD2Ev
2513:__ZN11UnityEngine15CloudWebService14DataErrorEventD0Ev
2514:__ZN11UnityEngine15CloudWebService14DataErrorEvent12ToJsonStringER9JSONWrite
2515:__ZN9JSONWrite8TransferIN4core12basic_stringIcNS1_20StringStorageDefaultIcEEEEEEvRT_PKc17TransferMetaFlags
2516:__ZN9JSONWrite8TransferIN11UnityEngine15CloudWebService14DataErrorEvent17FolderErrorDetailEEEvRT_PKc17TransferMetaFlags
2517:__ZN9JSONWrite8TransferI13dynamic_arrayIN11UnityEngine15CloudWebService14DataErrorEvent15FileErrorDetailELj0EEEEvRT_PKc17TransferMetaFlags
2518:__ZN9JSONWrite8TransferIN11UnityEngine15CloudWebService14DataErrorEvent15FileErrorDetailEEEvRT_PKc17TransferMetaFlags
2519:__ZN9JSONWrite8TransferIiEEvRT_PKc17TransferMetaFlags
2520:__ZN11UnityEngine15CloudWebService14DataErrorEvent17FolderErrorDetailD2Ev
2521:__ZN11UnityEngine15CloudWebService17CloudServiceEvent12ToJsonStringERN4core12basic_stringIcNS2_20StringStorageDefaultIcEEEEjPKc
2522:__ZN9JSONWriteD2Ev
2523:__ZN11UnityEngine15CloudWebService14DataErrorEventC2Ev
2524:__ZN13dynamic_arrayIN11UnityEngine15CloudWebService14DataErrorEvent15FileErrorDetailELj0EE18resize_initializedEj12ResizePolicy
2525:__ZN11UnityEngine15CloudWebService16SessionContainer26FormatDataBlockAsJsonArrayERKN4core12basic_stringIcNS2_20StringStorageDefaultIcEEEES8_S6_RS6_
2526:__ZN11UnityEngine15CloudWebService16SessionContainer25GetSessionHeaderJsonArrayERKN4core12basic_stringIcNS2_20StringStorageDefaultIcEEEERNS2_13StringBuilderE
2527:__ZN11UnityEngine15CloudWebService16SessionContainer17CreateAndOpenFileERKN4core12basic_stringIcNS2_20StringStorageDefaultIcEEEES8_R12FileAccessor
2528:__ZN11UnityEngine15CloudWebService16SessionContainer21GetJsonArrayDataBlockEjRKN4core12basic_stringIcNS2_20StringStorageDefaultIcEEEES8_RS6_PjSA_
2529:__ZN11UnityEngine15CloudWebService16SessionContainer16GetJsonDataBlockEjRKN4core12basic_stringIcNS2_20StringStorageDefaultIcEEEERS6_PjSA_
2530:__ZN11UnityEngine15CloudWebService17SessionEventQueue19GetEventsAsJsonDataEjRN4core12basic_stringIcNS2_20StringStorageDefaultIcEEEEPjS8_
2531:__ZN11UnityEngine15CloudWebService17SessionEventQueue20GetEventsAsJsonArrayEjRN4core12basic_stringIcNS2_20StringStorageDefaultIcEEEEPjS8_
2532:__ZN11UnityEngine15CloudWebService16SessionContainer31HandleDeleteArchivedFolderErrorERKN4core12basic_stringIcNS2_20StringStorageDefaultIcEEEE
2533:__ZN11UnityEngine15CloudWebService16SessionContainer18DeleteArchivedFileERKN4core12basic_stringIcNS2_20StringStorageDefaultIcEEEES8_Rb
2534:__ZN11UnityEngine15CloudWebService16SessionContainer17ResetArchivedFileERKN4core12basic_stringIcNS2_20StringStorageDefaultIcEEEE
2535:__ZN11UnityEngine15CloudWebService17SessionEventQueue10SaveToFileER12FileAccessor
2536:__ZN11UnityEngine15CloudWebService17SessionEventQueue10PurgeItemsEj
2537:__ZN11UnityEngine15CloudWebService20WebRequestRestClientD2Ev
2538:__ZN11UnityEngine15CloudWebService10RestClientINS0_23WebRequestRestHeaderMapEE6SetUrlERKN4core12basic_stringIcNS4_20StringStorageDefaultIcEEEE
2539:__ZN11UnityEngine15CloudWebService10RestClientINS0_23WebRequestRestHeaderMapEE7SetDataEPKhj
2540:__ZN11UnityEngine15CloudWebService10RestClientINS0_23WebRequestRestHeaderMapEE13SetDownloaderERNS0_14RestDownloaderE
2541:__ZN11UnityEngine15CloudWebService10RestClientINS0_23WebRequestRestHeaderMapEE16SetRequestHeaderERKN4core12basic_stringIcNS4_20StringStorageDefaultIcEEEESA_
2542:__ZN11UnityEngine15CloudWebService10RestClientINS0_23WebRequestRestHeaderMapEE16GetRequestHeaderERKN4core12basic_stringIcNS4_20StringStorageDefaultIcEEEE
2543:__ZN11UnityEngine15CloudWebService10RestClientINS0_23WebRequestRestHeaderMapEE17GetResponseHeaderERKN4core12basic_stringIcNS4_20StringStorageDefaultIcEEEE
2544:__ZN11UnityEngine15CloudWebService10RestClientINS0_23WebRequestRestHeaderMapEED2Ev
2545:__Z7ToUpperIN4core12basic_stringIcNS0_20StringStorageDefaultIcEEEEET_RKS5_
2546:__ZN11UnityEngine15CloudWebService20WebRequestRestClient7CleanupEv
2547:__ZN11UnityEngine15CloudWebService20WebRequestRestClient10PerformGetEv
2548:__ZN11UnityEngine15CloudWebService20WebRequestRestClient11PerformPostEv
2549:__ZN11UnityEngine15CloudWebService20WebRequestRestClient6IsDoneEv
2550:__ZN11UnityEngine15CloudWebService20WebRequestRestClient5AbortEv
2551:__ZN11UnityEngine15CloudWebService20WebRequestRestClient17GetResponseStatusEv
2552:__ZN11UnityEngine15CloudWebService20WebRequestRestClient16SetRequestHeaderERKN4core12basic_stringIcNS2_20StringStorageDefaultIcEEEES8_
2553:__ZN11UnityEngine15CloudWebService20WebRequestRestClientD0Ev
2554:__ZN11UnityEngine15CloudWebService20WebRequestRestClient18GetEditableHeadersEv
2555:__ZN11UnityEngine15CloudWebService20WebRequestRestClient18GetResponseHeadersEv
2556:__ZN11UnityEngine15CloudWebService20WebRequestRestClient5BeginEv
2557:__ZNK19ResponseHelperProtoI12StatusHelper12HeaderHelperE13GetHeaderKeysER13dynamic_arrayIN4core12basic_stringIcNS4_20StringStorageDefaultIcEEEELj0EE
2558:__ZN11UnityEngine15CloudWebService20WebRequestRestClient7PrepareEv
2559:__ZN11UnityEngine15CloudWebService25WebRequestDownloadHandlerD2Ev
2560:__ZN11UnityEngine15CloudWebService25WebRequestDownloadHandlerD0Ev
2561:__ZN11UnityEngine15CloudWebService25WebRequestDownloadHandler13OnReceiveDataEPKvj
2562:__ZN11UnityEngine15CloudWebService25WebRequestDownloadHandler22OnReceiveContentLengthEj
2563:__ZN11UnityEngine15CloudWebService25WebRequestDownloadHandler17OnCompleteContentEv
2564:__ZNK11UnityEngine15CloudWebService25WebRequestDownloadHandler11GetProgressEv
2565:__ZN11UnityEngine15CloudWebService25WebRequestDownloadHandler7OnAbortEv
2566:__ZNK15DownloadHandler6IsDoneEv
2567:__ZN11UnityEngine15CloudWebService23WebRequestUploadHandlerD2Ev
2568:__ZN11UnityEngine15CloudWebService23WebRequestUploadHandlerD0Ev
2569:__ZN11UnityEngine15CloudWebService23WebRequestUploadHandler5ResetEv
2570:__ZN11UnityEngine15CloudWebService23WebRequestUploadHandler13TransmitBytesEPvjj
2571:__ZN11UnityEngine15CloudWebService23WebRequestUploadHandler13GetUploadDataERj
2572:__ZN11UnityEngine15CloudWebService23WebRequestUploadHandler17ConsumeUploadDataEj
2573:__ZNK11UnityEngine15CloudWebService23WebRequestUploadHandler15GetNumBytesLeftEv
2574:__ZN11UnityEngine15CloudWebService23WebRequestUploadHandler8GetBytesEv
2575:__ZNK11UnityEngine15CloudWebService23WebRequestUploadHandler11GetProgressEv
2576:__ZN13UploadHandlerD2Ev
2577:__ZNSt3__24listIP19CloudServiceHandler13stl_allocatorIS2_L18MemLabelIdentifier88ELi16EEE6removeERKS2_
2578:__GLOBAL__sub_I_Modules_CloudWebServices_Public_Session_0_cpp
2579:__ZN11UnityEngine15CloudWebService18RestFileDownloaderD2Ev
2580:__ZN11UnityEngine15CloudWebService18RestFileDownloaderD0Ev
2581:__ZN11UnityEngine15CloudWebService18RestFileDownloader13OnReceiveDataEPKvj
2582:__ZN11UnityEngine15CloudWebService18RestFileDownloader22OnReceiveContentLengthEj
2583:__ZN11UnityEngine15CloudWebService18RestFileDownloader17OnCompleteContentEv
2584:__ZN11UnityEngine15CloudWebService18RestFileDownloader7OnAbortEv
2585:__ZN11UnityEngine15CloudWebService14RestDownloader6IsDoneEv
2586:__ZN11UnityEngine15CloudWebService14RestDownloader9IsAbortedEv
2587:__ZN11UnityEngine15CloudWebService14RestDownloader9ClearDoneEv
2588:__ZN11UnityEngine15CloudWebService18RestFileDownloader10InitializeERKN4core12basic_stringIcNS2_20StringStorageDefaultIcEEEE
2589:__ZN11UnityEngine15CloudWebService18RestFileDownloader7OpenVFSEv
2590:__ZN11UnityEngine15CloudWebService26CloudServiceEventWithParamD2Ev
2591:__ZN11UnityEngine15CloudWebService26CloudServiceEventWithParamD0Ev
2592:__ZN11UnityEngine15CloudWebService26CloudServiceEventWithParam12ToJsonStringER9JSONWrite
2593:__ZN5Unity9rapidjson12GenericValueINS0_4UTF8IcEE13JSONAllocatorE9AddMemberENS0_16GenericStringRefIcEERS5_RS4_
2594:__ZN5Unity9rapidjson12GenericValueINS0_4UTF8IcEE13JSONAllocatorE8CopyFromIS4_EERS5_RKNS1_IS3_T_EERS4_
2595:__ZNK5Unity9rapidjson12GenericValueINS0_4UTF8IcEE13JSONAllocatorE6AcceptINS0_15GenericDocumentIS3_S4_NS0_12CrtAllocatorEEEEEbRT_
2596:__ZN5Unity9rapidjson15GenericDocumentINS0_4UTF8IcEE13JSONAllocatorNS0_12CrtAllocatorEE6StringEPKcjb
2597:__Z18RegisterUnityClassI23CloudWebServicesManagerEvPKc
2598:__ZN13ProduceHelperI23CloudWebServicesManagerLb0EE7ProduceE10MemLabelId18ObjectCreationMode
2599:__ZZN23CloudWebServicesManagerC1E10MemLabelId18ObjectCreationModeEN44EarlyUpdateCloudWebServicesUpdateRegistrator7ForwardEv
2600:__ZN23CloudWebServicesManager23PlayerLoopHandlerStaticEv
2601:__ZN19CloudServiceHandler34HandleSaveFileWebRequestPlayerLoopEv
2602:__ZN11UnityEngine15CloudWebService19SessionEventManager17PlayerLoopHandlerEv
2603:__ZN11UnityEngine15CloudWebService14DataDispatcher17PlayerLoopHandlerEv
2604:__ZN11UnityEngine15CloudWebService14DataDispatcher29PreformRetryWebDispatchStaticEPv
2605:__ZN11UnityEngine15CloudWebService14DataDispatcher23PreformRetryWebDispatchEv
2606:__ZN11UnityEngine15CloudWebService19SessionEventManager37OnTimerExpiredPerformArchiveJobStaticEPv
2607:__ZN11UnityEngine15CloudWebService16SessionContainer7ArchiveEv
2608:__ZN11UnityEngine15CloudWebService17WebFileDownloaderINS0_20WebRequestRestClientENS0_23WebRequestRestHeaderMapEE24ExtractResponseEtagValueEv
2609:__Z31RegisterModule_CloudWebServicesv
2610:__ZN19CloudServiceHandlerC2Ev
2611:__ZN11UnityEngine15CloudWebService20WebRequestRestClientC2Ev
2612:__ZN11UnityEngine15CloudWebService14DataDispatcherC2ERNS0_11IRestClientE
2613:__ZN11UnityEngine15CloudWebService16SessionContainerC2Ev
2614:__ZN11UnityEngine15CloudWebService14RestDownloader13OnReceiveDataEPKvj
2615:__ZN11UnityEngine15CloudWebService14RestDownloader17OnCompleteContentEv
2616:__ZN11UnityEngine15CloudWebService14RestDownloader7OnAbortEv
2617:__ZN11UnityEngine15CloudWebService19SessionEventManagerC2Ev
2618:__ZN19CloudServiceHandler10InitializeERKN4core12basic_stringIcNS0_20StringStorageDefaultIcEEEENS_13InitModeFlagsE
2619:__ZN19CloudServiceHandler17InitServiceFolderENS_13InitModeFlagsE
2620:__ZN11UnityEngine15CloudWebService19SessionEventManager10InitializeERKN4core12basic_stringIcNS2_20StringStorageDefaultIcEEEEPNS0_18ICloudJobSchedulerE
2621:__ZN11UnityEngine15CloudWebService14DataDispatcher10InitializeERKN4core12basic_stringIcNS2_20StringStorageDefaultIcEEEEPvjRNS0_18ICloudJobSchedulerE
2622:__ZN19CloudServiceHandler7ReleaseEv
2623:__ZN11UnityEngine15CloudWebService19SessionEventManager5StartERKN4core12basic_stringIcNS2_20StringStorageDefaultIcEEEEii
2624:__ZN11UnityEngine15CloudWebService19SessionEventManager5PauseEb
2625:__ZN11UnityEngine15CloudWebService19SessionEventManager27ProcessFlushEventsJobStaticEPv
2626:__ZN11UnityEngine15CloudWebService19SessionEventManager4StopEv
2627:__ZN11UnityEngine15CloudWebService19SessionEventManager20ArchivePendingEventsEv
2628:__ZN19CloudServiceHandler20StartEventDispatcherERKN11UnityEngine15CloudWebService18CloudServiceConfigERNS1_23WebRequestRestHeaderMapE
2629:__ZN11UnityEngine15CloudWebService18CloudServiceConfigaSERKS1_
2630:__ZN11UnityEngine15CloudWebService14DataDispatcher5StartERKNS0_18CloudServiceConfigE
2631:__ZN11UnityEngine15CloudWebService14DataDispatcher37SetupSessionContainerToDispatchStaticEPv
2632:__ZN11UnityEngine15CloudWebService14DataDispatcher4StopEv
2633:__ZN11UnityEngine15CloudWebService14DataDispatcher22ResetNetworkRetryIndexEv
2634:__ZN19CloudServiceHandler10QueueEventEPN11UnityEngine15CloudWebService14CloudEventInfoE
2635:__ZN11UnityEngine15CloudWebService19SessionEventManager10QueueEventEPNS0_14CloudEventInfoE
2636:__ZN11UnityEngine15CloudWebService19SessionEventManager26ProcessEventQueueJobStaticEPv
2637:__ZN11UnityEngine15CloudWebService19SessionEventManager20ProcessEventQueueJobEPNS0_14CloudEventInfoE
2638:__ZN11UnityEngine15CloudWebService19SessionEventManager31SetupNextActiveSessionContainerEv
2639:__ZN11UnityEngine15CloudWebService16SessionContainer8AddEventEPNS0_14CloudEventInfoE
2640:__ZN19CloudServiceHandler11FlushEventsEv
2641:__ZN11UnityEngine15CloudWebService19SessionEventManager11FlushEventsEv
2642:__ZN19CloudServiceHandler18SaveFileFromServerERKN4core12basic_stringIcNS0_20StringStorageDefaultIcEEEES6_PN11UnityEngine15CloudWebService23WebRequestRestHeaderMapES6_
2643:__ZN11UnityEngine15CloudWebService18RestFileDownloaderC2EPNS0_23IRestDownloaderListenerE
2644:__ZN11UnityEngine15CloudWebService17WebFileDownloaderINS0_20WebRequestRestClientENS0_23WebRequestRestHeaderMapEE10InitializeERKN4core12basic_stringIcNS5_20StringStorageDefaultIcEEEESB_SB_
2645:__ZN11UnityEngine15CloudWebService17WebFileDownloaderINS0_20WebRequestRestClientENS0_23WebRequestRestHeaderMapEED2Ev
2646:__ZN11UnityEngine15CloudWebService17WebFileDownloaderINS0_20WebRequestRestClientENS0_23WebRequestRestHeaderMapEED0Ev
2647:__ZN11UnityEngine15CloudWebService17WebFileDownloaderINS0_20WebRequestRestClientENS0_23WebRequestRestHeaderMapEE10InitializeERKN4core12basic_stringIcNS5_20StringStorageDefaultIcEEEE
2648:__ZN19CloudServiceHandler8SaveFileERKN4core12basic_stringIcNS0_20StringStorageDefaultIcEEEES6_
2649:__ZN19CloudServiceHandler8SaveFileERKN4core12basic_stringIcNS0_20StringStorageDefaultIcEEEEPKvj
2650:__ZN19CloudServiceHandler15RestoreDataFileERKN4core12basic_stringIcNS0_20StringStorageDefaultIcEEEERS4_
2651:__ZN19CloudServiceHandler20RestoreDataFileAsyncERKN4core12basic_stringIcNS0_20StringStorageDefaultIcEEEE
2652:__ZN23CloudWebServicesManager15GetCloudServiceEN19CloudServiceHandler11ServiceTypeE
2653:__ZN11UnityEngine15CloudWebService17CloudServiceEventC2EPKcNS0_15CloudEventFlagsE
2654:__ZN11UnityEngine15CloudWebService26CloudServiceEventWithParamC2EPKcNS0_15CloudEventFlagsE
2655:__GLOBAL__sub_I_artifacts_WebGL_codegenerator_0_cpp
2656:__GLOBAL__sub_I_SpriteRendererJobs_cpp
2657:__GLOBAL__sub_I_Runtime_2D_Sorting_0_cpp
2658:__GLOBAL__sub_I_Runtime_2D_SpriteAtlas_0_cpp
2659:___cxx_global_var_init_2_759
2660:__GLOBAL__sub_I_Runtime_Allocator_1_cpp
2661:__GLOBAL__sub_I_Runtime_Application_0_cpp
2662:__GLOBAL__sub_I_Runtime_BaseClasses_0_cpp
2663:__GLOBAL__sub_I_Runtime_BaseClasses_1_cpp
2664:__GLOBAL__sub_I_Runtime_BaseClasses_2_cpp
2665:__GLOBAL__sub_I_Runtime_BaseClasses_3_cpp
2666:__GLOBAL__sub_I_Runtime_Burst_0_cpp
2667:__GLOBAL__sub_I_Runtime_Camera_0_cpp
2668:__GLOBAL__sub_I_Runtime_Camera_2_cpp
2669:__GLOBAL__sub_I_Runtime_Camera_3_cpp
2670:__GLOBAL__sub_I_Runtime_Camera_5_cpp
2671:__GLOBAL__sub_I_Runtime_Camera_6_cpp
2672:__GLOBAL__sub_I_Runtime_Camera_Culling_0_cpp
2673:___cxx_global_var_init_21
2674:__GLOBAL__sub_I_Runtime_Camera_RenderLayers_0_cpp
2675:__GLOBAL__sub_I_Runtime_Camera_RenderLoops_0_cpp
2676:__GLOBAL__sub_I_Runtime_Camera_RenderLoops_2_cpp
2677:__GLOBAL__sub_I_Runtime_Core_Callbacks_0_cpp
2678:__GLOBAL__sub_I_Runtime_Containers_0_cpp
2679:__GLOBAL__sub_I_Runtime_Director_Core_1_cpp
2680:__GLOBAL__sub_I_Runtime_Geometry_2_cpp
2681:__GLOBAL__sub_I_Runtime_Graphics_0_cpp
2682:__GLOBAL__sub_I_Runtime_Graphics_1_cpp
2683:___cxx_global_var_init_34
2684:__GLOBAL__sub_I_Runtime_Graphics_5_cpp
2685:__GLOBAL__sub_I_Runtime_Graphics_6_cpp
2686:__GLOBAL__sub_I_Runtime_Graphics_8_cpp
2687:__GLOBAL__sub_I_Runtime_Graphics_9_cpp
2688:__GLOBAL__sub_I_Runtime_Graphics_10_cpp
2689:__GLOBAL__sub_I_Runtime_Graphics_11_cpp
2690:__GLOBAL__sub_I_Runtime_Graphics_Billboard_0_cpp
2691:__GLOBAL__sub_I_Runtime_Graphics_LOD_0_cpp
2692:__GLOBAL__sub_I_Runtime_Graphics_Mesh_0_cpp
2693:__GLOBAL__sub_I_Runtime_Graphics_Mesh_1_cpp
2694:__GLOBAL__sub_I_Runtime_Graphics_Mesh_3_cpp
2695:__GLOBAL__sub_I_Runtime_Graphics_ScriptableRenderLoop_0_cpp
2696:__GLOBAL__sub_I_Runtime_Input_0_cpp
2697:__GLOBAL__sub_I_Runtime_Interfaces_0_cpp
2698:__GLOBAL__sub_I_Runtime_Interfaces_1_cpp
2699:__GLOBAL__sub_I_Runtime_Interfaces_2_cpp
2700:__GLOBAL__sub_I_Runtime_Jobs_0_cpp
2701:__GLOBAL__sub_I_Runtime_Jobs_ScriptBindings_0_cpp
2702:__GLOBAL__sub_I_Runtime_Logging_0_cpp
2703:__GLOBAL__sub_I_Runtime_Math_2_cpp
2704:__GLOBAL__sub_I_Runtime_Math_Random_0_cpp
2705:__GLOBAL__sub_I_Runtime_Misc_0_cpp
2706:__GLOBAL__sub_I_Runtime_Misc_2_cpp
2707:___cxx_global_var_init_124
2708:__GLOBAL__sub_I_Runtime_Misc_4_cpp
2709:__GLOBAL__sub_I_Runtime_Misc_5_cpp
2710:__GLOBAL__sub_I_Runtime_PreloadManager_0_cpp
2711:__GLOBAL__sub_I_Runtime_SceneManager_0_cpp
2712:__GLOBAL__sub_I_Runtime_Shaders_0_cpp
2713:__GLOBAL__sub_I_Runtime_Shaders_1_cpp
2714:__GLOBAL__sub_I_Runtime_Shaders_ShaderImpl_0_cpp
2715:__GLOBAL__sub_I_Runtime_Shaders_ShaderImpl_1_cpp
2716:__GLOBAL__sub_I_Runtime_Transform_0_cpp
2717:__GLOBAL__sub_I_Runtime_Transform_1_cpp
2718:__GLOBAL__sub_I_Runtime_Utilities_2_cpp
2719:__GLOBAL__sub_I_Runtime_Utilities_4_cpp
2720:__GLOBAL__sub_I_Runtime_Utilities_5_cpp
2721:__GLOBAL__sub_I_Runtime_Utilities_6_cpp
2722:__GLOBAL__sub_I_Runtime_Utilities_8_cpp
2723:__GLOBAL__sub_I_Runtime_VirtualFileSystem_0_cpp
2724:__GLOBAL__sub_I_AssetBundleFileSystem_cpp
2725:__GLOBAL__sub_I_Runtime_Modules_0_cpp
2726:__GLOBAL__sub_I_Modules_Profiler_Public_0_cpp
2727:__GLOBAL__sub_I_Modules_Profiler_Runtime_0_cpp
2728:__GLOBAL__sub_I_Runtime_GfxDevice_0_cpp
2729:__GLOBAL__sub_I_Runtime_GfxDevice_1_cpp
2730:__GLOBAL__sub_I_Runtime_GfxDevice_2_cpp
2731:__GLOBAL__sub_I_Runtime_GfxDevice_3_cpp
2732:__GLOBAL__sub_I_Runtime_PluginInterface_0_cpp
2733:__GLOBAL__sub_I_Runtime_ScriptingBackend_Il2Cpp_0_cpp
2734:__GLOBAL__sub_I_Runtime_Scripting_0_cpp
2735:__GLOBAL__sub_I_Runtime_Scripting_3_cpp
2736:__GLOBAL__sub_I_Runtime_Mono_SerializationBackend_DirectMemoryAccess_0_cpp
2737:__GLOBAL__sub_I_Runtime_Mono_SerializationBackend_DirectMemoryAccess_1_cpp
2738:__GLOBAL__sub_I_Runtime_Serialize_TransferFunctions_0_cpp
2739:__GLOBAL__sub_I_Runtime_Serialize_TransferFunctions_1_cpp
2740:__GLOBAL__sub_I_PlatformDependent_WebGL_Source_0_cpp
2741:__GLOBAL__sub_I_Shader_cpp
2742:__GLOBAL__sub_I_Transform_cpp
2743:__GLOBAL__sub_I_SparseTextureGLES_cpp
2744:__GLOBAL__sub_I_TransformFeedbackSkinning_cpp
2745:__ZN13RuntimeStaticINSt3__23mapIy8TFShaderNS0_4lessIyEENS0_9allocatorINS0_4pairIKyS2_EEEEEELb0EE13StaticDestroyEPv
2746:__Z15strcpy_truncatePcPKcjj
2747:__ZN13RuntimeStaticINSt3__28multimapIj25DeferredSkinningOperationNS0_4lessIjEENS0_9allocatorINS0_4pairIKjS2_EEEEEELb0EE13StaticDestroyEPv
2748:__ZNSt3__26__treeINS_12__value_typeIj25DeferredSkinningOperationEENS_19__map_value_compareIjS3_NS_4lessIjEELb1EEENS_9allocatorIS3_EEE7destroyEPNS_11__tree_nodeIS3_PvEE
2749:__Z19free_alloc_internalPv10MemLabelId
2750:__ZN13MemoryManagerC2Ev
2751:__ZN13MemoryManager10DeallocateEPv10MemLabelId
2752:__ZN13MemoryManager25GetAllocatorContainingPtrEPKv
2753:__ZN12TLSAllocatorI14StackAllocatorE13TryDeallocateEPv
2754:__ZN14StackAllocator13TryDeallocateEPv
2755:__Z16GetMemoryManagerv
2756:__ZN13MemoryManager12GetAllocatorE10MemLabelId
2757:__ZN13BaseAllocatorC2EPKc
2758:__ZN20DynamicHeapAllocatorI17LowLevelAllocatorED2Ev
2759:__ZN20DynamicHeapAllocatorI17LowLevelAllocatorED0Ev
2760:__ZN20DynamicHeapAllocatorI17LowLevelAllocatorE8AllocateEji
2761:__ZN20DynamicHeapAllocatorI17LowLevelAllocatorE10ReallocateEPvji
2762:__ZN20DynamicHeapAllocatorI17LowLevelAllocatorE10DeallocateEPv
2763:__ZN20DynamicHeapAllocatorI17LowLevelAllocatorE13TryDeallocateEPv
2764:__ZNK20DynamicHeapAllocatorI17LowLevelAllocatorE8ContainsEPKv
2765:__ZNK20DynamicHeapAllocatorI17LowLevelAllocatorE10GetPtrSizeEPKv
2766:__ZN20DynamicHeapAllocatorI17LowLevelAllocatorE14CheckIntegrityEv
2767:__ZNK13BaseAllocator21GetReservedMemorySizeEv
2768:__ZNK13BaseAllocator26GetPeakAllocatedMemorySizeEv
2769:__Z22ValidateTlsfAllocationPvjiS_
2770:_tlsf_walk_heap
2771:_default_walker
2772:_tlsf_free
2773:__ZN17LowLevelAllocator4FreeEPvj
2774:__ZN13MemoryManager12LowLevelFreeEPvj
2775:_tlsf_realloc_align
2776:_tlsf_memalign
2777:_block_trim_used
2778:_block_locate_free
2779:_block_prepare_used
2780:__Z6FormatPKcz
2781:__Z17DebugStringToFileRK21DebugStringToFileData
2782:__ZN17LowLevelAllocator6MallocEj
2783:_tlsf_create
2784:_printf_console
2785:__Z15printf_consolev7LogTypePKcPi
2786:__ZN13MemoryManager16LowLevelAllocateEj
2787:__Z40DebugStringToFilePostprocessedStacktraceRK21DebugStringToFileData
2788:__Z13GetStacktracei
2789:__ZN14CallbackArray3IRK21DebugStringToFileData7LogTypebE6InvokeES2_S3_b
2790:__ZL20InternalErrorConsolePKcz
2791:__ZL21InternalAssertConsolePKcz
2792:__ZL22InternalWarningConsolePKcz
2793:__ZL18InternalLogConsolePKcz
2794:__ZN13BaseAllocator13TryDeallocateEPv
2795:__ZdlPv
2796:__Z15malloc_internaljj10MemLabelId15AllocateOptionsPKci
2797:__ZN13MemoryManager8AllocateEjj10MemLabelId15AllocateOptionsPKci
2798:__ZN12TLSAllocatorI14StackAllocatorE8AllocateEji
2799:__ZL16OutOfMemoryErrorjj10MemLabelIdiPKc
2800:__Z12FormatBufferPciPKcz
2801:__ZN14StackAllocator8AllocateEji
2802:__ZN35RegisterRuntimeInitializeAndCleanupC2EPFvPvES2_iS0_
2803:__ZNSt3__26__treeINS_12__value_typeIy8TFShaderEENS_19__map_value_compareIyS3_NS_4lessIyEELb1EEENS_9allocatorIS3_EEE7destroyEPNS_11__tree_nodeIS3_PvEE
2804:__ZN13RuntimeStaticINSt3__23mapI9TextureID21SparseTextureInfoGLESNS0_4lessIS2_EENS0_9allocatorINS0_4pairIKS2_S3_EEEEEELb0EE13StaticDestroyEPv
2805:__ZNSt3__26__treeINS_12__value_typeI9TextureID21SparseTextureInfoGLESEENS_19__map_value_compareIS2_S4_NS_4lessIS2_EELb1EEENS_9allocatorIS4_EEE7destroyEPNS_11__tree_nodeIS4_PvEE
2806:__ZN17MessageIdentifierC2EPKcNS_7OptionsEPKN5Unity4TypeES1_
2807:__ZL17InitializeMessagePv
2808:__Z16realloc_internalPvjj10MemLabelId15AllocateOptionsPKci
2809:__ZN13MemoryManager10ReallocateEPvjj10MemLabelId15AllocateOptionsPKci
2810:__ZN12TLSAllocatorI14StackAllocatorE10ReallocateEPvji
2811:__ZN14StackAllocator10ReallocateEPvji
2812:__ZL19StaticDestroyShaderPv
2813:__ZN4core20StringStorageDefaultIcED2Ev
2814:__ZN12_GLOBAL__N_116StaticInitializeEPv
2815:__ZN12_GLOBAL__N_113StaticDestroyEPv
2816:__ZN21SystemInfoStringCache16StaticInitializeEPv
2817:__ZN21SystemInfoStringCache13StaticDestroyEPv
2818:__Znwj10MemLabelIdjPKci
2819:__ZNSt3__26__treeINS_12__value_typeIN4core12basic_stringIcNS2_20StringStorageDefaultIcEEEE9PrefValueEENS_19__map_value_compareIS6_S8_NS_4lessIS6_EELb1EEENS_9allocatorIS8_EEE7destroyEPNS_11__tree_nodeIS8_PvEE
2820:__Znwj
2821:__ZL30InitializeGlobalNameConversionPv
2822:__ZL27CleanupGlobalNameConversionPv
2823:__ZNSt3__26__treeINS_12__value_typeINS_4pairIPcS3_EENS_3setIS3_15compare_tstringIPKcENS_9allocatorIS3_EEEEEENS_19__map_value_compareIS4_SD_20smaller_tstring_pairIS8_ELb1EEENSA_ISD_EEE7destroyEPNS_11__tree_nodeISD_PvEE
2824:__ZNSt3__26__treeIPc15compare_tstringIPKcENS_9allocatorIS1_EEE7destroyEPNS_11__tree_nodeIS1_PvEE
2825:__ZN13RuntimeStaticINSt3__23mapINS0_4pairIPcS3_EEPFbPvR14SafeBinaryReadE20smaller_tstring_pairIPKcENS0_9allocatorINS2_IKS4_S9_EEEEEELb0EE13StaticDestroyES5_
2826:__ZNSt3__26__treeINS_12__value_typeINS_4pairIPcS3_EEPFbPvR14SafeBinaryReadEEENS_19__map_value_compareIS4_SA_20smaller_tstring_pairIPKcELb1EEENS_9allocatorISA_EEE7destroyEPNS_11__tree_nodeISA_S5_EE
2827:__Z50CreateTransferFunctionScriptingTraitsCacheInternalPv
2828:__Z49ClearTransferFunctionScriptingTraitsCacheInternalPv
2829:__Z41ClearTransferFunctionScriptingTraitsCachev
2830:__ZN13RuntimeStaticINSt3__23setIPFv17ScriptingClassPtrR23CachedSerializationDataRbENS0_4lessIS7_EENS0_9allocatorIS7_EEEELb0EE13StaticDestroyEPv
2831:__ZNSt3__26__treeIPFv17ScriptingClassPtrR23CachedSerializationDataRbENS_4lessIS6_EENS_9allocatorIS6_EEE7destroyEPNS_11__tree_nodeIS6_PvEE
2832:__ZL45StaticInitScriptingManagedObjectProxyRegistryPv
2833:__ZL48StaticDestroyScriptingManagedObjectProxyRegistryPv
2834:__ZN19ThreadSpecificValueIP13MonoBehaviourE15ReinitializeTLSEPv
2835:__ZN13RuntimeStaticINSt3__23mapIN4core12basic_stringIcNS2_20StringStorageDefaultIcEEEEPvNS0_4lessIS6_EENS0_9allocatorINS0_4pairIKS6_S7_EEEEEELb0EE13StaticDestroyES7_
2836:__ZN9profiling6MarkerC2EtPKcNS0_5FlagsE
2837:__ZN9profiling15ProfilerManager14RegisterMarkerEPNS_6MarkerEbb
2838:__ZN4core8hash_mapINS_12basic_stringIcNS_20StringStorageDefaultIcEEEEPN9profiling6MarkerENS_4hashIS4_EENSt3__28equal_toIS4_EEE6insertERKS4_RKS7_
2839:__ZN19dynamic_block_arrayIN9profiling15ProfilerManager13MarkerStorageELj1024EE9push_backERKS2_
2840:__ZN19dynamic_block_arrayIN9profiling15ProfilerManager13MarkerStorageELj1024EE4growEj
2841:__ZN4core8hash_setINS_4pairIKNS_12basic_stringIcNS_20StringStorageDefaultIcEEEEPN9profiling6MarkerELb1EEENS_9hash_pairINS_4hashIS5_EES6_S9_EENS_10equal_pairINSt3__28equal_toIS5_EES6_S9_EEE4growEi
2842:_XXH32
2843:__ZNSt3__26__treeINS_12__value_typeIN4core12basic_stringIcNS2_20StringStorageDefaultIcEEEEPvEENS_19__map_value_compareIS6_S8_NS_4lessIS6_EELb1EEENS_9allocatorIS8_EEE7destroyEPNS_11__tree_nodeIS8_S7_EE
2844:__ZL24ClearRegisteredCallbacksPv
2845:__ZL32StaticInitializeIUnityInterfacesPv
2846:__ZL29StaticCleanupIUnityInterfacesPv
2847:__ZL30StaticInitializeIUnityGraphicsPv
2848:__ZL30StaticInitializeIUnityProfilerPv
2849:__ZL27StaticCleanupIUnityProfilerPv
2850:__ZN13RuntimeStaticI13dynamic_arrayI22RenderingExtPluginDescLj0EELb0EE16StaticInitializeEPv
2851:__ZN13RuntimeStaticI13dynamic_arrayI22RenderingExtPluginDescLj0EELb0EE13StaticDestroyEPv
2852:__ZN13RuntimeStaticI37UnityShaderCompilerExtPluginConfigureLb0EE16StaticInitializeEPv
2853:__ZN37UnityShaderCompilerExtPluginConfigure14ReserveKeywordEPKc
2854:__ZN37UnityShaderCompilerExtPluginConfigure25SetGPUProgramCompilerMaskEj
2855:__ZN37UnityShaderCompilerExtPluginConfigure20SetShaderProgramMaskEj
2856:__ZN8keywords6CreateEPKc
2857:__Z6StrCmpPKcS0_
2858:__Z27LogRepeatingStringWithFlagsRKN4core12basic_stringIcNS_20StringStorageDefaultIcEEEE15LogMessageFlagsi
2859:__ZNSt3__26__treeINS_12__value_typeIPKciEENS_19__map_value_compareIS3_S4_15compare_tstringIS3_ELb1EEENS_9allocatorIS4_EEE21__emplace_unique_implIJNS_4pairIPciEEEEENSD_INS_15__tree_iteratorIS4_PNS_11__tree_nodeIS4_PvEEiEEbEEDpOT_
2860:__ZNSt3__26__treeI19RepeatingLogMessageNS_4lessIS1_EE13stl_allocatorIS1_L18MemLabelIdentifier74ELi16EEE4findIS1_EENS_15__tree_iteratorIS1_PNS_11__tree_nodeIS1_PvEEiEERKT_
2861:__ZNSt3__26__treeI19RepeatingLogMessageNS_4lessIS1_EE13stl_allocatorIS1_L18MemLabelIdentifier74ELi16EEE25__emplace_unique_key_argsIS1_JRKS1_EEENS_4pairINS_15__tree_iteratorIS1_PNS_11__tree_nodeIS1_PvEEiEEbEERKT_DpOT0_
2862:__ZNSt3__26__treeI19RepeatingLogMessageNS_4lessIS1_EE13stl_allocatorIS1_L18MemLabelIdentifier74ELi16EEE12__find_equalIS1_EERPNS_16__tree_node_baseIPvEERPNS_15__tree_end_nodeISC_EERKT_
2863:__ZN24ProfilerCallbacksHandlerD2Ev
2864:__ZN24ProfilerCallbacksHandler22CreateCategoryCallbackEtPv
2865:__ZN9profiling15ProfilerManager29UnregisterNewCategoryCallbackEPFvtPvES1_
2866:__ZN24ProfilerCallbacksHandler19CreateEventCallbackEPN9profiling6MarkerEPv
2867:__ZN9profiling15ProfilerManager27UnregisterNewMarkerCallbackEPFvPNS_6MarkerEPvES3_
2868:__ZN9profiling15ProfilerManager24UnregisterMarkerCallbackEPNS_6Marker8CallbackEPS1_
2869:__ZN24ProfilerCallbacksHandlerC2E10MemLabelId
2870:__Z34RegisterCreateCategoryCallbackImplPFvPK25UnityProfilerCategoryDescPvES2_
2871:__Z36UnregisterCreateCategoryCallbackImplPFvPK25UnityProfilerCategoryDescPvES2_
2872:__Z31RegisterCreateEventCallbackImplPFvPK23UnityProfilerMarkerDescPvES2_
2873:__Z33UnregisterCreateEventCallbackImplPFvPK23UnityProfilerMarkerDescPvES2_
2874:__Z25RegisterEventCallbackImplPK23UnityProfilerMarkerDescPFvS1_ttPK23UnityProfilerMarkerDataPvES5_
2875:__Z27UnregisterEventCallbackImplPK23UnityProfilerMarkerDescPFvS1_ttPK23UnityProfilerMarkerDataPvES5_
2876:__Z25RegisterFrameCallbackImplPFvPvES_
2877:__Z27UnregisterFrameCallbackImplPFvPvES_
2878:__Z32RegisterCreateThreadCallbackImplPFvPK23UnityProfilerThreadDescPvES2_
2879:__ZN9profiling15ProfilerManager26UnregisterNewFrameCallbackEPFvPvES1_
2880:__ZN9profiling15ProfilerManager24RegisterNewFrameCallbackEPFvPvES1_
2881:__ZN24ProfilerCallbacksHandler23UnregisterEventCallbackEPK23UnityProfilerMarkerDescPFvS2_ttPK23UnityProfilerMarkerDataPvES6_
2882:__ZN24ProfilerCallbacksHandler28RemoveCallbackFromAllMarkersEPFvPK23UnityProfilerMarkerDescttPK23UnityProfilerMarkerDataPvES6_R13dynamic_arrayINS_17EventCallbackDataELj0EE
2883:__ZN13dynamic_arrayIN24ProfilerCallbacksHandler17EventCallbackDataELj0EE12emplace_backERKS1_
2884:__ZN24ProfilerCallbacksHandler27RegisterCreateEventCallbackEPFvPK23UnityProfilerMarkerDescPvES3_
2885:__ZN9profiling15ProfilerManager25RegisterNewMarkerCallbackEPFvPNS_6MarkerEPvES3_
2886:__ZN24ProfilerCallbacksHandler30RegisterCreateCategoryCallbackEPFvPK25UnityProfilerCategoryDescPvES3_
2887:__ZN9profiling15ProfilerManager27RegisterNewCategoryCallbackEPFvtPvES1_
2888:__ZN24ProfilerCallbacksHandler13FrameCallbackEPv
2889:__ZL15GetRendererImplv
2890:__Z31RegisterDeviceEventCallbackImplPFv23UnityGfxDeviceEventTypeE
2891:__Z33UnregisterDeviceEventCallbackImplPFv23UnityGfxDeviceEventTypeE
2892:__ZL23ReserveEventIDRangeImpli
2893:__ZNSt3__26__treeINS_12__value_typeI18UnityInterfaceGUIDP15IUnityInterfaceEENS_19__map_value_compareIS2_S5_NS_4lessIS2_EELb1EEE13stl_allocatorIS5_L18MemLabelIdentifier7ELi16EEE7destroyEPNS_11__tree_nodeIS5_PvEE
2894:__ZL16GetInterfaceImpl18UnityInterfaceGUID
2895:__ZL21GetInterfaceSplitImplyy
2896:__ZL21RegisterInterfaceImpl18UnityInterfaceGUIDP15IUnityInterface
2897:__ZL26RegisterInterfaceSplitImplyyP15IUnityInterface
2898:__ZNSt3__26__treeINS_12__value_typeI18UnityInterfaceGUIDP15IUnityInterfaceEENS_19__map_value_compareIS2_S5_NS_4lessIS2_EELb1EEE13stl_allocatorIS5_L18MemLabelIdentifier7ELi16EEE25__emplace_unique_key_argsIS2_JNS_4pairIS2_S4_EEEEENSF_INS_15__tree_iteratorIS5_PNS_11__tree_nodeIS5_PvEEiEEbEERKT_DpOT0_
2899:__ZL25CleanupTextureIDGeneratorPv
2900:__ZN33InstancedMeshIntermediateRenderer16StaticInitializeEPv
2901:__ZN33InstancedMeshIntermediateRenderer13StaticDestroyEPv
2902:__ZN32IndirectMeshIntermediateRenderer16StaticInitializeEPv
2903:__ZN32IndirectMeshIntermediateRenderer13StaticDestroyEPv
2904:__ZN10MemoryPoolD2Ev
2905:__ZN10MemoryPoolC2E10MemLabelIdbPKciii
2906:__ZN13HandleManager12ClearHandlesEv
2907:__ZN13HandleManagerC2Ev
2908:__ZN9ShaderLab16FastPropertyName4InitEPKc
2909:__Z20IsVectorBuiltinParamPKcPi
2910:__Z20IsMatrixBuiltinParamPKcPi
2911:__Z20IsTexEnvBuiltinParamPKcPi
2912:__ZNSt3__26__treeINS_12__value_typeIPKciEENS_19__map_value_compareIS3_S4_N9ShaderLab14CStringCompareELb1EEENS_9allocatorIS4_EEE21__emplace_unique_implIJNS_4pairIPciEEEEENSD_INS_15__tree_iteratorIS4_PNS_11__tree_nodeIS4_PvEEiEEbEEDpOT_
2913:__ZN10InstancingL16RegisterCallbackEPv
2914:__ZN10InstancingL18UnregisterCallbackEPv
2915:__ZN10InstancingL21OnGraphicsCapsChangedEv
2916:__Z15GetGraphicsCapsv
2917:__ZN13RuntimeStaticI21ScalableBufferManagerLb0EE13StaticDestroyEPv
2918:__Z19CleanupTextureIdMapPv
2919:__ZNSt3__26__treeIP17RenderSurfaceBaseNS_4lessIS2_EENS_9allocatorIS2_EEE7destroyEPNS_11__tree_nodeIS2_PvEE
2920:__ZN13RuntimeStaticI13ModuleManagerLb0EE13StaticDestroyEPv
2921:__ZN12_GLOBAL__N_138ArchiveRedirectFileSystemStaticDestroyEPv
2922:__ZN13RuntimeStaticINSt3__26vectorIN4core12basic_stringIcNS2_20StringStorageDefaultIcEEEENS0_9allocatorIS6_EEEELb0EE13StaticDestroyEPv
2923:__ZN13RuntimeStaticINSt3__23setI19RepeatingLogMessageNS0_4lessIS2_EE13stl_allocatorIS2_L18MemLabelIdentifier74ELi16EEEELb0EE13StaticDestroyEPv
2924:__ZN13RuntimeStaticI14CallbackArray1IbELb0EE16StaticInitializeEPv
2925:__ZN13RuntimeStaticI14CallbackArray1IbELb0EE13StaticDestroyEPv
2926:__ZNSt3__26__treeI19RepeatingLogMessageNS_4lessIS1_EE13stl_allocatorIS1_L18MemLabelIdentifier74ELi16EEE7destroyEPNS_11__tree_nodeIS1_PvEE
2927:__ZN12UnityVersionC2EPKc
2928:__ZN10MemoryPool16StaticInitializeEPv
2929:__ZN10MemoryPool13StaticDestroyEPv
2930:__Z15InitializeCRC32Pv
2931:__ZN13crc32_table_tILj79764919EE10init_tableEv
2932:__ZN9reflectorILj32EE7reflectEj
2933:__ZN13RuntimeStaticINSt3__28multimapIi25TransformAccessArrayEntryNS0_4lessIiEENS0_9allocatorINS0_4pairIKiS2_EEEEEELb0EE13StaticDestroyEPv
2934:__ZL36TransformAccessArray_InitializeClassPv
2935:__ZL33TransformAccessArray_CleanupClassPv
2936:__ZN32TransformHierarchyChangeDispatch15InitializeClassEPv
2937:__ZN32TransformHierarchyChangeDispatch12CleanupClassEPv
2938:__ZL29TransformAccessChangeCallbackPK15TransformAccessj
2939:__ZN32TransformHierarchyChangeDispatch14RegisterSystemENS_12InterestTypeEPFvPK15TransformAccessjE
2940:__ZL30TransformAccessDestroyCallbackPK15TransformAccessj
2941:__ZL20PatchTransformAccessiRK15TransformAccessb
2942:__ZNSt3__26__treeINS_12__value_typeIi25TransformAccessArrayEntryEENS_19__map_value_compareIiS3_NS_4lessIiEELb1EEENS_9allocatorIS3_EEE7destroyEPNS_11__tree_nodeIS3_PvEE
2943:__ZN23TransformChangeDispatch15InitializeClassEPv
2944:__ZN23TransformChangeDispatch12CleanupClassEPv
2945:__ZN13RuntimeStaticIN4core12basic_stringIcNS0_20StringStorageDefaultIcEEEELb0EE16StaticInitializeEPv
2946:__ZN13RuntimeStaticIN4core12basic_stringIcNS0_20StringStorageDefaultIcEEEELb0EE13StaticDestroyEPv
2947:__ZN9ShaderLabL25StaticInitializeShaderLabEPv
2948:__ZN9ShaderLabL22StaticDestroyShaderLabEPv
2949:__ZNSt3__25stackIPN9ShaderLab21SerializedShaderStateENS_5dequeIS3_NS_9allocatorIS3_EEEEED2Ev
2950:__ZN8keywords7CleanupEv
2951:__ZN9shadertag7CleanupEv
2952:__ZNSt3__26__treeINS_12__value_typeIPKc11ShaderTagIDEENS_19__map_value_compareIS3_S5_27compare_tstring_insensitiveIS3_ELb1EEENS_9allocatorIS5_EEE7destroyEPNS_11__tree_nodeIS5_PvEE
2953:__ZNSt3__26__treeINS_12__value_typeIPKciEENS_19__map_value_compareIS3_S4_15compare_tstringIS3_ELb1EEENS_9allocatorIS4_EEE7destroyEPNS_11__tree_nodeIS4_PvEE
2954:__ZN8keywords10InitializeEv
2955:__ZN9shadertag10InitializeEv
2956:__ZN9shadertag14GetShaderTagIDERKN4core12basic_stringIcNS0_20StringStorageDefaultIcEEEE
2957:__Z7StrICmpPKcS0_
2958:__ZNSt3__26__treeINS_12__value_typeIPKc11ShaderTagIDEENS_19__map_value_compareIS3_S5_27compare_tstring_insensitiveIS3_ELb1EEENS_9allocatorIS5_EEE21__emplace_unique_implIJNS_4pairIPcS4_EEEEENSE_INS_15__tree_iteratorIS5_PNS_11__tree_nodeIS5_PvEEiEEbEEDpOT_
2959:__ZN9ShaderLab19CommonPropertyNames16StaticInitializeEPv
2960:__ZN9ShaderLab19CommonPropertyNames13StaticCleanupEPv
2961:__ZNSt3__26__treeINS_12__value_typeIPKciEENS_19__map_value_compareIS3_S4_N9ShaderLab14CStringCompareELb1EEENS_9allocatorIS4_EEE7destroyEPNS_11__tree_nodeIS4_PvEE
2962:__Z30CleanupBuiltinShaderParamNamesv
2963:__Z33InitializeBuiltinShaderParamNamesv
2964:__ZN12_GLOBAL__N_115ParamNameLookup15AddBuiltinNamesEPPKcjb
2965:__ZN13dynamic_arrayIN12_GLOBAL__N_114ParamNameIndexELj0EE9push_backERKS1_
2966:__ZNSt3__26__sortIRNS_6__lessIN12_GLOBAL__N_114ParamNameIndexES3_EEPS3_EEvT0_S7_T_
2967:__ZNSt3__27__sort3IRNS_6__lessIN12_GLOBAL__N_114ParamNameIndexES3_EEPS3_EEjT0_S7_S7_T_
2968:__ZNSt3__27__sort4IRNS_6__lessIN12_GLOBAL__N_114ParamNameIndexES3_EEPS3_EEjT0_S7_S7_S7_T_
2969:__ZNSt3__27__sort5IRNS_6__lessIN12_GLOBAL__N_114ParamNameIndexES3_EEPS3_EEjT0_S7_S7_S7_S7_T_
2970:__ZNSt3__227__insertion_sort_incompleteIRNS_6__lessIN12_GLOBAL__N_114ParamNameIndexES3_EEPS3_EEbT0_S7_T_
2971:__ZN23DefaultMeshVertexFormatC2E17ShaderChannelMask
2972:__ZL22InitializeGlobalCBKeysPv
2973:__ZN13RuntimeStaticI12GraphicsCapsLb0EE16StaticInitializeEPv
2974:__ZN13RuntimeStaticI12GraphicsCapsLb0EE13StaticDestroyEPv
2975:__ZN12GraphicsCapsD2Ev
2976:__ZN12GraphicsCapsC2Ev
2977:__ZL35StaticInitializeRuntimeSceneManagerPv
2978:__ZL32StaticDestroyRuntimeSceneManagerPv
2979:__ZN19RuntimeSceneManagerC2E10MemLabelId
2980:__ZN10UnityScene14SetPathAndGUIDERKN4core12basic_stringIcNS0_20StringStorageDefaultIcEEEERK9UnityGUID
2981:__ZL32MarkLevelGameManagerDependenciesR27GarbageCollectorThreadState
2982:__ZL16SceneWasUnloadedi
2983:__ZL18ActiveSceneChangedP10UnitySceneS0_
2984:__Z23GetCoreScriptingClassesv
2985:__ZN18ScriptingArguments9AddStructEPKv
2986:__ZN19ScriptingInvocation6InvokeEP21ScriptingExceptionPtrb
2987:__Z23scripting_method_invoke18ScriptingMethodPtr18ScriptingObjectPtrR18ScriptingArgumentsP21ScriptingExceptionPtrb
2988:__ZN9Scripting12LogExceptionE21ScriptingExceptionPtriPKcb
2989:__Z30scripting_stack_trace_info_for21ScriptingExceptionPtrR14StackTraceInfo
2990:__ZN18ScriptingArguments9AddObjectE18ScriptingObjectPtr
2991:__ZN18ScriptingArguments12AddOutObjectEP18ScriptingObjectPtr
2992:__Z24scripting_cpp_string_for18ScriptingStringPtr
2993:__Z21PostprocessStacktracePKcRN4core12basic_stringIcNS1_20StringStorageDefaultIcEEEE
2994:__ZN18ScriptingArguments9AddStringEPKc
2995:__ZN18ScriptingArguments10AddBooleanEb
2996:__ZN19ScriptingInvocation6InvokeI18ScriptingStringPtrEET_P21ScriptingExceptionPtrb
2997:__Z20scripting_string_newPKc
2998:__Z18ConvertUTF16toUTF8PKtiPhRi
2999:__Z18ConvertUTF16toUTF8PPKtS0_PPhS2_15ConversionFlags
3000:__ZN19ScriptingInvocationC2E18ScriptingMethodPtr
3001:__ZN18ScriptingArgumentsC2Ev
3002:__ZL30InitializeCoreScriptingClassesv
3003:__ZL27CleanupCoreScriptingClassesv
3004:__Z27SetupModuleScriptingClassesPFvvES0_
3005:__Z12OptionalTypePKcS0_S0_
3006:__Z11RequireTypePKcS0_S0_
3007:__Z13RequireMethodPKcS0_S0_S0_
3008:__Z14OptionalMethodPKcS0_S0_S0_
3009:__ZN9Scripting9GetMethodE17ScriptingClassPtrPKc
3010:__Z36scripting_class_get_method_from_name17ScriptingClassPtrPKci
3011:__Z43scripting_class_get_method_from_name_filter17ScriptingClassPtrPKciN24ScriptingMethodFiltering18MethodSearchFilterEPK16ScriptingTypePtr
3012:__ZN24ScriptingMethodFiltering36MethodDescriptionMatchesSearchFilterENS_18MethodSearchFilterEbi
3013:__Z29scripting_class_from_fullnamePKcS0_S0_
3014:__Z32scripting_class_get_nested_types17ScriptingClassPtrRNSt3__26vectorIS_13stl_allocatorIS_L18MemLabelIdentifier1ELi16EEEE
3015:__Z24scripting_class_get_name17ScriptingClassPtr
3016:__Z14GetMonoManagerv
3017:__ZN11MonoManager17GetScriptingClassEPKcS1_S1_
3018:__ZNK4core8hash_setINS_4pairIKNS_12basic_stringIcNS_20StringStorageDefaultIcEEEEiLb1EEENS_9hash_pairINS_4hashIS5_EES6_iEENS_10equal_pairINSt3__28equal_toIS5_EES6_iEEE6lookupIS5_EEPNSH_4nodeERKT_
3019:__Z21GetManagerFromContexti
3020:__Z20MarkInstanceIDAsRootiR27GarbageCollectorThreadState
3021:__Z24GetLastPathNameComponentRKN4core12basic_stringIcNS_20StringStorageDefaultIcEEEE
3022:__Z23DeletePathNameExtensionRKN4core12basic_stringIcNS_20StringStorageDefaultIcEEEE
3023:__ZN19RuntimeSceneManagerD2Ev
3024:__ZN19RuntimeSceneManagerD0Ev
3025:__ZN19RuntimeSceneManager8GetSceneEi
3026:__ZN19RuntimeSceneManager11MergeScenesER10UnitySceneS1_
3027:__ZN19RuntimeSceneManager14CanUnloadSceneEP10UnityScene
3028:__ZN19RuntimeSceneManager19UnloadSceneInternalEP10UnityScene
3029:__ZNK27SharedObjectDeleteReleaseOpI10UnitySceneEclEPS0_10MemLabelId
3030:__ZN19RuntimeSceneManager14SetActiveSceneER10UnityScene
3031:__Z22DestroyObjectHighLevelP6Objectb
3032:__Z31ReadObjectFromPersistentManageri
3033:__ZN17PersistentManager10ReadObjectEi17AwakeFromLoadMode
3034:__ZN17PersistentManager37RegisterPartiallyLoadedObjectInternalEi
3035:__ZN17PersistentManager18ReadObjectThreadedEiNS_9LockFlagsE
3036:__ZN17PersistentManager32LoadRemainingPreallocatedObjectsENS_9LockFlagsE
3037:__ZN17PersistentManager27IntegrateAllThreadedObjectsEv
3038:__ZN17PersistentManager32CopyToAwakeFromLoadQueueInternalER18AwakeFromLoadQueue
3039:__ZN18AwakeFromLoadQueue25RegisterObjectInstanceIDsEv
3040:__ZN18AwakeFromLoadQueue30PersistentManagerAwakeFromLoadEv
3041:__ZN18AwakeFromLoadQueueD2Ev
3042:__ZN18AwakeFromLoadQueue30PersistentManagerAwakeFromLoadEi17AwakeFromLoadMode
3043:__ZL20SortItemByInstanceIDRKN18AwakeFromLoadQueue4ItemES2_
3044:__ZNSt3__26__sortIRPFbRKN18AwakeFromLoadQueue4ItemES4_EPS2_EEvT0_S9_T_
3045:__ZNSt3__27__sort4IRPFbRKN18AwakeFromLoadQueue4ItemES4_EPS2_EEjT0_S9_S9_S9_T_
3046:__ZNSt3__218__insertion_sort_3IRPFbRKN18AwakeFromLoadQueue4ItemES4_EPS2_EEvT0_S9_T_
3047:__ZNSt3__227__insertion_sort_incompleteIRPFbRKN18AwakeFromLoadQueue4ItemES4_EPS2_EEbT0_S9_T_
3048:__ZN6Object24RegisterInstanceIDNoLockEPS_
3049:__ZN4core8hash_setINS_4pairIKiP6ObjectLb0EEENS_9hash_pairINS_4hashIiEES2_S4_EENS_10equal_pairINSt3__28equal_toIiEES2_S4_EEE6insertERKS5_
3050:__ZN18AwakeFromLoadQueue3AddER6ObjectPK8TypeTreeb17AwakeFromLoadMode
3051:__ZN18AwakeFromLoadQueue19DetermineQueueIndexEPKN5Unity4TypeER6Object
3052:__ZNSt3__26__sortIRNS_6__lessI14ObjectLoadDataS2_EEPS2_EEvT0_S6_T_
3053:__ZN17PersistentManager29ReadAndActivateObjectThreadedEiRK26SerializedObjectIdentifierP14SerializedFilebbNS_9LockFlagsE
3054:__ZN17PersistentManager34GetSerializedFileIfObjectAvailableEixNS_9LockFlagsE
3055:__ZN17PersistentManager32CreateThreadActivationQueueEntryER14SerializedFile26SerializedObjectIdentifieribNS_9LockFlagsE
3056:__ZN14SerializedFile10ReadObjectEx18ObjectCreationModebPPK8TypeTreePbR6Object
3057:__ZN17PersistentManager23PostReadActivationQueueEiPK8TypeTreebNS_9LockFlagsE
3058:__Z16GenerateTypeTreeRK6ObjectR8TypeTree24TransferInstructionFlags
3059:__Z26IsStreamedBinaryCompatibleRK16TypeTreeIteratorS1_
3060:__ZN14SafeBinaryRead4InitERK16TypeTreeIteratorxx24TransferInstructionFlags10MemLabelId
3061:__ZN12CachedReader8InitReadER15CacheReaderBasejj
3062:__ZN12CachedReader3EndEv
3063:__ZL23OutOfBoundsReadingErrorPKN5Unity4TypeEiiR6Object
3064:__ZN14SafeBinaryReadD2Ev
3065:__ZNK10MonoScript22GetScriptFullClassNameEv
3066:__ZN12CachedReader16OutOfBoundsErrorEjj
3067:__ZN14SafeBinaryReadC2Ev
3068:__ZN8TypeTreeaSEOS_
3069:__ZN17ScriptingGCHandle28ResolveBackendNativeGCHandleEj
3070:__Z26scripting_object_get_class18ScriptingObjectPtr
3071:__ZN24GenerateTypeTreeTransferC2ER8TypeTree24TransferInstructionFlagsPvi
3072:__ZN8TypeTreeC2E10MemLabelId
3073:__ZN17PersistentManager13ProduceObjectER14SerializedFile26SerializedObjectIdentifieri18ObjectCreationModeNS_9LockFlagsE
3074:__ZN4core8hash_mapIi17ThreadedAwakeDataNS_4hashIiEENSt3__28equal_toIiEEE6insertERKiRKS1_
3075:__ZN4core8hash_setINS_4pairIKi17ThreadedAwakeDataLb0EEENS_9hash_pairINS_4hashIiEES2_S3_EENS_10equal_pairINSt3__28equal_toIiEES2_S3_EEE4growEi
3076:__ZN6Object7ProduceEPKN5Unity4TypeES3_i10MemLabelId18ObjectCreationMode
3077:__ZN17PersistentManager43LocalSerializedObjectIdentifierToInstanceIDEiRK31LocalSerializedObjectIdentifierRiNS_9LockFlagsE
3078:__ZN17PersistentManager22GetFromActivationQueueEiNS_9LockFlagsE
3079:__ZN13MonoBehaviour19RebuildMonoInstanceE17ScriptingClassPtr18ScriptingObjectPtrP10MonoScript
3080:__ZN9Scripting31ConnectScriptingWrapperToObjectE18ScriptingObjectPtrP6Object
3081:__ZNK15MonoScriptCache7ReleaseEv
3082:__Z27FindOrCreateMonoScriptCache17ScriptingClassPtr22InitScriptingCacheTypeP6Objecti
3083:__ZN13MonoBehaviour22GetScriptFullClassNameEv
3084:__Z21FormatScriptTypeError14MonoScriptTypeRKN4core12basic_stringIcNS0_20StringStorageDefaultIcEEEE
3085:__Z64scripting_unity_engine_object_new_and_invoke_default_constructor17ScriptingClassPtrP6ObjectP21ScriptingExceptionPtr
3086:__Z29scripting_class_get_namespace17ScriptingClassPtr
3087:__ZN16ScriptingManager19RegisterScriptCacheEP15MonoScriptCache
3088:__ZN16ScriptingManager18GetMonoScriptCacheEi
3089:__Z18BuildScriptClassId17ScriptingClassPtr
3090:__Z21CreateMonoScriptCacheRKN4core12basic_stringIcNS_20StringStorageDefaultIcEEEE17ScriptingClassPtr22InitScriptingCacheTypeP6Objecti
3091:__Z27scripting_class_is_abstract17ScriptingClassPtr
3092:__Z26scripting_class_is_generic17ScriptingClassPtr
3093:__Z30scripting_class_is_subclass_of17ScriptingClassPtrS_
3094:__Z27scripting_class_get_methods17ScriptingClassPtrRNSt3__26vectorI18ScriptingMethodPtr13stl_allocatorIS2_L18MemLabelIdentifier1ELi16EEEE
3095:__Z26scripting_class_get_parent17ScriptingClassPtr
3096:__ZNSt3__26__treeINS_12__value_typeIPKc18ScriptingMethodPtrEENS_19__map_value_compareIS3_S5_14CStringCompareLb1EEE13stl_allocatorIS5_L18MemLabelIdentifier1ELi16EEE25__emplace_unique_key_argsIS3_JRKNS_21piecewise_construct_tENS_5tupleIJOS3_EEENSH_IJEEEEEENS_4pairINS_15__tree_iteratorIS5_PNS_11__tree_nodeIS5_PvEEiEEbEERKT_DpOT0_
3097:__Z35scripting_method_get_argument_count18ScriptingMethodPtr
3098:__Z31scripting_method_get_returntype18ScriptingMethodPtr
3099:__Z25scripting_class_from_type16ScriptingTypePtr
3100:__ZNSt3__26__treeINS_12__value_typeIPKc18ScriptingMethodPtrEENS_19__map_value_compareIS3_S5_14CStringCompareLb1EEE13stl_allocatorIS5_L18MemLabelIdentifier1ELi16EEE7destroyEPNS_11__tree_nodeIS5_PvEE
3101:__ZN14MessageHandler28MessageIDToMessageIdentifierEi
3102:__Z37scripting_method_get_nth_argumenttype18ScriptingMethodPtri
3103:__Z25GetCommonScriptingClassesv
3104:__ZN16ScriptingManager27NativeTypeForScriptingClassE17ScriptingClassPtr
3105:__ZN9Scripting25GetTypeFromScriptingClassE17ScriptingClassPtr
3106:__ZN23ManagedAttributeManager24GetDefaultExecutionOrderE17ScriptingClassPtr
3107:__ZN23ManagedAttributeManager35CallManagedGetDefaultExecutionOrderE17ScriptingClassPtr
3108:__Z26scripting_class_get_object17ScriptingClassPtr
3109:__ZN19ScriptingInvocation6InvokeIiEET_P21ScriptingExceptionPtrb
3110:__ZN5Unity4Type14FindTypeByNameEPKcNS0_22CaseSensitivityOptionsE
3111:__ZNK11TypeManager15ClassNameToRTTIEPKcb
3112:__ZNK4core8hash_setINS_4pairIKPKcPK4RTTILb0EEENS_9hash_pairIN11TypeManager23ConstCharPtrHashFunctorES4_S7_EENS_10equal_pairINSA_19ConstCharPtrEqualToES4_S7_EEE6lookupIS3_EEPNSG_4nodeERKT_
3113:__Z33RenderImageFilterValidateCallback18ScriptingMethodPtr17ScriptingClassPtrP6Object
3114:__Z31AudioFilterReadValidateCallback18ScriptingMethodPtr17ScriptingClassPtrP6Object
3115:__Z21CheckMethodParameters18ScriptingMethodPtr17ScriptingClassPtrPS0_jP6ObjectR11MonoManager
3116:__Z26GetScriptClassIdComponents17ScriptingClassPtrRN4core17string_with_labelILi1EEES3_S3_
3117:__Z34scripting_class_get_declaring_type17ScriptingClassPtr
3118:__Z32scripting_class_get_assemblyname17ScriptingClassPtr
3119:__ZL21AppendNestedClassName17ScriptingClassPtrRN4core17string_with_labelILi1EEE
3120:__ZN16ScriptingManager24NotifyScriptCacheReleaseEi
3121:__ZN8Remapper23GetOrGenerateInstanceIDERK26SerializedObjectIdentifier
3122:__ZN17PersistentManager25PreallocateObjectThreadedEiNS_9LockFlagsE
3123:__ZN17PersistentManager22MakeObjectUnpersistentEi13UnpersistMode
3124:__Z28delete_object_internal_step1P6Object
3125:__ZN12EventManager11InvokeEventEP10EventEntryPvi
3126:__ZN12EventManager11RemoveEventEP10EventEntry
3127:__ZN17PersistentManager15DestroyFromFileEi
3128:__ZN8Remapper6RemoveEi
3129:__ZN17PersistentManager26GetStreamNameSpaceInternalEi
3130:__ZN13dynamic_arrayIxLj0EE9push_backERKx
3131:__ZN17PersistentManager19RemapToAbsolutePathERKN4core12basic_stringIcNS0_20StringStorageDefaultIcEEEE
3132:__Z13IsFileCreatedRKN4core12basic_stringIcNS_20StringStorageDefaultIcEEEE
3133:__ZN14SerializedFile10ReadHeaderEv
3134:__ZN14SerializedFileD2Ev
3135:__ZN17PersistentManager31PostLoadStreamNameSpaceInternalER15StreamNameSpacei
3136:__ZNSt3__26vectorINS_4pairIiiEE13stl_allocatorIS2_L18MemLabelIdentifier38ELi16EEE6insertENS_11__wrap_iterIPKS2_EEOS2_
3137:__ZNSt3__214__split_bufferINS_4pairIiiEER13stl_allocatorIS2_L18MemLabelIdentifier38ELi16EEE9push_backEOS2_
3138:__ZN18ResourceImageGroup7CleanupEv
3139:__ZN19dynamic_block_arrayI14FileIdentifierLj1024EED2Ev
3140:__ZN14SerializedFile14SerializedTypeD2Ev
3141:__ZN13ResourceImageD2Ev
3142:__Z13ReadFileCacheR15CacheReaderBasePvjj
3143:__ZN14SerializedFile12ReadMetadataILb0EEEbijPKhjj
3144:__ZN14SerializedFile12ReadMetadataILb1EEEbijPKhjj
3145:__ZN14SerializedFile27PatchRemapDeprecatedClassesEv
3146:__ZN5Unity4Type26FindTypeByPersistentTypeIDEi
3147:__ZN5Unity4Type41GetDeserializationStubForPersistentTypeIDEi
3148:__ZL38FindOrCreateSerializedTypeForUnityTypeR13dynamic_arrayIN14SerializedFile14SerializedTypeELj0EEPKN5Unity4TypeEbsi
3149:__ZN11TypeManager45GetDeserializationRTTIStubForPersistentTypeIDEi
3150:__ZNK11TypeManager22PersistentTypeIDToRTTIEi
3151:__ZL10ReadStringRN4core12basic_stringIcNS_20StringStorageDefaultIcEEEERPKhS6_
3152:__ZN13dynamic_arrayIN14SerializedFile14SerializedTypeELj0EE18resize_initializedEjRKS1_12ResizePolicy
3153:__ZN14SerializedFile14SerializedType8ReadTypeILb1EEEbibRPKhS3_Pi
3154:__ZL26ExtractScriptTypeReferenceRK16TypeTreeIteratorjR15CacheReaderBasebR31LocalSerializedObjectIdentifier
3155:__ZNSt3__26vectorINS_4pairIxN14SerializedFile10ObjectInfoEEENS_9allocatorIS4_EEE21__push_back_slow_pathIS4_EEvOT_
3156:__ZN19dynamic_block_arrayI14FileIdentifierLj1024EE28resize_with_resizer_internalINS1_20ResizerWithNoDefaultEEEvjRKT_
3157:__ZNSt3__26__treeINS_12__value_typeIiiEENS_19__map_value_compareIiS2_NS_4lessIiEELb1EEENS_9allocatorIS2_EEE7destroyEPNS_11__tree_nodeIS2_PvEE
3158:__ZN19dynamic_block_arrayI14FileIdentifierLj1024EE4growEj
3159:__ZN13dynamic_arrayI14FileIdentifierLj0EE18resize_initializedEj12ResizePolicy
3160:__ZN8TypeTree8BlobReadERPKhS1_ib
3161:__ZL16ReadTypeTreeImplILb1EEbR8TypeTreeRK16TypeTreeIteratorRPKhS6_i
3162:__ZL12CreateStringPjR13dynamic_arrayIcLj0EEPKc
3163:__ZN8TypeTree8AddChildEj
3164:__ZNK17CommonStringTable16FindCommonStringEPKc
3165:__ZN14SerializedFile14SerializedType8ReadTypeILb0EEEbibRPKhS3_Pi
3166:__ZL16ReadTypeTreeImplILb0EEbR8TypeTreeRK16TypeTreeIteratorRPKhS6_i
3167:__ZN14FileCacherReadC2E10MemLabelIdRKN4core12basic_stringIcNS1_20StringStorageDefaultIcEEEEjb
3168:__Z18PathToAbsolutePathRKN4core12basic_stringIcNS_20StringStorageDefaultIcEEEE
3169:__ZN15FileSystemEntryC2EPKc
3170:__ZN15FileSystemEntry3SetEPKc
3171:__Z24ConvertSeparatorsToUnityPc
3172:__Z13GetFileSystemv
3173:__ZNK10FileSystem10ToAbsoluteEPKc
3174:__ZN14FileCacherReadD2Ev
3175:__ZN14FileCacherReadD0Ev
3176:__ZN14FileCacherRead10DirectReadEPvjj
3177:__ZN14FileCacherRead14LockCacheBlockEjPPhS1_
3178:__ZN14FileCacherRead16UnlockCacheBlockEj
3179:__ZN14FileCacherRead12GetCacheSizeEv
3180:__ZN14FileCacherRead11GetPathNameEv
3181:__ZN15CacheReaderBase18GetAddressOfMemoryEv
3182:__ZN14FileCacherRead7RequestEiR16AsyncReadCommandRNS_10CacheBlockEb
3183:__Z15SyncReadRequestP16AsyncReadCommand
3184:__ZN13OpenFileCache10OpenCachedERKN4core12basic_stringIcNS0_20StringStorageDefaultIcEEEE
3185:__ZN4File4ReadEyPvj
3186:__ZN12FileAccessor4ReadEyyPvPy
3187:__ZN4File5CloseEv
3188:__ZN4File4OpenERKN4core12basic_stringIcNS0_20StringStorageDefaultIcEEEENS_10PermissionENS_12AutoBehaviorE
3189:__ZN4File19OpenFileSystemEntryERK15FileSystemEntryNS_10PermissionENS_12AutoBehaviorE
3190:__ZN12FileAccessor5CloseEv
3191:__ZN13FileEntryDataaSERKS_
3192:__ZN12FileAccessor4OpenER15FileSystemEntry14FilePermission16FileAutoBehavior
3193:__ZN12FileAccessorC2Ev
3194:__ZN12FileAccessorD2Ev
3195:__ZN12FileAccessorD0Ev
3196:__ZN13OpenFileCache10ForceCloseERKN4core12basic_stringIcNS0_20StringStorageDefaultIcEEEE
3197:__ZNSt3__27__sort4IRNS_6__lessI14ObjectLoadDataS2_EEPS2_EEjT0_S6_S6_S6_T_
3198:__ZNSt3__27__sort5IRNS_6__lessI14ObjectLoadDataS2_EEPS2_EEjT0_S6_S6_S6_S6_T_
3199:__ZNSt3__218__insertion_sort_3IRNS_6__lessI14ObjectLoadDataS2_EEPS2_EEvT0_S6_T_
3200:__ZNSt3__227__insertion_sort_incompleteIRNS_6__lessI14ObjectLoadDataS2_EEPS2_EEbT0_S6_T_
3201:__ZN6Object18RegisterInstanceIDEPS_
3202:__Z19CanReplaceComponentRN5Unity9ComponentEPKNS_4TypeEPN4core12basic_stringIcNS5_20StringStorageDefaultIcEEEE
3203:__ZNK10GameObject8IsActiveEv
3204:__ZN10GameObject17GetComponentIndexEPN5Unity9ComponentE
3205:__ZN10GameObject22RemoveComponentAtIndexEi
3206:__Z19DestroySingleObjectP6Object
3207:__ZNK10GameObject20QueryComponentByTypeEPKN5Unity4TypeE
3208:__Z26DestroyGameObjectHierarchyR10GameObject
3209:__ZN10GameObject10DeactivateE19DeactivateOperation
3210:__ZL19PreDestroyRecursiveR10GameObjectPj
3211:__ZN9Transform16RemoveFromParentENS_20RemoveFromParentModeE
3212:__ZL26DestroyGameObjectRecursiveR10GameObjectR11BatchDelete
3213:__Z17CommitBatchDeleteR11BatchDelete
3214:__Z28delete_object_internal_step2P6Object
3215:__ZN32TransformHierarchyChangeDispatch26DispatchSelfAndAllChildrenE15TransformAccessNS_12InterestTypeE
3216:__ZN17TransformInternal20FreeTransformHandlesER18TransformHierarchyi
3217:__ZN17TransformInternal21DetachTransformThreadER18TransformHierarchyjj
3218:__ZN17TransformInternal19FreeTransformThreadER18TransformHierarchyjj
3219:__ZN17TransformInternal27UpdateDeepChildCountUpwardsER18TransformHierarchyii
3220:__ZN32TransformHierarchyChangeDispatch22DispatchSelfAndParentsE15TransformAccessNS_12InterestTypeE
3221:__ZN5Unity9Component14SendMessageAnyERK17MessageIdentifierR11MessageData
3222:__ZN10GameObject14SendMessageAnyERK17MessageIdentifierR11MessageData
3223:__ZN16MessageForwarder13HandleMessageEPviR11MessageData
3224:__ZN10GameObject21WillDestroyGameObjectEv
3225:__ZN10GameObject32ActivateAwakeRecursivelyInternalE19DeactivateOperationR18AwakeFromLoadQueue
3226:__ZN18AwakeFromLoadQueue13AwakeFromLoadE17AwakeFromLoadModeb
3227:__ZL53SortBehaviourItemByExecutionOrderAndReverseInstanceIDRKN18AwakeFromLoadQueue4ItemES2_
3228:__ZNK21ExecutionOrderManager23GetScriptExecutionOrderEiPKN5Unity4TypeE
3229:__ZN10GameObject18UpdateActiveGONodeEv
3230:__ZN18AwakeFromLoadQueueC2E10MemLabelId
3231:__Z34FindRequiredComponentsForComponentPKN5Unity4TypeE
3232:__ZN13MonoBehaviour18GetScriptClassNameEv
3233:__Z6AppendRKN4core12basic_stringIcNS_20StringStorageDefaultIcEEEEPKc
3234:__Z25InitComponentRequirementsv
3235:__ZNSt3__26__treeINS_12__value_typeIPKN5Unity4TypeE10vector_setIS5_NS_4lessIS5_EENS_9allocatorIS5_EEEEENS_19__map_value_compareIS5_SC_S8_Lb1EEENS9_ISC_EEE7destroyEPNS_11__tree_nodeISC_PvEE
3236:__Z38InitComponentRequirementsForModuleSpecRK10ModuleSpec
3237:__ZN13ModuleManager3GetEv
3238:__ZNK5Unity4Type21FindAllDerivedClassesER13dynamic_arrayIPKS0_Lj0EENS0_17TypeFilterOptionsE
3239:__ZNSt3__26vectorIPKN5Unity4TypeENS_9allocatorIS4_EEE6assignIPS4_EENS_9enable_ifIXaasr21__is_forward_iteratorIT_EE5valuesr16is_constructibleIS4_NS_15iterator_traitsISB_E9referenceEEE5valueEvE4typeESB_SB_
3240:__ZNSt3__26__sortIRNS_4lessIPKN5Unity4TypeEEEPS5_EEvT0_S9_T_
3241:__ZL23AddConflictingClassIMPLPKN5Unity4TypeES2_
3242:__ZNSt3__27__sort5IRNS_4lessIPKN5Unity4TypeEEEPS5_EEjT0_S9_S9_S9_S9_T_
3243:__ZNSt3__227__insertion_sort_incompleteIRNS_4lessIPKN5Unity4TypeEEEPS5_EEbT0_S9_T_
3244:__ZNK11TypeManager23FindAllRTTIDerivedTypesEPK4RTTIR13dynamic_arrayIS2_Lj0EEb
3245:__ZN13RuntimeStaticI13ModuleManagerLb0EE10InitializeEv
3246:__ZN10UnityScene43RegisterLevelGameManagersWithManagerContextEv
3247:__ZN13RuntimeStaticI21AssetReferenceStorageLb0EE16StaticInitializeEPv
3248:__ZN13RuntimeStaticI21AssetReferenceStorageLb0EE13StaticDestroyEPv
3249:__ZL19StaticCleanupPlayerPv
3250:__ZN22BuiltinResourceManager16StaticInitializeEPv
3251:__ZN22BuiltinResourceManager13StaticDestroyEPv
3252:__ZN21AssetReferenceStorageD2Ev
3253:__ZN21AssetReferenceStorage22GarbageCollectCallbackEPS_R27GarbageCollectorThreadState
3254:__ZN13RuntimeStaticI19EndOfFrameCallbacksLb0EE16StaticInitializeEPv
3255:__ZN13RuntimeStaticI19EndOfFrameCallbacksLb0EE13StaticDestroyEPv
3256:__ZN13RuntimeStaticI19UnityPluginRegistryLb0EE16StaticInitializeEPv
3257:__ZN13RuntimeStaticI19UnityPluginRegistryLb0EE13StaticDestroyEPv
3258:__ZN13RuntimeStaticINSt3__23mapIN4core12basic_stringIcNS2_20StringStorageDefaultIcEEEES6_NS0_4lessIS6_EE13stl_allocatorINS0_4pairIKS6_S6_EEL18MemLabelIdentifier13ELi16EEEELb0EE13StaticDestroyEPv
3259:__ZNSt3__26__treeINS_12__value_typeIN4core12basic_stringIcNS2_20StringStorageDefaultIcEEEES6_EENS_19__map_value_compareIS6_S7_NS_4lessIS6_EELb1EEE13stl_allocatorIS7_L18MemLabelIdentifier13ELi16EEE7destroyEPNS_11__tree_nodeIS7_PvEE
3260:__ZN19EndOfFrameCallbacks8DequeAllEv
3261:__Z23DestroyMutexLockedQueueP16MutexLockedQueue10MemLabelId
3262:__Z22CreateMutexLockedQueue10MemLabelId
3263:__ZN17ScriptingGCHandle15ReleaseAndClearEv
3264:__ZN21ComponentRequirements16StaticInitializeEPv
3265:__ZN21ComponentRequirements13StaticDestroyEPv
3266:__Z22CleanupCachingManagersPv
3267:__ZN15FileSystemEntry6DeleteEb
3268:__ZL30InitializeHalfConversionTablesPv
3269:__ZL30InitializeRegisterDomainReloadPv
3270:__ZN13RuntimeStaticI22VirtualJoystickManagerLb0EE16StaticInitializeEPv
3271:__ZN13RuntimeStaticI22VirtualJoystickManagerLb0EE13StaticDestroyEPv
3272:__ZN13RuntimeStaticI15GUIEventManagerLb0EE16StaticInitializeEPv
3273:__ZN13RuntimeStaticI15GUIEventManagerLb0EE13StaticDestroyEPv
3274:__ZNSt3__212__deque_baseI10InputEventNS_9allocatorIS1_EEE5clearEv
3275:__ZN10InputEventD2Ev
3276:__ZN13RuntimeStaticI22ThreadSharedObjectPoolI26ScriptableShadowCasterDataELb1EE16StaticInitializeEPv
3277:__ZN13RuntimeStaticI22ThreadSharedObjectPoolI26ScriptableShadowCasterDataELb1EE13StaticDestroyEPv
3278:__ZN22ThreadSharedObjectPoolI26ScriptableShadowCasterDataE5ClearEv
3279:__Z23DestroyMutexLockedStackP16MutexLockedStack
3280:__ZN26ScriptableShadowCasterDataD2Ev
3281:__ZN15RenderNodeQueueD2Ev
3282:__ZN15RenderNodeQueue5ResetEb
3283:__ZN19AtomicPageAllocatorD2Ev
3284:__ZN19AtomicPageAllocator5ClearEv
3285:__ZN26ScriptableShadowCasterData5ResetEv
3286:__Z22CreateMutexLockedStackv
3287:__ZN23DefaultMeshVertexFormatC2E18VertexChannelsInfo
3288:__ZN13RuntimeStaticI17UniqueIDGeneratorLb0EE16StaticInitializeEPv
3289:__ZN17UniqueIDGeneratorC2E10MemLabelId
3290:__ZN13RuntimeStaticI23MeshVertexFormatManagerLb0EE13StaticDestroyEPv
3291:__ZNSt3__26__treeINS_12__value_typeI18VertexChannelsInfo16MeshVertexFormatEENS_19__map_value_compareIS2_S4_NS_4lessIS2_EELb1EEE13stl_allocatorIS4_L18MemLabelIdentifier17ELi16EEE7destroyEPNS_11__tree_nodeIS4_PvEE
3292:__Z25InitializeLODGroupManagerPv
3293:__Z22CleanupLODGroupManagerPv
3294:__ZN15LODGroupManagerD2Ev
3295:__ZN17UniqueIDGenerator7CleanupEv
3296:__ZN23TransformChangeDispatch16UnregisterSystemER27TransformChangeSystemHandle
3297:__ZN17UniqueIDGenerator16DestroyPureIndexEj
3298:__ZN15LODGroupManagerC2E10MemLabelId
3299:__ZN23TransformChangeDispatch14RegisterSystemENS_12InterestTypeE
3300:__ZN17UniqueIDGenerator15CreatePureIndexEv
3301:__ZN17UniqueIDGenerator8CreateIDEv
3302:__ZN21BillboardBatchManager16StaticInitializeEPv
3303:__ZN21BillboardBatchManager13StaticCleanupEPv
3304:__Z28BuildSingleStreamChannelInfoP11ChannelInfoRK20VertexChannelsLayout17ShaderChannelMaskS4_
3305:__ZN23MeshVertexFormatManager19GetMeshVertexFormatERK18VertexChannelsInfo
3306:__ZNK18VertexChannelsInfoltERKS_
3307:__ZN16MeshVertexFormatC2ERK18VertexChannelsInfo
3308:__ZNSt3__26__treeINS_12__value_typeI18VertexChannelsInfo16MeshVertexFormatEENS_19__map_value_compareIS2_S4_NS_4lessIS2_EELb1EEE13stl_allocatorIS4_L18MemLabelIdentifier17ELi16EEE12__find_equalIS2_EERPNS_16__tree_node_baseIPvEENS_21__tree_const_iteratorIS4_PNS_11__tree_nodeIS4_SF_EEiEERPNS_15__tree_end_nodeISH_EESI_RKT_
3309:__ZN13RuntimeStaticI10WatermarksLb0EE16StaticInitializeEPv
3310:__ZN20DiagnosticSwitchBaseC2EPKcS1_NS_11SwitchFlagsE
3311:__ZN16DiagnosticSwitchIbE18SetValueFromStringEPKc
3312:__ZN16DiagnosticSwitchIbE20ApplyPersistentValueEv
3313:__ZN16DiagnosticSwitchIbE20CollectScriptingInfoERN20DiagnosticSwitchBase13ScriptingInfoE
3314:__ZN16DiagnosticSwitchIbE24UpdateFromScriptingValueE18ScriptingObjectPtrb
3315:__ZN9Scripting26RaiseArgumentNullExceptionEPKc
3316:__ZN9Scripting22RaiseArgumentExceptionEPKcz
3317:__ZN9Scripting24RaiseSystemExceptionImplEPKcS1_Pi
3318:__ZN9Scripting26CreateManagedExceptionImplEPKcS1_S1_Pi
3319:__Z30CreateBoxedObjectFromPrimitiveb
3320:__ZN16DiagnosticSwitchIbE18GetPersistentValueEv
3321:__Z19scripting_value_box17ScriptingClassPtrPv
3322:__Z14IsStringNumberPKc
3323:__Z14StringToUInt32RKN4core16basic_string_refIcEE
3324:__ZN18AsyncUploadManager16StaticInitializeEPv
3325:__ZN18AsyncUploadManager13StaticDestroyEPv
3326:__ZN18AsyncUploadManagerD2Ev
3327:__ZN18ConcurrentFreeListI12AsyncCommandE7CleanUpEv
3328:__ZN18AsyncUploadManagerC2E10MemLabelId
3329:__ZN13RuntimeStaticIN4core8hash_mapIiiNS0_4hashIiEENSt3__28equal_toIiEEEELb0EE16StaticInitializeEPv
3330:__ZN13RuntimeStaticIN4core8hash_mapIiiNS0_4hashIiEENSt3__28equal_toIiEEEELb0EE13StaticDestroyEPv
3331:__ZL38StaticRegister_LightmapSettingsManagerPv
3332:__ZL33StaticUnregister_LightmapSettingsPv
3333:__ZL14DidUnloadScenei
3334:__ZL21SceneLoadedAfterAwakeiR18AwakeFromLoadQueue16SceneLoadingMode
3335:__Z20DidChangeActiveSceneP10UnitySceneS0_
3336:__ZL12WipeSettingsv
3337:__ZNK10UnityScene19GetLevelGameManagerEi
3338:__ZN16LightmapSettings8CopyFromEPKS_
3339:__ZN21EnlightenSceneMappingaSERKS_
3340:__ZN16LightmapSettings7RebuildEv
3341:__ZN16LightmapSettings28SetDynamicGILightmapTexturesEPK22RealtimeLightmapIDDataj
3342:__Znaj
3343:__ZNSt3__26vectorINS_4pairIijEENS_9allocatorIS2_EEE6assignIPS2_EENS_9enable_ifIXaasr21__is_forward_iteratorIT_EE5valuesr16is_constructibleIS2_NS_15iterator_traitsIS9_E9referenceEEE5valueEvE4typeES9_S9_
3344:__ZN4core8hash_mapIiP16LightmapSettingsNS_4hashIiEENSt3__28equal_toIiEEEixERKi
3345:__ZNK23LightmapSettingsManager24CheckSettingsConsistencyEv
3346:__Z19GetLightmapSettingsv
3347:__ZN16LightmapSettings15AppendLightmapsEiRK13dynamic_arrayI12LightmapDataLj0EE
3348:__Z24InitializeMainSceneRangeiiiR13dynamic_arrayI10SceneRangeLj0EE
3349:__ZN21EnlightenSceneMapping6AppendEiRKS_
3350:__Z26GetLightmapSettingsManagerv
3351:__ZN23LightmapSettingsManager25GetMergedLightmapSettingsEv
3352:__Z16AppendSceneRangeiiiiiR13dynamic_arrayI10SceneRangeLj0EE
3353:__ZN13dynamic_arrayI28EnlightenRendererInformationLj0EE6insertEPS0_PKS0_S4_
3354:__ZN13dynamic_arrayI26EnlightenSystemInformationLj0EE6insertEPS0_PKS0_S4_
3355:__ZN13dynamic_arrayI31EnlightenSystemAtlasInformationLj0EE6insertEPS0_PKS0_S4_
3356:__ZN13dynamic_arrayI33EnlightenTerrainChunksInformationLj0EE6insertEPS0_PKS0_S4_
3357:__ZN13dynamic_arrayI7Hash128Lj0EE6insertEPS0_PKS0_S4_
3358:__ZNSt3__26vectorINS_4pairIijEENS_9allocatorIS2_EEE21__push_back_slow_pathIS2_EEvOT_
3359:__ZN13sorted_vectorINSt3__24pairIijEEN10vector_mapIijNS0_4lessIiEENS0_9allocatorIS2_EEE13value_compareES7_E21sort_clear_duplicatesEv
3360:__ZnwjRKSt9nothrow_t
3361:__ZNSt3__213__stable_sortIRN10vector_mapIijNS_4lessIiEENS_9allocatorINS_4pairIijEEEEE13value_compareENS_11__wrap_iterIPS6_EEEEvT0_SE_T_NS_15iterator_traitsISE_E15difference_typeEPNSH_10value_typeEi
3362:__ZNSt3__218__stable_sort_moveIRN10vector_mapIijNS_4lessIiEENS_9allocatorINS_4pairIijEEEEE13value_compareENS_11__wrap_iterIPS6_EEEEvT0_SE_T_NS_15iterator_traitsISE_E15difference_typeEPNSH_10value_typeE
3363:__ZNSt3__215__inplace_mergeIRN10vector_mapIijNS_4lessIiEENS_9allocatorINS_4pairIijEEEEE13value_compareENS_11__wrap_iterIPS6_EEEEvT0_SE_SE_T_NS_15iterator_traitsISE_E15difference_typeESI_PNSH_10value_typeEi
3364:__ZNSt3__224__buffered_inplace_mergeIRN10vector_mapIijNS_4lessIiEENS_9allocatorINS_4pairIijEEEEE13value_compareENS_11__wrap_iterIPS6_EEEEvT0_SE_SE_T_NS_15iterator_traitsISE_E15difference_typeESI_PNSH_10value_typeE
3365:__ZNK10GISettings26GetEnableRealtimeLightmapsEv
3366:__Z17GetRenderSettingsv
3367:__Z12FormatStringPKcz
3368:__Z12FormatBufferPciPKcPi
3369:__ZN20CoreScriptingClasses32IsLightmapBakeTypeSupportedByRefEiPvP21ScriptingExceptionPtr
3370:__ZN18ScriptingArguments7AddEnumEi
3371:__ZN18ScriptingArguments9AddIntPtrEPv
3372:__ZN19ScriptingInvocation6InvokeIvEET_P21ScriptingExceptionPtrb
3373:__ZN23LightmapSettingsManager19RemoveSceneSettingsEi
3374:__ZN21EnlightenSceneMapping5EraseEi
3375:__ZN16LightmapSettings15RemoveLightmapsEi
3376:__Z26ExtractAllRenderersInSceneR13dynamic_arrayIP8RendererLj0EE
3377:__Z25ExtractAllTerrainsInSceneR13dynamic_arrayIP7TerrainLj0EE
3378:__ZN6Object17FindObjectsOfTypeEPKN5Unity4TypeER13dynamic_arrayIPS_Lj0EEb
3379:__ZL31FindObjectsOfTypeImplementationPN4core8hash_setIP6ObjectNS_4hashIS2_EENSt3__28equal_toIS2_EEEEPKN5Unity4TypeER13dynamic_arrayIS2_Lj0EE
3380:__ZNSt3__26__sortIR17CompareInstanceIDPP6ObjectEEvT0_S6_T_
3381:__ZNSt3__27__sort5IR17CompareInstanceIDPP6ObjectEEjT0_S6_S6_S6_S6_T_
3382:__ZNSt3__227__insertion_sort_incompleteIR17CompareInstanceIDPP6ObjectEEbT0_S6_T_
3383:__Z14FindSceneIndexRK13dynamic_arrayI10SceneRangeLj0EEi
3384:__ZL31InitializeRendererUpdateManagerPv
3385:__ZL28CleanupRendererUpdateManagerPv
3386:__ZN21RendererUpdateManagerD2Ev
3387:__ZN10Matrix4x4f11SetIdentityEv
3388:__ZN13RuntimeStaticI17UniqueIDGeneratorLb1EE16StaticInitializeEPv
3389:__Z37InitializeIntermediateRendererManagerPv
3390:__Z34CleanupIntermediateRendererManagerPv
3391:__ZN27IntermediateRendererManagerD2Ev
3392:__ZN27IntermediateRendererManager27RemoveIntermediateRenderersEi
3393:__ZN21IntermediateRenderers5ClearEj
3394:__ZL28InitializeAsyncUploadTexturePv
3395:__ZL26ShutdownAsyncUploadTexturePv
3396:__ZN18ConcurrentFreeListI24TextureUploadInstructionE7CleanUpEv
3397:__ZN13RuntimeStaticI15DirectorManagerLb0EE16StaticInitializeEPv
3398:__ZN13RuntimeStaticI15DirectorManagerLb0EE13StaticDestroyEPv
3399:__ZN15DirectorManager14ConnectionPool8DestructEv
3400:__ZN15DirectorManager14ConnectionPool11ClearUnsafeEv
3401:__ZN15DirectorManagerD2Ev
3402:__ZN15DirectorManager12CleanupClassEv
3403:__ZNSt3__26__treeINS_12__value_typeIPvsEENS_19__map_value_compareIS2_S3_NS_4lessIS2_EELb1EEE13stl_allocatorIS3_L18MemLabelIdentifier86ELi16EEE7destroyEPNS_11__tree_nodeIS3_S2_EE
3404:__ZN15DirectorManagerC2Ev
3405:__ZN15DirectorManager15InitializeClassEv
3406:__ZZN15DirectorManager15InitializeClassEvEN40EarlyUpdateDirectorSampleTimeRegistrator7ForwardEv
3407:__ZZN15DirectorManager15InitializeClassEvEN45FixedUpdateDirectorFixedSampleTimeRegistrator7ForwardEv
3408:__ZZN15DirectorManager15InitializeClassEvEN41FixedUpdateDirectorFixedUpdateRegistrator7ForwardEv
3409:__ZZN15DirectorManager15InitializeClassEvEN52FixedUpdateDirectorFixedUpdatePostPhysicsRegistrator7ForwardEv
3410:__ZZN15DirectorManager15InitializeClassEvEN31UpdateDirectorUpdateRegistrator7ForwardEv
3411:__ZZN15DirectorManager15InitializeClassEvEN48PreLateUpdateDirectorDeferredEvaluateRegistrator7ForwardEv
3412:__ZZN15DirectorManager15InitializeClassEvEN43PostLateUpdateDirectorLateUpdateRegistrator7ForwardEv
3413:__ZZN15DirectorManager15InitializeClassEvEN44PostLateUpdateDirectorRenderImageRegistrator7ForwardEv
3414:__ZZN15DirectorManager15InitializeClassEvEN52PreLateUpdateDirectorUpdateAnimationBeginRegistrator7ForwardEv
3415:__ZZN15DirectorManager15InitializeClassEvEN50PreLateUpdateDirectorUpdateAnimationEndRegistrator7ForwardEv
3416:__ZZN15DirectorManager15InitializeClassEvEN42shutdownBeforeCleanupAllObjectsRegistrator7ForwardEv
3417:__ZZN15DirectorManager15InitializeClassEvEN32enterPlayModePreStartRegistrator7ForwardEv
3418:__ZN15DirectorManager14ConnectionPool14InitializePoolEjf
3419:__ZN17DirectorFrameTime14ResetDSPValuesEv
3420:__ZN15DirectorManager23ProcessPlayStateChangesEv
3421:__Z18FlushGraphCommandsR13dynamic_arrayI16GraphCommandPairLj0EER16MutexLockedStack
3422:__ZN13PlayableGraph12PrepareFrameE16PrepareFrameTypedyj21DirectorThreadContext
3423:__ZNK8Playable6HandleEv
3424:__ZN13PlayableGraph27SchedulePlayableDestructionERK9HPlayable
3425:__ZN13PlayableGraph23DestroyPendingPlayablesEv
3426:__ZN13PlayableGraph14DestroyOutputsEv
3427:__ZN13PlayableGraphD2Ev
3428:__ZN15DirectorManager21RebuildStageCallbacksEv
3429:__ZN15DirectorManager12RegisterJobsEP13PlayableGraph
3430:__ZNSt3__26vectorI20ProcessCallbackGroupNS_9allocatorIS1_EEE21__push_back_slow_pathIRKS1_EEvOT_
3431:__ZN14PlayableOutput7DestroyEv
3432:__ZN15DirectorManager14FreeOutputNodeEP19HPlayableOutputNode
3433:__ZN14PlayableOutput26ClearInvalidSourcePlayableEv
3434:__ZN8Playable16DisconnectInputsEPS_
3435:__ZN8Playable21DisconnectFromOutputsEPS_
3436:__ZN8Playable10DisconnectEPS_i
3437:__ZN15DirectorManager11AcquireNodeEv
3438:__ZN14PlayableOutput15PrepareTraverseERK9FrameDatai
3439:__ZN8Playable19PrepareFrameVisitorER19DirectorVisitorInfo
3440:__ZN25PreOrderPlayableTraverser8TraverseER19DirectorVisitorInfo
3441:__ZN13PlayableGraph18DisableMultithreadEv
3442:__ZN8Playable16ProcessPlayStateERK19DirectorVisitorInfo
3443:__ZN8Playable16CallOnGraphStartEv
3444:__ZN15DirectorManager29CacheScriptingMethodsForClassE17ScriptingClassPtr
3445:__ZNK15DirectorManager16GetScriptMethodsEs
3446:__ZNK15PlayableMethods20InvokeBehaviourDelayER18ScriptingObjectPtrRK9HPlayableP18ScriptingFrameData
3447:__ZNK15PlayableMethods19InvokeBehaviourPlayER18ScriptingObjectPtrRK9HPlayableP18ScriptingFrameData
3448:__ZNK15PlayableMethods20InvokeBehaviourPauseER18ScriptingObjectPtrRK9HPlayableP18ScriptingFrameData
3449:__ZN8Playable15CallOnGraphStopEv
3450:__ZNK15PlayableMethods17InvokeOnGraphStopER18ScriptingObjectPtrRK9HPlayable
3451:__ZN9Scripting29GetFirstNonGenericParentClassE17ScriptingClassPtrS0_
3452:__ZN9Scripting21GetOverrideMethodOnlyEPKc17ScriptingClassPtrS2_
3453:__ZNK15PlayableMethods18InvokeOnGraphStartER18ScriptingObjectPtrRK9HPlayable
3454:__ZN15DirectorManager20ExecutePrepareFramesE13DirectorStage
3455:__ZL19PrepareFrameJobFuncP15PrepareFrameJobj
3456:__Z26ScheduleJobForEachInternalR8JobFencePFvPvjES1_iPFvS1_E11JobPriority
3457:__ZN14PlayableOutput25FireConnectionHashChangedEv
3458:__ZN13PlayableGraph8EvaluateEdyj
3459:__ZN15DirectorManager17OnSampleFixedTimeEv
3460:__Z14GetTimeManagerv
3461:__ZN17DirectorFrameTime10SampleTimeEfffb
3462:__ZN17DirectorFrameTime21CalculateDSPDeltaTimeEv
3463:__ZN15DirectorManager12OnSampleTimeEv
3464:__ZN15DirectorManager14ConnectionPool16GrowEmptyBucketsEv
3465:__ZN15DirectorManager14ConnectionPool10CreateItemEi
3466:__ZN17CommonStringTable16StaticInitializeEPv
3467:__ZN17CommonStringTable13StaticCleanupEPv
3468:__ZN17CommonStringTableD2Ev
3469:__ZN17CommonStringTableC2E10MemLabelId
3470:__ZN15GlobalCallbacksC2Ev
3471:__ZL24CleanupPrepassRenderLoopPv
3472:__ZN16memory_pool_implILi20EE15AutoPoolWrapper10InitializeEPv
3473:__ZN16memory_pool_implILi20EE15AutoPoolWrapper12UninitializeEPv
3474:__ZN10MemoryPool24RegisterStaticMemoryPoolEPS_
3475:__ZNSt3__26vectorIP10MemoryPool13stl_allocatorIS2_L18MemLabelIdentifier76ELi16EEE21__push_back_slow_pathIRKS2_EEvOT_
3476:__ZN19CullingGroupManager15InitializeClassEPv
3477:__ZN19CullingGroupManager12CleanupClassEPv
3478:__ZN13RuntimeStaticI13RendererSceneLb0EE16StaticInitializeEPv
3479:__ZN13RuntimeStaticI13RendererSceneLb0EE13StaticDestroyEPv
3480:__ZN13RendererSceneD2Ev
3481:__ZN13RendererScene14RemoveRendererEi
3482:__ZN13RendererScene28SceneAfterCullingOutputReadyEPK9IndexListPK16RendererCullData
3483:__ZN13RendererScene16UpdateVisibilityEPK9IndexList
3484:__ZN13RuntimeStaticI13RendererSceneLb0EE10InitializeEv
3485:__ZL33CleanupCubemapGPUUtilityMaterialsPv
3486:__ZL25CleanupImageFilterGlobalsPv
3487:__ZN24MeshIntermediateRenderer16StaticInitializeEPv
3488:__ZN24MeshIntermediateRenderer13StaticDestroyEPv
3489:__ZL14CleanupShadowsPv
3490:__ZN13RuntimeStaticI20BurstCompilerServiceLb0EE16StaticInitializeEPv
3491:__ZN13RuntimeStaticI20BurstCompilerServiceLb0EE13StaticDestroyEPv
3492:__ZL44DelegateCache_InitializeRegisterDomainReloadPv
3493:__ZL25CleanupAllCachedDelegatesv
3494:__ZN13RuntimeStaticI20BurstCompilerServiceLb0EE7DestroyEv
3495:__ZN20BurstCompilerServiceC2Ev
3496:__ZL22RegisterICallWithBurstPKcPKv
3497:__Z41scripting_add_icall_registration_callbackPFvPKcPKvE
3498:__ZN4core8hash_mapINS_12basic_stringIcNS_20StringStorageDefaultIcEEEEPKvNS_4hashIS4_EENSt3__28equal_toIS4_EEEixERKS4_
3499:__Z11burst_abortPKcS0_
3500:__Z17DebugStringToFileIN4core12basic_stringIcNS0_20StringStorageDefaultIcEEEEEvRKT_iPKci15LogMessageFlagsiiPFvRK11CppLogEntryE
3501:__ZN17BaseObjectManager16StaticInitializeEPv
3502:__ZN17BaseObjectManager13StaticDestroyEPv
3503:__ZN6Object13StaticDestroyEv
3504:__ZN11TypeManager21CleanupGlobalInstanceEv
3505:__ZN11TypeManagerD2Ev
3506:__ZNSt3__26__treeINS_12__value_typeIiN11TypeManager18TypeCallbackStructEEENS_19__map_value_compareIiS4_NS_4lessIiEELb1EEENS_9allocatorIS4_EEE7destroyEPNS_11__tree_nodeIS4_PvEE
3507:__ZN11TypeManager24InitializeGlobalInstanceEv
3508:__ZN6Object16StaticInitializeEv
3509:__ZN11TypeManager12RegisterTypeERK20TypeRegistrationDesc
3510:__ZN11TypeManager36FatalErrorOnPersistentTypeIDConflictEiPKc
3511:__ZN4core8hash_mapIPKcPK4RTTIN11TypeManager23ConstCharPtrHashFunctorENS6_19ConstCharPtrEqualToEEixERKS2_
3512:__ZN13RuntimeStaticI12EventManagerLb1EE16StaticInitializeEPv
3513:__ZN13RuntimeStaticI12EventManagerLb1EE13StaticDestroyEPv
3514:__ZN13RuntimeStaticI14MessageHandlerLb0EE16StaticInitializeEPv
3515:__ZN13RuntimeStaticI14MessageHandlerLb0EE13StaticDestroyEPv
3516:__ZNSt3__213__vector_baseI16MessageForwarder13stl_allocatorIS1_L18MemLabelIdentifier7ELi8EEED2Ev
3517:__ZL39CreateRegisteredMessageIdentifiersArrayPv
3518:__ZL40DestroyRegisteredMessageIdentifiersArrayPv
3519:__ZN13RuntimeStaticI12AdsIdHandlerLb0EE16StaticInitializeEPv
3520:__ZN13RuntimeStaticI12AdsIdHandlerLb0EE13StaticDestroyEPv
3521:__ZN13RuntimeStaticI15ApplicationInfoLb0EE16StaticInitializeEPv
3522:__ZN13RuntimeStaticI15ApplicationInfoLb0EE13StaticDestroyEPv
3523:__ZN13RuntimeStaticI15ApplicationInfoLb0EE7DestroyEv
3524:__ZN12AdsIdHandlerD2Ev
3525:__ZN13RuntimeStaticI18SpriteAtlasManagerLb1EE16StaticInitializeEPv
3526:__ZZN18SpriteAtlasManagerC1E10MemLabelIdEN46EarlyUpdateSpriteAtlasManagerUpdateRegistrator7ForwardEv
3527:__ZN18SpriteAtlasManager21CleanupInvalidAtlasesEv
3528:__ZN18SpriteAtlasManager21RequestAtlasViaScriptEv
3529:__ZN13sorted_vectorIN4core12basic_stringIcNS0_20StringStorageDefaultIcEEEENSt3__24lessIS4_EE13stl_allocatorIS4_L18MemLabelIdentifier81ELi16EEE21sort_clear_duplicatesEv
3530:__ZN19ScriptingInvocation6InvokeIbEET_P21ScriptingExceptionPtrb
3531:__Z13FormatOrderedPKcz
3532:__ZL20FormatOrderedProcessPKcP17FormatOrderedDataPc
3533:__ZNSt3__213__stable_sortIRNS_4lessIN4core12basic_stringIcNS2_20StringStorageDefaultIcEEEEEENS_11__wrap_iterIPS6_EEEEvT0_SC_T_NS_15iterator_traitsISC_E15difference_typeEPNSF_10value_typeEi
3534:__Z37remove_duplicates_using_copy_internalINSt3__211__wrap_iterIPN4core12basic_stringIcNS2_20StringStorageDefaultIcEEEEEENS0_4lessIS6_EEET_SB_SB_T0_
3535:__ZNSt3__26vectorIN4core12basic_stringIcNS1_20StringStorageDefaultIcEEEE13stl_allocatorIS5_L18MemLabelIdentifier81ELi16EEE5eraseENS_11__wrap_iterIPKS5_EESD_
3536:__ZNSt3__216__insertion_sortIRNS_4lessIN4core12basic_stringIcNS2_20StringStorageDefaultIcEEEEEENS_11__wrap_iterIPS6_EEEEvT0_SC_T_
3537:__ZNSt3__218__stable_sort_moveIRNS_4lessIN4core12basic_stringIcNS2_20StringStorageDefaultIcEEEEEENS_11__wrap_iterIPS6_EEEEvT0_SC_T_NS_15iterator_traitsISC_E15difference_typeEPNSF_10value_typeE
3538:__ZNSt3__219__merge_move_assignIRNS_4lessIN4core12basic_stringIcNS2_20StringStorageDefaultIcEEEEEEPS6_S9_NS_11__wrap_iterIS9_EEEEvT0_SC_T1_SD_T2_T_
3539:__ZNSt3__215__inplace_mergeIRNS_4lessIN4core12basic_stringIcNS2_20StringStorageDefaultIcEEEEEENS_11__wrap_iterIPS6_EEEEvT0_SC_SC_T_NS_15iterator_traitsISC_E15difference_typeESG_PNSF_10value_typeEi
3540:__ZNSt3__224__buffered_inplace_mergeIRNS_4lessIN4core12basic_stringIcNS2_20StringStorageDefaultIcEEEEEENS_11__wrap_iterIPS6_EEEEvT0_SC_SC_T_NS_15iterator_traitsISC_E15difference_typeESG_PNSF_10value_typeE
3541:__ZNSt3__216__rotate_forwardINS_11__wrap_iterIPN4core12basic_stringIcNS2_20StringStorageDefaultIcEEEEEEEET_S9_S9_S9_
3542:__ZNSt3__220__half_inplace_mergeINS_4lessIN4core12basic_stringIcNS2_20StringStorageDefaultIcEEEEEEPS6_NS_11__wrap_iterIS8_EESA_EEvT0_SB_T1_SC_T2_T_
3543:__ZNSt3__220__half_inplace_mergeINS_8__negateIRNS_4lessIN4core12basic_stringIcNS3_20StringStorageDefaultIcEEEEEEEENS_16reverse_iteratorIPS7_EENSB_INS_11__wrap_iterISC_EEEESG_EEvT0_SH_T1_SI_T2_T_
3544:__ZNSt3__221__insertion_sort_moveIRNS_4lessIN4core12basic_stringIcNS2_20StringStorageDefaultIcEEEEEENS_11__wrap_iterIPS6_EEEEvT0_SC_PNS_15iterator_traitsISC_E10value_typeET_
3545:__ZNSt3__222__merge_move_constructIRNS_4lessIN4core12basic_stringIcNS2_20StringStorageDefaultIcEEEEEENS_11__wrap_iterIPS6_EESB_EEvT0_SC_T1_SD_PNS_15iterator_traitsISC_E10value_typeET_
3546:__ZN18SpriteAtlasManagerD2Ev
3547:__ZN18SpriteAtlasManagerD0Ev
3548:__ZN4core8hash_setINS_4pairIKNS_12basic_stringIcNS_20StringStorageDefaultIcEEEE13dynamic_arrayI4PPtrI6SpriteELj0EELb1EEENS_9hash_pairINS_4hashIS5_EES6_SB_EENS_10equal_pairINSt3__28equal_toIS5_EES6_SB_EEE12delete_nodesEv
3549:__Z29InitializeSortingGroupManagerPv
3550:__Z26CleanupSortingGroupManagerPv
3551:__ZZ29InitializeSortingGroupManagerPvEN44PostLateUpdateSortingGroupsUpdateRegistrator7ForwardEv
3552:__ZN19SortingGroupManager6UpdateEv
3553:__ZNK9Transform11GetPositionEv
3554:__ZN6prcoreL17RemapGenericFloatI15TexFormatRFloat16TexFormatRGFloatEEvPKNS_9InnerInfoE
3555:__ZN6prcoreL17RemapGenericFloatI15TexFormatRFloat17TexFormatRGBFloatEEvPKNS_9InnerInfoE
3556:__ZN6prcoreL17RemapGenericFloatI15TexFormatRFloat18TexFormatRGBAFloatEEvPKNS_9InnerInfoE
3557:__ZN6prcoreL17RemapGenericFloatI15TexFormatRFloat18TexFormatARGBFloatEEvPKNS_9InnerInfoE
3558:__ZN6prcoreL17RemapGenericFloatI15TexFormatRFloat14TexFormatRHalfEEvPKNS_9InnerInfoE
3559:__ZN6prcoreL17RemapGenericFloatI15TexFormatRFloat15TexFormatRGHalfEEvPKNS_9InnerInfoE
3560:__ZN6prcoreL17RemapGenericFloatI15TexFormatRFloat17TexFormatRGBAHalfEEvPKNS_9InnerInfoE
3561:__ZN6prcoreL17RemapGenericFloatI16TexFormatRGFloat15TexFormatRFloatEEvPKNS_9InnerInfoE
3562:__ZN6prcoreL17RemapGenericFloatI16TexFormatRGFloat17TexFormatRGBFloatEEvPKNS_9InnerInfoE
3563:__ZN6prcoreL17RemapGenericFloatI16TexFormatRGFloat18TexFormatRGBAFloatEEvPKNS_9InnerInfoE
3564:__ZN6prcoreL17RemapGenericFloatI16TexFormatRGFloat18TexFormatARGBFloatEEvPKNS_9InnerInfoE
3565:__ZN6prcoreL17RemapGenericFloatI16TexFormatRGFloat14TexFormatRHalfEEvPKNS_9InnerInfoE
3566:__ZN6prcoreL17RemapGenericFloatI16TexFormatRGFloat15TexFormatRGHalfEEvPKNS_9InnerInfoE
3567:__ZN6prcoreL17RemapGenericFloatI16TexFormatRGFloat17TexFormatRGBAHalfEEvPKNS_9InnerInfoE
3568:__ZN6prcoreL17RemapGenericFloatI17TexFormatRGBFloat15TexFormatRFloatEEvPKNS_9InnerInfoE
3569:__ZN6prcoreL17RemapGenericFloatI17TexFormatRGBFloat16TexFormatRGFloatEEvPKNS_9InnerInfoE
3570:__ZN6prcoreL17RemapGenericFloatI17TexFormatRGBFloat18TexFormatRGBAFloatEEvPKNS_9InnerInfoE
3571:__ZN6prcoreL17RemapGenericFloatI17TexFormatRGBFloat18TexFormatARGBFloatEEvPKNS_9InnerInfoE
3572:__ZN6prcoreL17RemapGenericFloatI17TexFormatRGBFloat14TexFormatRHalfEEvPKNS_9InnerInfoE
3573:__ZN6prcoreL17RemapGenericFloatI17TexFormatRGBFloat15TexFormatRGHalfEEvPKNS_9InnerInfoE
3574:__ZN6prcoreL17RemapGenericFloatI17TexFormatRGBFloat17TexFormatRGBAHalfEEvPKNS_9InnerInfoE
3575:__ZN6prcoreL17RemapGenericFloatI18TexFormatRGBAFloat15TexFormatRFloatEEvPKNS_9InnerInfoE
3576:__ZN6prcoreL17RemapGenericFloatI18TexFormatRGBAFloat16TexFormatRGFloatEEvPKNS_9InnerInfoE
3577:__ZN6prcoreL17RemapGenericFloatI18TexFormatRGBAFloat17TexFormatRGBFloatEEvPKNS_9InnerInfoE
3578:__ZN6prcoreL17RemapGenericFloatI18TexFormatRGBAFloat18TexFormatARGBFloatEEvPKNS_9InnerInfoE
3579:__ZN6prcoreL17RemapGenericFloatI18TexFormatRGBAFloat14TexFormatRHalfEEvPKNS_9InnerInfoE
3580:__ZN6prcoreL17RemapGenericFloatI18TexFormatRGBAFloat15TexFormatRGHalfEEvPKNS_9InnerInfoE
3581:__ZN6prcoreL17RemapGenericFloatI18TexFormatRGBAFloat17TexFormatRGBAHalfEEvPKNS_9InnerInfoE
3582:__ZN6prcoreL17RGBAFloatToRGB9e5EPKNS_9InnerInfoE
3583:__ZN6prcoreL17RemapGenericFloatI18TexFormatARGBFloat15TexFormatRFloatEEvPKNS_9InnerInfoE
3584:__ZN6prcoreL17RemapGenericFloatI18TexFormatARGBFloat16TexFormatRGFloatEEvPKNS_9InnerInfoE
3585:__ZN6prcoreL17RemapGenericFloatI18TexFormatARGBFloat17TexFormatRGBFloatEEvPKNS_9InnerInfoE
3586:__ZN6prcoreL17RemapGenericFloatI18TexFormatARGBFloat18TexFormatRGBAFloatEEvPKNS_9InnerInfoE
3587:__ZN6prcoreL17RemapGenericFloatI18TexFormatARGBFloat14TexFormatRHalfEEvPKNS_9InnerInfoE
3588:__ZN6prcoreL17RemapGenericFloatI18TexFormatARGBFloat15TexFormatRGHalfEEvPKNS_9InnerInfoE
3589:__ZN6prcoreL17RemapGenericFloatI18TexFormatARGBFloat17TexFormatRGBAHalfEEvPKNS_9InnerInfoE
3590:__ZN6prcoreL17RemapGenericFloatI14TexFormatRHalf15TexFormatRFloatEEvPKNS_9InnerInfoE
3591:__ZN6prcoreL17RemapGenericFloatI14TexFormatRHalf16TexFormatRGFloatEEvPKNS_9InnerInfoE
3592:__ZN6prcoreL17RemapGenericFloatI14TexFormatRHalf17TexFormatRGBFloatEEvPKNS_9InnerInfoE
3593:__ZN6prcoreL17RemapGenericFloatI14TexFormatRHalf18TexFormatRGBAFloatEEvPKNS_9InnerInfoE
3594:__ZN6prcoreL17RemapGenericFloatI14TexFormatRHalf18TexFormatARGBFloatEEvPKNS_9InnerInfoE
3595:__ZN6prcoreL17RemapGenericFloatI14TexFormatRHalf15TexFormatRGHalfEEvPKNS_9InnerInfoE
3596:__ZN6prcoreL17RemapGenericFloatI14TexFormatRHalf17TexFormatRGBAHalfEEvPKNS_9InnerInfoE
3597:__ZN6prcoreL17RemapGenericFloatI15TexFormatRGHalf15TexFormatRFloatEEvPKNS_9InnerInfoE
3598:__ZN6prcoreL17RemapGenericFloatI15TexFormatRGHalf16TexFormatRGFloatEEvPKNS_9InnerInfoE
3599:__ZN6prcoreL17RemapGenericFloatI15TexFormatRGHalf17TexFormatRGBFloatEEvPKNS_9InnerInfoE
3600:__ZN6prcoreL17RemapGenericFloatI15TexFormatRGHalf18TexFormatRGBAFloatEEvPKNS_9InnerInfoE
3601:__ZN6prcoreL17RemapGenericFloatI15TexFormatRGHalf18TexFormatARGBFloatEEvPKNS_9InnerInfoE
3602:__ZN6prcoreL17RemapGenericFloatI15TexFormatRGHalf14TexFormatRHalfEEvPKNS_9InnerInfoE
3603:__ZN6prcoreL17RemapGenericFloatI15TexFormatRGHalf17TexFormatRGBAHalfEEvPKNS_9InnerInfoE
3604:__ZN6prcoreL17RemapGenericFloatI17TexFormatRGBAHalf15TexFormatRFloatEEvPKNS_9InnerInfoE
3605:__ZN6prcoreL17RemapGenericFloatI17TexFormatRGBAHalf16TexFormatRGFloatEEvPKNS_9InnerInfoE
3606:__ZN6prcoreL17RemapGenericFloatI17TexFormatRGBAHalf17TexFormatRGBFloatEEvPKNS_9InnerInfoE
3607:__ZN6prcoreL17RemapGenericFloatI17TexFormatRGBAHalf18TexFormatRGBAFloatEEvPKNS_9InnerInfoE
3608:__ZN6prcoreL17RemapGenericFloatI17TexFormatRGBAHalf18TexFormatARGBFloatEEvPKNS_9InnerInfoE
3609:__ZN6prcoreL17RemapGenericFloatI17TexFormatRGBAHalf14TexFormatRHalfEEvPKNS_9InnerInfoE
3610:__ZN6prcoreL17RemapGenericFloatI17TexFormatRGBAHalf15TexFormatRGHalfEEvPKNS_9InnerInfoE
3611:__ZN6prcoreL17RGB9e5ToRGBAFloatEPKNS_9InnerInfoE
3612:__ZN6prcoreL27StretchGenericFloatBilinearI15TexFormatRFloatEEvPKNS_9InnerInfoE
3613:__ZN6prcoreL27StretchGenericFloatBilinearI16TexFormatRGFloatEEvPKNS_9InnerInfoE
3614:__ZN6prcoreL27StretchGenericFloatBilinearI17TexFormatRGBFloatEEvPKNS_9InnerInfoE
3615:__ZN6prcoreL27StretchGenericFloatBilinearI18TexFormatRGBAFloatEEvPKNS_9InnerInfoE
3616:__ZN6prcoreL27StretchGenericFloatBilinearI14TexFormatRHalfEEvPKNS_9InnerInfoE
3617:__ZN6prcoreL27StretchGenericFloatBilinearI15TexFormatRGHalfEEvPKNS_9InnerInfoE
3618:__ZN6prcoreL27StretchGenericFloatBilinearI17TexFormatRGBAHalfEEvPKNS_9InnerInfoE
3619:__ZN6prcoreL21StretchRGB9e5BilinearEPKNS_9InnerInfoE
3620:__ZN6prcoreL26RemapGenericIntegerToFloatI17TexFormatARGB888815TexFormatRFloatEEvPKNS_9InnerInfoE
3621:__ZN6prcoreL26RemapGenericIntegerToFloatI17TexFormatARGB888816TexFormatRGFloatEEvPKNS_9InnerInfoE
3622:__ZN6prcoreL26RemapGenericIntegerToFloatI17TexFormatARGB888817TexFormatRGBFloatEEvPKNS_9InnerInfoE
3623:__ZN6prcoreL26RemapGenericIntegerToFloatI17TexFormatARGB888818TexFormatRGBAFloatEEvPKNS_9InnerInfoE
3624:__ZN6prcoreL26RemapGenericIntegerToFloatI17TexFormatARGB888818TexFormatARGBFloatEEvPKNS_9InnerInfoE
3625:__ZN6prcoreL26RemapGenericIntegerToFloatI17TexFormatARGB888814TexFormatRHalfEEvPKNS_9InnerInfoE
3626:__ZN6prcoreL26RemapGenericIntegerToFloatI17TexFormatARGB888815TexFormatRGHalfEEvPKNS_9InnerInfoE
3627:__ZN6prcoreL26RemapGenericIntegerToFloatI17TexFormatARGB888817TexFormatRGBAHalfEEvPKNS_9InnerInfoE
3628:__ZN6prcoreL16ARGB8888ToRGB9e5EPKNS_9InnerInfoE
3629:__ZN6prcoreL26RemapGenericFloatToIntegerI15TexFormatRFloat17TexFormatARGB8888EEvPKNS_9InnerInfoE
3630:__ZN6prcoreL26RemapGenericFloatToIntegerI16TexFormatRGFloat17TexFormatARGB8888EEvPKNS_9InnerInfoE
3631:__ZN6prcoreL26RemapGenericFloatToIntegerI17TexFormatRGBFloat17TexFormatARGB8888EEvPKNS_9InnerInfoE
3632:__ZN6prcoreL26RemapGenericFloatToIntegerI18TexFormatRGBAFloat17TexFormatARGB8888EEvPKNS_9InnerInfoE
3633:__ZN6prcoreL26RemapGenericFloatToIntegerI18TexFormatARGBFloat17TexFormatARGB8888EEvPKNS_9InnerInfoE
3634:__ZN6prcoreL26RemapGenericFloatToIntegerI14TexFormatRHalf17TexFormatARGB8888EEvPKNS_9InnerInfoE
3635:__ZN6prcoreL26RemapGenericFloatToIntegerI15TexFormatRGHalf17TexFormatARGB8888EEvPKNS_9InnerInfoE
3636:__ZN6prcoreL26RemapGenericFloatToIntegerI17TexFormatRGBAHalf17TexFormatARGB8888EEvPKNS_9InnerInfoE
3637:__ZN6prcoreL16RGB9e5ToARGB8888EPKNS_9InnerInfoE
3638:__ZN6prcoreL12RemapGenericI17TexFormatARGB888811TexFormatI8EEvPKNS_9InnerInfoE
3639:__ZN6prcoreL12RemapGenericI17TexFormatARGB888811TexFormatA8EEvPKNS_9InnerInfoE
3640:__ZN6prcoreL12RemapGenericI17TexFormatARGB888815TexFormatRGB565EEvPKNS_9InnerInfoE
3641:__ZN6prcoreL12RemapGenericI17TexFormatARGB888815TexFormatRGB888EEvPKNS_9InnerInfoE
3642:__ZN6prcoreL12RemapGenericI17TexFormatARGB888817TexFormatARGB1555EEvPKNS_9InnerInfoE
3643:__ZN6prcoreL12RemapGenericI17TexFormatARGB888817TexFormatARGB4444EEvPKNS_9InnerInfoE
3644:__ZN6prcoreL12RemapGenericI17TexFormatARGB888815TexFormatBGR888EEvPKNS_9InnerInfoE
3645:__ZN6prcoreL12RemapGenericI17TexFormatARGB888817TexFormatABGR8888EEvPKNS_9InnerInfoE
3646:__ZN6prcoreL12RemapGenericI17TexFormatARGB888817TexFormatRGBA4444EEvPKNS_9InnerInfoE
3647:__ZN6prcoreL12RemapGenericI17TexFormatARGB888817TexFormatBGRA8888EEvPKNS_9InnerInfoE
3648:__ZN6prcoreL12RemapGenericI17TexFormatARGB888817TexFormatRGBA8888EEvPKNS_9InnerInfoE
3649:__ZN6prcoreL12RemapGenericI17TexFormatARGB888811TexFormatR8EEvPKNS_9InnerInfoE
3650:__ZN6prcoreL12RemapGenericI17TexFormatARGB888813TexFormatRG88EEvPKNS_9InnerInfoE
3651:__ZN6prcoreL12RemapGenericI11TexFormatI817TexFormatARGB8888EEvPKNS_9InnerInfoE
3652:__ZN6prcoreL12RemapGenericI11TexFormatI815TexFormatRGB565EEvPKNS_9InnerInfoE
3653:__ZN6prcoreL12RemapGenericI11TexFormatI815TexFormatRGB888EEvPKNS_9InnerInfoE
3654:__ZN6prcoreL12RemapGenericI11TexFormatI817TexFormatARGB4444EEvPKNS_9InnerInfoE
3655:__ZN6prcoreL12RemapGenericI11TexFormatA817TexFormatARGB8888EEvPKNS_9InnerInfoE
3656:__ZN6prcoreL12RemapGenericI15TexFormatRGB56517TexFormatARGB8888EEvPKNS_9InnerInfoE
3657:__ZN6prcoreL12RemapGenericI15TexFormatRGB56511TexFormatI8EEvPKNS_9InnerInfoE
3658:__ZN6prcoreL12RemapGenericI15TexFormatRGB56515TexFormatRGB888EEvPKNS_9InnerInfoE
3659:__ZN6prcoreL12RemapGenericI15TexFormatRGB56517TexFormatARGB4444EEvPKNS_9InnerInfoE
3660:__ZN6prcoreL12RemapGenericI15TexFormatRGB56515TexFormatBGR888EEvPKNS_9InnerInfoE
3661:__ZN6prcoreL12RemapGenericI15TexFormatRGB88817TexFormatARGB8888EEvPKNS_9InnerInfoE
3662:__ZN6prcoreL12RemapGenericI15TexFormatRGB88811TexFormatI8EEvPKNS_9InnerInfoE
3663:__ZN6prcoreL12RemapGenericI15TexFormatRGB88815TexFormatRGB565EEvPKNS_9InnerInfoE
3664:__ZN6prcoreL12RemapGenericI15TexFormatRGB88817TexFormatARGB4444EEvPKNS_9InnerInfoE
3665:__ZN6prcoreL12RemapGenericI17TexFormatARGB155517TexFormatARGB8888EEvPKNS_9InnerInfoE
3666:__ZN6prcoreL12RemapGenericI17TexFormatARGB155517TexFormatRGBA8888EEvPKNS_9InnerInfoE
3667:__ZN6prcoreL12RemapGenericI17TexFormatARGB444417TexFormatARGB8888EEvPKNS_9InnerInfoE
3668:__ZN6prcoreL12RemapGenericI17TexFormatARGB444411TexFormatI8EEvPKNS_9InnerInfoE
3669:__ZN6prcoreL12RemapGenericI17TexFormatARGB444415TexFormatRGB565EEvPKNS_9InnerInfoE
3670:__ZN6prcoreL12RemapGenericI17TexFormatARGB444415TexFormatRGB888EEvPKNS_9InnerInfoE
3671:__ZN6prcoreL12RemapGenericI17TexFormatARGB444417TexFormatABGR8888EEvPKNS_9InnerInfoE
3672:__ZN6prcoreL12RemapGenericI15TexFormatBGR88817TexFormatARGB8888EEvPKNS_9InnerInfoE
3673:__ZN6prcoreL12RemapGenericI17TexFormatABGR888817TexFormatARGB8888EEvPKNS_9InnerInfoE
3674:__ZN6prcoreL12RemapGenericI17TexFormatRGBA444417TexFormatARGB8888EEvPKNS_9InnerInfoE
3675:__ZN6prcoreL12RemapGenericI17TexFormatRGBA444417TexFormatABGR8888EEvPKNS_9InnerInfoE
3676:__ZN6prcoreL12RemapGenericI17TexFormatBGRA888817TexFormatABGR8888EEvPKNS_9InnerInfoE
3677:__ZN6prcoreL12RemapGenericI17TexFormatRGBA888817TexFormatARGB8888EEvPKNS_9InnerInfoE
3678:__ZN6prcoreL12RemapGenericI17TexFormatRGBA888817TexFormatARGB1555EEvPKNS_9InnerInfoE
3679:__ZN6prcoreL12RemapGenericI11TexFormatR817TexFormatARGB8888EEvPKNS_9InnerInfoE
3680:__ZN6prcoreL12RemapGenericI13TexFormatRG8817TexFormatARGB8888EEvPKNS_9InnerInfoE
3681:__ZN6prcoreL13inner_stretchILj1ELj1EEEvPKNS_9InnerInfoE
3682:__ZN6prcoreL13inner_stretchILj2ELj2EEEvPKNS_9InnerInfoE
3683:__ZN6prcoreL13inner_stretchILj3ELj3EEEvPKNS_9InnerInfoE
3684:__ZN6prcoreL13inner_stretchILj4ELj4EEEvPKNS_9InnerInfoE
3685:__ZN6prcoreL31inner_stretch_argb8888_bilinearEPKNS_9InnerInfoE
3686:__ZN6prcoreL25inner_stretch_i8_bilinearEPKNS_9InnerInfoE
3687:__ZN6prcoreL29inner_stretch_rgb565_bilinearEPKNS_9InnerInfoE
3688:__ZN6prcoreL29inner_stretch_rgb888_bilinearEPKNS_9InnerInfoE
3689:__ZN6prcoreL31inner_stretch_argb4444_bilinearEPKNS_9InnerInfoE
3690:__ZN6prcoreL27inner_stretch_rg88_bilinearEPKNS_9InnerInfoE
3691:__Z16rgb9e5_to_float36rgb9e5P10ColorRGBAf
3692:__Z16float3_to_rgb9e5RK10ColorRGBAfP6rgb9e5
3693:__ZN17ScriptingGCHandle7AcquireE18ScriptingObjectPtr25ScriptingGCHandleWeakness
3694:__ZL50__ManagedRegistrationHelperFunction_AllocatorProxyPv
3695:__ZL75__ManagedRegistrationHelperFunction_DeallocateOnJobCompletionAttributeProxyPv
3696:__ZL65__ManagedRegistrationHelperFunction_NativeContainerAttributeProxyPv
3697:__ZL82__ManagedRegistrationHelperFunction_NativeContainerIsAtomicWriteOnlyAttributeProxyPv
3698:__ZL75__ManagedRegistrationHelperFunction_NativeContainerIsReadOnlyAttributeProxyPv
3699:__ZL81__ManagedRegistrationHelperFunction_NativeContainerNeedsThreadIndexAttributeProxyPv
3700:__ZL98__ManagedRegistrationHelperFunction_NativeContainerSupportsDeallocateOnJobCompletionAttributeProxyPv
3701:__ZL90__ManagedRegistrationHelperFunction_NativeContainerSupportsDeferredConvertListToArrayProxyPv
3702:__ZL95__ManagedRegistrationHelperFunction_NativeContainerSupportsMinMaxWriteRestrictionAttributeProxyPv
3703:__ZL89__ManagedRegistrationHelperFunction_NativeDisableContainerSafetyRestrictionAttributeProxyPv
3704:__ZL83__ManagedRegistrationHelperFunction_NativeDisableUnsafePtrRestrictionAttributeProxyPv
3705:__ZL84__ManagedRegistrationHelperFunction_NativeSetClassTypeToNullOnScheduleAttributeProxyPv
3706:__ZL70__ManagedRegistrationHelperFunction_NativeSetThreadIndexAttributeProxyPv
3707:__ZL85__ManagedRegistrationHelperFunction_NativeDisableParallelForRestrictionAttributeProxyPv
3708:__ZL67__ManagedRegistrationHelperFunction_NativeFixedLengthAttributeProxyPv
3709:__ZL80__ManagedRegistrationHelperFunction_NativeMatchesParallelForLengthAttributeProxyPv
3710:__ZL58__ManagedRegistrationHelperFunction_ReadOnlyAttributeProxyPv
3711:__ZL59__ManagedRegistrationHelperFunction_WriteOnlyAttributeProxyPv
3712:__ZL55__ManagedRegistrationHelperFunction_AnimationCurveProxyPv
3713:__ZL52__ManagedRegistrationHelperFunction_ApplicationProxyPv
3714:__ZL65__ManagedRegistrationHelperFunction_AssemblyIsEditorAssemblyProxyPv
3715:__ZL57__ManagedRegistrationHelperFunction_YieldInstructionProxyPv
3716:__ZL55__ManagedRegistrationHelperFunction_AsyncOperationProxyPv
3717:__ZL62__ManagedRegistrationHelperFunction_AttributeHelperEngineProxyPv
3718:__ZL47__ManagedRegistrationHelperFunction_ObjectProxyPv
3719:__ZL50__ManagedRegistrationHelperFunction_ComponentProxyPv
3720:__ZL50__ManagedRegistrationHelperFunction_BehaviourProxyPv
3721:__ZL51__ManagedRegistrationHelperFunction_BoneWeightProxyPv
3722:__ZL55__ManagedRegistrationHelperFunction_BootConfigDataProxyPv
3723:__ZL48__ManagedRegistrationHelperFunction_Vector3ProxyPv
3724:__ZL47__ManagedRegistrationHelperFunction_BoundsProxyPv
3725:__ZL50__ManagedRegistrationHelperFunction_BoundsIntProxyPv
3726:__ZL58__ManagedRegistrationHelperFunction_CachedAssetBundleProxyPv
3727:__ZL51__ManagedRegistrationHelperFunction_CacheIndexProxyPv
3728:__ZL47__ManagedRegistrationHelperFunction_CameraProxyPv
3729:__ZL64__ManagedRegistrationHelperFunction_ClassLibraryInitializerProxyPv
3730:__ZL46__ManagedRegistrationHelperFunction_ColorProxyPv
3731:__ZL48__ManagedRegistrationHelperFunction_Color32ProxyPv
3732:__ZL51__ManagedRegistrationHelperFunction_ColorGamutProxyPv
3733:__ZL54__ManagedRegistrationHelperFunction_ComputeBufferProxyPv
3734:__ZL52__ManagedRegistrationHelperFunction_ContextMenuProxyPv
3735:__ZL50__ManagedRegistrationHelperFunction_CoroutineProxyPv
3736:__ZL48__ManagedRegistrationHelperFunction_TextureProxyPv
3737:__ZL48__ManagedRegistrationHelperFunction_CubemapProxyPv
3738:__ZL53__ManagedRegistrationHelperFunction_CullingGroupProxyPv
3739:__ZL54__ManagedRegistrationHelperFunction_RenderTextureProxyPv
3740:__ZL60__ManagedRegistrationHelperFunction_CustomRenderTextureProxyPv
3741:__ZL70__ManagedRegistrationHelperFunction_CustomRenderTextureUpdateZoneProxyPv
3742:__ZL62__ManagedRegistrationHelperFunction_DefaultExecutionOrderProxyPv
3743:__ZL57__ManagedRegistrationHelperFunction_DiagnosticSwitchProxyPv
3744:__ZL48__ManagedRegistrationHelperFunction_DisplayProxyPv
3745:__ZL49__ManagedRegistrationHelperFunction_EnumInfoProxyPv
3746:__ZL55__ManagedRegistrationHelperFunction_UnityEventBaseProxyPv
3747:__ZL51__ManagedRegistrationHelperFunction_UnityEventProxyPv
3748:__ZL74__ManagedRegistrationHelperFunction_ExcludeFromObjectFactoryAttributeProxyPv
3749:__ZL67__ManagedRegistrationHelperFunction_ExcludeFromPresetAttributeProxyPv
3750:__ZL52__ManagedRegistrationHelperFunction_LightDataGIProxyPv
3751:__ZL53__ManagedRegistrationHelperFunction_LightmappingProxyPv
3752:__ZL65__ManagedRegistrationHelperFunction_PlayerLoopSystemInternalProxyPv
3753:__ZL55__ManagedRegistrationHelperFunction_CameraPlayableProxyPv
3754:__ZL63__ManagedRegistrationHelperFunction_MaterialEffectPlayableProxyPv
3755:__ZL61__ManagedRegistrationHelperFunction_TextureMixerPlayableProxyPv
3756:__ZL62__ManagedRegistrationHelperFunction_TexturePlayableOutputProxyPv
3757:__ZL52__ManagedRegistrationHelperFunction_EarlyUpdateProxyPv
3758:__ZL52__ManagedRegistrationHelperFunction_FixedUpdateProxyPv
3759:__ZL55__ManagedRegistrationHelperFunction_InitializationProxyPv
3760:__ZL55__ManagedRegistrationHelperFunction_PostLateUpdateProxyPv
3761:__ZL54__ManagedRegistrationHelperFunction_PreLateUpdateProxyPv
3762:__ZL50__ManagedRegistrationHelperFunction_PreUpdateProxyPv
3763:__ZL47__ManagedRegistrationHelperFunction_UpdateProxyPv
3764:__ZL57__ManagedRegistrationHelperFunction_CameraPropertiesProxyPv
3765:__ZL57__ManagedRegistrationHelperFunction_CoreCameraValuesProxyPv
3766:__ZL52__ManagedRegistrationHelperFunction_CullResultsProxyPv
3767:__ZL60__ManagedRegistrationHelperFunction_DrawShadowsSettingsProxyPv
3768:__ZL62__ManagedRegistrationHelperFunction_RenderPipelineManagerProxyPv
3769:__ZL68__ManagedRegistrationHelperFunction_ScriptableCullingParametersProxyPv
3770:__ZL56__ManagedRegistrationHelperFunction_ShadowSplitDataProxyPv
3771:__ZL67__ManagedRegistrationHelperFunction_SupportedRenderingFeaturesProxyPv
3772:__ZL53__ManagedRegistrationHelperFunction_VisibleLightProxyPv
3773:__ZL63__ManagedRegistrationHelperFunction_VisibleReflectionProbeProxyPv
3774:__ZL51__ManagedRegistrationHelperFunction_SpriteBoneProxyPv
3775:__ZL65__ManagedRegistrationHelperFunction_FailedToLoadScriptObjectProxyPv
3776:__ZL51__ManagedRegistrationHelperFunction_GameObjectProxyPv
3777:__ZL49__ManagedRegistrationHelperFunction_GradientProxyPv
3778:__ZL57__ManagedRegistrationHelperFunction_GradientAlphaKeyProxyPv
3779:__ZL57__ManagedRegistrationHelperFunction_GradientColorKeyProxyPv
3780:__ZL48__ManagedRegistrationHelperFunction_Hash128ProxyPv
3781:__ZL57__ManagedRegistrationHelperFunction_HelpURLAttributeProxyPv
3782:__ZL56__ManagedRegistrationHelperFunction_HideInInspectorProxyPv
3783:__ZL62__ManagedRegistrationHelperFunction_ImageEffectAfterScaleProxyPv
3784:__ZL58__ManagedRegistrationHelperFunction_ImageEffectOpaqueProxyPv
3785:__ZL67__ManagedRegistrationHelperFunction_ImageEffectTransformsToLDRProxyPv
3786:__ZL49__ManagedRegistrationHelperFunction_KeyframeProxyPv
3787:__ZL50__ManagedRegistrationHelperFunction_LayerMaskProxyPv
3788:__ZL53__ManagedRegistrationHelperFunction_LightmapDataProxyPv
3789:__ZL44__ManagedRegistrationHelperFunction_LODProxyPv
3790:__ZL60__ManagedRegistrationHelperFunction_LowerResBlitTextureProxyPv
3791:__ZL61__ManagedRegistrationHelperFunction_ManagedStreamHelpersProxyPv
3792:__ZL49__ManagedRegistrationHelperFunction_MaterialProxyPv
3793:__ZL50__ManagedRegistrationHelperFunction_Matrix4x4ProxyPv
3794:__ZL45__ManagedRegistrationHelperFunction_MeshProxyPv
3795:__ZL51__ManagedRegistrationHelperFunction_MeshFilterProxyPv
3796:__ZL49__ManagedRegistrationHelperFunction_RendererProxyPv
3797:__ZL53__ManagedRegistrationHelperFunction_MeshRendererProxyPv
3798:__ZL54__ManagedRegistrationHelperFunction_MonoBehaviourProxyPv
3799:__ZL57__ManagedRegistrationHelperFunction_ScriptableObjectProxyPv
3800:__ZL57__ManagedRegistrationHelperFunction_PlayerConnectionProxyPv
3801:__ZL46__ManagedRegistrationHelperFunction_PlaneProxyPv
3802:__ZL49__ManagedRegistrationHelperFunction_PlayableProxyPv
3803:__ZL54__ManagedRegistrationHelperFunction_PlayableAssetProxyPv
3804:__ZL58__ManagedRegistrationHelperFunction_PlayableBehaviourProxyPv
3805:__ZL54__ManagedRegistrationHelperFunction_PlayableGraphProxyPv
3806:__ZL55__ManagedRegistrationHelperFunction_PlayableHandleProxyPv
3807:__ZL55__ManagedRegistrationHelperFunction_PlayableOutputProxyPv
3808:__ZL61__ManagedRegistrationHelperFunction_PlayableOutputHandleProxyPv
3809:__ZL61__ManagedRegistrationHelperFunction_ScriptPlayableOutputProxyPv
3810:__ZL66__ManagedRegistrationHelperFunction_PreferBinarySerializationProxyPv
3811:__ZL52__ManagedRegistrationHelperFunction_PreloadDataProxyPv
3812:__ZL48__ManagedRegistrationHelperFunction_SamplerProxyPv
3813:__ZL54__ManagedRegistrationHelperFunction_CustomSamplerProxyPv
3814:__ZL49__ManagedRegistrationHelperFunction_ProfilerProxyPv
3815:__ZL49__ManagedRegistrationHelperFunction_RecorderProxyPv
3816:__ZL53__ManagedRegistrationHelperFunction_PropertyNameProxyPv
3817:__ZL51__ManagedRegistrationHelperFunction_QuaternionProxyPv
3818:__ZL45__ManagedRegistrationHelperFunction_RectProxyPv
3819:__ZL48__ManagedRegistrationHelperFunction_RectIntProxyPv
3820:__ZL51__ManagedRegistrationHelperFunction_RectOffsetProxyPv
3821:__ZL50__ManagedRegistrationHelperFunction_TransformProxyPv
3822:__ZL54__ManagedRegistrationHelperFunction_RectTransformProxyPv
3823:__ZL56__ManagedRegistrationHelperFunction_ReflectionProbeProxyPv
3824:__ZL64__ManagedRegistrationHelperFunction_AsyncGPUReadbackRequestProxyPv
3825:__ZL54__ManagedRegistrationHelperFunction_CommandBufferProxyPv
3826:__ZL49__ManagedRegistrationHelperFunction_GPUFenceProxyPv
3827:__ZL59__ManagedRegistrationHelperFunction_GraphicsDeviceTypeProxyPv
3828:__ZL59__ManagedRegistrationHelperFunction_PlatformKeywordSetProxyPv
3829:__ZL65__ManagedRegistrationHelperFunction_ReflectionProbeBlendInfoProxyPv
3830:__ZL54__ManagedRegistrationHelperFunction_ShaderKeywordProxyPv
3831:__ZL57__ManagedRegistrationHelperFunction_ShaderKeywordSetProxyPv
3832:__ZL61__ManagedRegistrationHelperFunction_SphericalHarmonicsL2ProxyPv
3833:__ZL51__ManagedRegistrationHelperFunction_ResolutionProxyPv
3834:__ZL56__ManagedRegistrationHelperFunction_ResourceRequestProxyPv
3835:__ZL53__ManagedRegistrationHelperFunction_SceneManagerProxyPv
3836:__ZL56__ManagedRegistrationHelperFunction_SendMouseEventsProxyPv
3837:__ZL70__ManagedRegistrationHelperFunction_FormerlySerializedAsAttributeProxyPv
3838:__ZL55__ManagedRegistrationHelperFunction_SerializeFieldProxyPv
3839:__ZL66__ManagedRegistrationHelperFunction_SerializePrivateVariablesProxyPv
3840:__ZL55__ManagedRegistrationHelperFunction_SetupCoroutineProxyPv
3841:__ZL47__ManagedRegistrationHelperFunction_SpriteProxyPv
3842:__ZL58__ManagedRegistrationHelperFunction_StackTraceUtilityProxyPv
3843:__ZL50__ManagedRegistrationHelperFunction_Texture2DProxyPv
3844:__ZL55__ManagedRegistrationHelperFunction_Texture2DArrayProxyPv
3845:__ZL50__ManagedRegistrationHelperFunction_Texture3DProxyPv
3846:__ZL57__ManagedRegistrationHelperFunction_TrackedReferenceProxyPv
3847:__ZL59__ManagedRegistrationHelperFunction_SpriteAtlasManagerProxyPv
3848:__ZL55__ManagedRegistrationHelperFunction_UnityExceptionProxyPv
3849:__ZL68__ManagedRegistrationHelperFunction_UnitySynchronizationContextProxyPv
3850:__ZL48__ManagedRegistrationHelperFunction_Vector2ProxyPv
3851:__ZL51__ManagedRegistrationHelperFunction_Vector2IntProxyPv
3852:__ZL51__ManagedRegistrationHelperFunction_Vector3IntProxyPv
3853:__ZL48__ManagedRegistrationHelperFunction_Vector4ProxyPv
3854:__ZL58__ManagedRegistrationHelperFunction_WaitForEndOfFrameProxyPv
3855:__ZL59__ManagedRegistrationHelperFunction_WaitForFixedUpdateProxyPv
3856:__ZL55__ManagedRegistrationHelperFunction_WaitForSecondsProxyPv
3857:__ZN9Scripting11UnityEngine19WaitForSecondsProxy9InitProxyEv
3858:__ZN9Scripting11UnityEngine19WaitForSecondsProxy12CleanupProxyEv
3859:__ZN35ScriptingManagedObjectProxyRegistry13RegisterProxyEPKcPFvvES3_
3860:__Z19scripting_array_new17ScriptingClassPtrjj
3861:__ZN17ScriptingGCHandle13AcquireStrongE18ScriptingObjectPtr
3862:__ZN9Scripting11UnityEngine23WaitForFixedUpdateProxy9InitProxyEv
3863:__ZN9Scripting11UnityEngine23WaitForFixedUpdateProxy12CleanupProxyEv
3864:__ZN9Scripting11UnityEngine22WaitForEndOfFrameProxy9InitProxyEv
3865:__ZN9Scripting11UnityEngine22WaitForEndOfFrameProxy12CleanupProxyEv
3866:__ZN9Scripting11UnityEngine12Vector4Proxy9InitProxyEv
3867:__ZN9Scripting11UnityEngine12Vector4Proxy12CleanupProxyEv
3868:__ZN9Scripting11UnityEngine15Vector3IntProxy9InitProxyEv
3869:__ZN9Scripting11UnityEngine15Vector3IntProxy12CleanupProxyEv
3870:__ZN9Scripting11UnityEngine15Vector2IntProxy9InitProxyEv
3871:__ZN9Scripting11UnityEngine15Vector2IntProxy12CleanupProxyEv
3872:__ZN9Scripting11UnityEngine12Vector2Proxy9InitProxyEv
3873:__ZN9Scripting11UnityEngine12Vector2Proxy12CleanupProxyEv
3874:__ZN9Scripting11UnityEngine32UnitySynchronizationContextProxy9InitProxyEv
3875:__ZN9Scripting11UnityEngine32UnitySynchronizationContextProxy12CleanupProxyEv
3876:__ZN9Scripting11UnityEngine19UnityExceptionProxy9InitProxyEv
3877:__ZN9Scripting11UnityEngine19UnityExceptionProxy12CleanupProxyEv
3878:__ZN9Scripting11UnityEngine3U2D23SpriteAtlasManagerProxy9InitProxyEv
3879:__ZN9Scripting11UnityEngine3U2D23SpriteAtlasManagerProxy12CleanupProxyEv
3880:__ZN9Scripting11UnityEngine21TrackedReferenceProxy9InitProxyEv
3881:__ZN9Scripting11UnityEngine21TrackedReferenceProxy12CleanupProxyEv
3882:__ZN9Scripting11UnityEngine14Texture3DProxy9InitProxyEv
3883:__ZN9Scripting11UnityEngine14Texture3DProxy12CleanupProxyEv
3884:__ZN9Scripting11UnityEngine19Texture2DArrayProxy9InitProxyEv
3885:__ZN9Scripting11UnityEngine19Texture2DArrayProxy12CleanupProxyEv
3886:__ZN9Scripting11UnityEngine14Texture2DProxy9InitProxyEv
3887:__ZN9Scripting11UnityEngine14Texture2DProxy12CleanupProxyEv
3888:__ZN9Scripting11UnityEngine22StackTraceUtilityProxy9InitProxyEv
3889:__ZN9Scripting11UnityEngine22StackTraceUtilityProxy12CleanupProxyEv
3890:__ZN9Scripting11UnityEngine11SpriteProxy9InitProxyEv
3891:__ZN9Scripting11UnityEngine11SpriteProxy12CleanupProxyEv
3892:__ZN9Scripting11UnityEngine19SetupCoroutineProxy9InitProxyEv
3893:__ZN9Scripting11UnityEngine19SetupCoroutineProxy12CleanupProxyEv
3894:__ZN9Scripting11UnityEngine30SerializePrivateVariablesProxy9InitProxyEv
3895:__ZN9Scripting11UnityEngine30SerializePrivateVariablesProxy12CleanupProxyEv
3896:__ZN9Scripting11UnityEngine19SerializeFieldProxy9InitProxyEv
3897:__ZN9Scripting11UnityEngine19SerializeFieldProxy12CleanupProxyEv
3898:__ZN9Scripting11UnityEngine13Serialization34FormerlySerializedAsAttributeProxy9InitProxyEv
3899:__ZN9Scripting11UnityEngine13Serialization34FormerlySerializedAsAttributeProxy12CleanupProxyEv
3900:__ZN9Scripting11UnityEngine20SendMouseEventsProxy9InitProxyEv
3901:__ZN9Scripting11UnityEngine20SendMouseEventsProxy12CleanupProxyEv
3902:__ZN9Scripting11UnityEngine15SceneManagement17SceneManagerProxy9InitProxyEv
3903:__ZN9Scripting11UnityEngine15SceneManagement17SceneManagerProxy12CleanupProxyEv
3904:__ZN9Scripting11UnityEngine20ResourceRequestProxy9InitProxyEv
3905:__ZN9Scripting11UnityEngine20ResourceRequestProxy12CleanupProxyEv
3906:__ZN9Scripting11UnityEngine15ResolutionProxy9InitProxyEv
3907:__ZN9Scripting11UnityEngine15ResolutionProxy12CleanupProxyEv
3908:__ZN9Scripting11UnityEngine9Rendering25SphericalHarmonicsL2Proxy9InitProxyEv
3909:__ZN9Scripting11UnityEngine9Rendering25SphericalHarmonicsL2Proxy12CleanupProxyEv
3910:__ZN9Scripting11UnityEngine9Rendering21ShaderKeywordSetProxy9InitProxyEv
3911:__ZN9Scripting11UnityEngine9Rendering21ShaderKeywordSetProxy12CleanupProxyEv
3912:__ZN9Scripting11UnityEngine9Rendering18ShaderKeywordProxy9InitProxyEv
3913:__ZN9Scripting11UnityEngine9Rendering18ShaderKeywordProxy12CleanupProxyEv
3914:__ZN9Scripting11UnityEngine9Rendering29ReflectionProbeBlendInfoProxy9InitProxyEv
3915:__ZN9Scripting11UnityEngine9Rendering29ReflectionProbeBlendInfoProxy12CleanupProxyEv
3916:__ZN9Scripting11UnityEngine9Rendering23PlatformKeywordSetProxy9InitProxyEv
3917:__ZN9Scripting11UnityEngine9Rendering23PlatformKeywordSetProxy12CleanupProxyEv
3918:__ZN9Scripting11UnityEngine9Rendering23GraphicsDeviceTypeProxy9InitProxyEv
3919:__ZN9Scripting11UnityEngine9Rendering23GraphicsDeviceTypeProxy12CleanupProxyEv
3920:__ZN9Scripting11UnityEngine9Rendering13GPUFenceProxy9InitProxyEv
3921:__ZN9Scripting11UnityEngine9Rendering13GPUFenceProxy12CleanupProxyEv
3922:__ZN9Scripting11UnityEngine9Rendering18CommandBufferProxy9InitProxyEv
3923:__ZN9Scripting11UnityEngine9Rendering18CommandBufferProxy12CleanupProxyEv
3924:__ZN9Scripting11UnityEngine9Rendering28AsyncGPUReadbackRequestProxy9InitProxyEv
3925:__ZN9Scripting11UnityEngine9Rendering28AsyncGPUReadbackRequestProxy12CleanupProxyEv
3926:__ZN9Scripting11UnityEngine20ReflectionProbeProxy9InitProxyEv
3927:__ZN9Scripting11UnityEngine20ReflectionProbeProxy12CleanupProxyEv
3928:__ZN9Scripting11UnityEngine18RectTransformProxy9InitProxyEv
3929:__ZN9Scripting11UnityEngine18RectTransformProxy12CleanupProxyEv
3930:__ZN9Scripting11UnityEngine14TransformProxy9InitProxyEv
3931:__ZN9Scripting11UnityEngine14TransformProxy12CleanupProxyEv
3932:__ZN9Scripting11UnityEngine15RectOffsetProxy9InitProxyEv
3933:__ZN9Scripting11UnityEngine15RectOffsetProxy12CleanupProxyEv
3934:__ZN9Scripting11UnityEngine12RectIntProxy9InitProxyEv
3935:__ZN9Scripting11UnityEngine12RectIntProxy12CleanupProxyEv
3936:__ZN9Scripting11UnityEngine9RectProxy9InitProxyEv
3937:__ZN9Scripting11UnityEngine9RectProxy12CleanupProxyEv
3938:__ZN9Scripting11UnityEngine15QuaternionProxy9InitProxyEv
3939:__ZN9Scripting11UnityEngine15QuaternionProxy12CleanupProxyEv
3940:__ZN9Scripting11UnityEngine17PropertyNameProxy9InitProxyEv
3941:__ZN9Scripting11UnityEngine17PropertyNameProxy12CleanupProxyEv
3942:__ZN9Scripting11UnityEngine9Profiling13RecorderProxy9InitProxyEv
3943:__ZN9Scripting11UnityEngine9Profiling13RecorderProxy12CleanupProxyEv
3944:__ZN9Scripting11UnityEngine9Profiling13ProfilerProxy9InitProxyEv
3945:__ZN9Scripting11UnityEngine9Profiling13ProfilerProxy12CleanupProxyEv
3946:__ZN9Scripting11UnityEngine9Profiling18CustomSamplerProxy9InitProxyEv
3947:__ZN9Scripting11UnityEngine9Profiling18CustomSamplerProxy12CleanupProxyEv
3948:__ZN9Scripting11UnityEngine9Profiling12SamplerProxy9InitProxyEv
3949:__ZN9Scripting11UnityEngine9Profiling12SamplerProxy12CleanupProxyEv
3950:__ZN9Scripting11UnityEngine16PreloadDataProxy9InitProxyEv
3951:__ZN9Scripting11UnityEngine16PreloadDataProxy12CleanupProxyEv
3952:__ZN9Scripting11UnityEngine30PreferBinarySerializationProxy9InitProxyEv
3953:__ZN9Scripting11UnityEngine30PreferBinarySerializationProxy12CleanupProxyEv
3954:__ZN9Scripting11UnityEngine9Playables25ScriptPlayableOutputProxy9InitProxyEv
3955:__ZN9Scripting11UnityEngine9Playables25ScriptPlayableOutputProxy12CleanupProxyEv
3956:__ZN9Scripting11UnityEngine9Playables25PlayableOutputHandleProxy9InitProxyEv
3957:__ZN9Scripting11UnityEngine9Playables25PlayableOutputHandleProxy12CleanupProxyEv
3958:__ZN9Scripting11UnityEngine9Playables19PlayableOutputProxy9InitProxyEv
3959:__ZN9Scripting11UnityEngine9Playables19PlayableOutputProxy12CleanupProxyEv
3960:__ZN9Scripting11UnityEngine9Playables19PlayableHandleProxy9InitProxyEv
3961:__ZN9Scripting11UnityEngine9Playables19PlayableHandleProxy12CleanupProxyEv
3962:__ZN9Scripting11UnityEngine9Playables18PlayableGraphProxy9InitProxyEv
3963:__ZN9Scripting11UnityEngine9Playables18PlayableGraphProxy12CleanupProxyEv
3964:__ZN9Scripting11UnityEngine9Playables22PlayableBehaviourProxy9InitProxyEv
3965:__ZN9Scripting11UnityEngine9Playables22PlayableBehaviourProxy12CleanupProxyEv
3966:__ZN9Scripting11UnityEngine9Playables18PlayableAssetProxy9InitProxyEv
3967:__ZN9Scripting11UnityEngine9Playables18PlayableAssetProxy12CleanupProxyEv
3968:__ZN9Scripting11UnityEngine9Playables13PlayableProxy9InitProxyEv
3969:__ZN9Scripting11UnityEngine9Playables13PlayableProxy12CleanupProxyEv
3970:__ZN9Scripting11UnityEngine10PlaneProxy9InitProxyEv
3971:__ZN9Scripting11UnityEngine10PlaneProxy12CleanupProxyEv
3972:__ZN9Scripting11UnityEngine10Networking16PlayerConnection21PlayerConnectionProxy9InitProxyEv
3973:__ZN9Scripting11UnityEngine10Networking16PlayerConnection21PlayerConnectionProxy12CleanupProxyEv
3974:__ZN9Scripting11UnityEngine21ScriptableObjectProxy9InitProxyEv
3975:__ZN9Scripting11UnityEngine21ScriptableObjectProxy12CleanupProxyEv
3976:__ZN9Scripting11UnityEngine18MonoBehaviourProxy9InitProxyEv
3977:__ZN9Scripting11UnityEngine18MonoBehaviourProxy12CleanupProxyEv
3978:__ZN9Scripting11UnityEngine17MeshRendererProxy9InitProxyEv
3979:__ZN9Scripting11UnityEngine17MeshRendererProxy12CleanupProxyEv
3980:__ZN9Scripting11UnityEngine13RendererProxy9InitProxyEv
3981:__ZN9Scripting11UnityEngine13RendererProxy12CleanupProxyEv
3982:__ZN9Scripting11UnityEngine15MeshFilterProxy9InitProxyEv
3983:__ZN9Scripting11UnityEngine15MeshFilterProxy12CleanupProxyEv
3984:__ZN9Scripting11UnityEngine9MeshProxy9InitProxyEv
3985:__ZN9Scripting11UnityEngine9MeshProxy12CleanupProxyEv
3986:__ZN9Scripting11UnityEngine14Matrix4x4Proxy9InitProxyEv
3987:__ZN9Scripting11UnityEngine14Matrix4x4Proxy12CleanupProxyEv
3988:__ZN9Scripting11UnityEngine13MaterialProxy9InitProxyEv
3989:__ZN9Scripting11UnityEngine13MaterialProxy12CleanupProxyEv
3990:__ZN9Scripting11UnityEngine25ManagedStreamHelpersProxy9InitProxyEv
3991:__ZN9Scripting11UnityEngine25ManagedStreamHelpersProxy12CleanupProxyEv
3992:__ZN9Scripting11UnityEngine24LowerResBlitTextureProxy9InitProxyEv
3993:__ZN9Scripting11UnityEngine24LowerResBlitTextureProxy12CleanupProxyEv
3994:__ZN9Scripting11UnityEngine8LODProxy9InitProxyEv
3995:__ZN9Scripting11UnityEngine8LODProxy12CleanupProxyEv
3996:__ZN9Scripting11UnityEngine17LightmapDataProxy9InitProxyEv
3997:__ZN9Scripting11UnityEngine17LightmapDataProxy12CleanupProxyEv
3998:__ZN9Scripting11UnityEngine14LayerMaskProxy9InitProxyEv
3999:__ZN9Scripting11UnityEngine14LayerMaskProxy12CleanupProxyEv
4000:__ZN9Scripting11UnityEngine13KeyframeProxy9InitProxyEv
4001:__ZN9Scripting11UnityEngine13KeyframeProxy12CleanupProxyEv
4002:__ZN9Scripting11UnityEngine31ImageEffectTransformsToLDRProxy9InitProxyEv
4003:__ZN9Scripting11UnityEngine31ImageEffectTransformsToLDRProxy12CleanupProxyEv
4004:__ZN9Scripting11UnityEngine22ImageEffectOpaqueProxy9InitProxyEv
4005:__ZN9Scripting11UnityEngine22ImageEffectOpaqueProxy12CleanupProxyEv
4006:__ZN9Scripting11UnityEngine26ImageEffectAfterScaleProxy9InitProxyEv
4007:__ZN9Scripting11UnityEngine26ImageEffectAfterScaleProxy12CleanupProxyEv
4008:__ZN9Scripting11UnityEngine20HideInInspectorProxy9InitProxyEv
4009:__ZN9Scripting11UnityEngine20HideInInspectorProxy12CleanupProxyEv
4010:__ZN9Scripting11UnityEngine21HelpURLAttributeProxy9InitProxyEv
4011:__ZN9Scripting11UnityEngine21HelpURLAttributeProxy12CleanupProxyEv
4012:__ZN9Scripting11UnityEngine12Hash128Proxy9InitProxyEv
4013:__ZN9Scripting11UnityEngine12Hash128Proxy12CleanupProxyEv
4014:__ZN9Scripting11UnityEngine21GradientColorKeyProxy9InitProxyEv
4015:__ZN9Scripting11UnityEngine21GradientColorKeyProxy12CleanupProxyEv
4016:__ZN9Scripting11UnityEngine21GradientAlphaKeyProxy9InitProxyEv
4017:__ZN9Scripting11UnityEngine21GradientAlphaKeyProxy12CleanupProxyEv
4018:__ZN9Scripting11UnityEngine13GradientProxy9InitProxyEv
4019:__ZN9Scripting11UnityEngine13GradientProxy12CleanupProxyEv
4020:__ZN9Scripting11UnityEngine15GameObjectProxy9InitProxyEv
4021:__ZN9Scripting11UnityEngine15GameObjectProxy12CleanupProxyEv
4022:__ZN9Scripting11UnityEngine29FailedToLoadScriptObjectProxy9InitProxyEv
4023:__ZN9Scripting11UnityEngine29FailedToLoadScriptObjectProxy12CleanupProxyEv
4024:__ZN9Scripting11UnityEngine12Experimental3U2D15SpriteBoneProxy9InitProxyEv
4025:__ZN9Scripting11UnityEngine12Experimental3U2D15SpriteBoneProxy12CleanupProxyEv
4026:__ZN9Scripting11UnityEngine12Experimental9Rendering27VisibleReflectionProbeProxy9InitProxyEv
4027:__ZN9Scripting11UnityEngine12Experimental9Rendering27VisibleReflectionProbeProxy12CleanupProxyEv
4028:__ZN9Scripting11UnityEngine12Experimental9Rendering17VisibleLightProxy9InitProxyEv
4029:__ZN9Scripting11UnityEngine12Experimental9Rendering17VisibleLightProxy12CleanupProxyEv
4030:__ZN9Scripting11UnityEngine12Experimental9Rendering31SupportedRenderingFeaturesProxy9InitProxyEv
4031:__ZN9Scripting11UnityEngine12Experimental9Rendering31SupportedRenderingFeaturesProxy12CleanupProxyEv
4032:__ZN9Scripting11UnityEngine12Experimental9Rendering20ShadowSplitDataProxy9InitProxyEv
4033:__ZN9Scripting11UnityEngine12Experimental9Rendering20ShadowSplitDataProxy12CleanupProxyEv
4034:__ZN9Scripting11UnityEngine12Experimental9Rendering32ScriptableCullingParametersProxy9InitProxyEv
4035:__ZN9Scripting11UnityEngine12Experimental9Rendering32ScriptableCullingParametersProxy12CleanupProxyEv
4036:__ZN9Scripting11UnityEngine12Experimental9Rendering26RenderPipelineManagerProxy9InitProxyEv
4037:__ZN9Scripting11UnityEngine12Experimental9Rendering26RenderPipelineManagerProxy12CleanupProxyEv
4038:__ZN9Scripting11UnityEngine12Experimental9Rendering24DrawShadowsSettingsProxy9InitProxyEv
4039:__ZN9Scripting11UnityEngine12Experimental9Rendering24DrawShadowsSettingsProxy12CleanupProxyEv
4040:__ZN9Scripting11UnityEngine12Experimental9Rendering16CullResultsProxy9InitProxyEv
4041:__ZN9Scripting11UnityEngine12Experimental9Rendering16CullResultsProxy12CleanupProxyEv
4042:__ZN9Scripting11UnityEngine12Experimental9Rendering21CoreCameraValuesProxy9InitProxyEv
4043:__ZN9Scripting11UnityEngine12Experimental9Rendering21CoreCameraValuesProxy12CleanupProxyEv
4044:__ZN9Scripting11UnityEngine12Experimental9Rendering21CameraPropertiesProxy9InitProxyEv
4045:__ZN9Scripting11UnityEngine12Experimental9Rendering21CameraPropertiesProxy12CleanupProxyEv
4046:__ZN9Scripting11UnityEngine12Experimental10PlayerLoop11UpdateProxy9InitProxyEv
4047:__ZN9Scripting11UnityEngine12Experimental10PlayerLoop11UpdateProxy12CleanupProxyEv
4048:__ZN9Scripting11UnityEngine12Experimental10PlayerLoop14PreUpdateProxy9InitProxyEv
4049:__ZN9Scripting11UnityEngine12Experimental10PlayerLoop14PreUpdateProxy12CleanupProxyEv
4050:__ZN9Scripting11UnityEngine12Experimental10PlayerLoop18PreLateUpdateProxy9InitProxyEv
4051:__ZN9Scripting11UnityEngine12Experimental10PlayerLoop18PreLateUpdateProxy12CleanupProxyEv
4052:__ZN9Scripting11UnityEngine12Experimental10PlayerLoop19PostLateUpdateProxy9InitProxyEv
4053:__ZN9Scripting11UnityEngine12Experimental10PlayerLoop19PostLateUpdateProxy12CleanupProxyEv
4054:__ZN9Scripting11UnityEngine12Experimental10PlayerLoop19InitializationProxy9InitProxyEv
4055:__ZN9Scripting11UnityEngine12Experimental10PlayerLoop19InitializationProxy12CleanupProxyEv
4056:__ZN9Scripting11UnityEngine12Experimental10PlayerLoop16FixedUpdateProxy9InitProxyEv
4057:__ZN9Scripting11UnityEngine12Experimental10PlayerLoop16FixedUpdateProxy12CleanupProxyEv
4058:__ZN9Scripting11UnityEngine12Experimental10PlayerLoop16EarlyUpdateProxy9InitProxyEv
4059:__ZN9Scripting11UnityEngine12Experimental10PlayerLoop16EarlyUpdateProxy12CleanupProxyEv
4060:__ZN9Scripting11UnityEngine12Experimental9Playables26TexturePlayableOutputProxy9InitProxyEv
4061:__ZN9Scripting11UnityEngine12Experimental9Playables26TexturePlayableOutputProxy12CleanupProxyEv
4062:__ZN9Scripting11UnityEngine12Experimental9Playables25TextureMixerPlayableProxy9InitProxyEv
4063:__ZN9Scripting11UnityEngine12Experimental9Playables25TextureMixerPlayableProxy12CleanupProxyEv
4064:__ZN9Scripting11UnityEngine12Experimental9Playables27MaterialEffectPlayableProxy9InitProxyEv
4065:__ZN9Scripting11UnityEngine12Experimental9Playables27MaterialEffectPlayableProxy12CleanupProxyEv
4066:__ZN9Scripting11UnityEngine12Experimental9Playables19CameraPlayableProxy9InitProxyEv
4067:__ZN9Scripting11UnityEngine12Experimental9Playables19CameraPlayableProxy12CleanupProxyEv
4068:__ZN9Scripting11UnityEngine12Experimental8LowLevel29PlayerLoopSystemInternalProxy9InitProxyEv
4069:__ZN9Scripting11UnityEngine12Experimental8LowLevel29PlayerLoopSystemInternalProxy12CleanupProxyEv
4070:__ZN9Scripting11UnityEngine12Experimental18GlobalIllumination17LightmappingProxy9InitProxyEv
4071:__ZN9Scripting11UnityEngine12Experimental18GlobalIllumination17LightmappingProxy12CleanupProxyEv
4072:__ZN9Scripting11UnityEngine12Experimental18GlobalIllumination16LightDataGIProxy9InitProxyEv
4073:__ZN9Scripting11UnityEngine12Experimental18GlobalIllumination16LightDataGIProxy12CleanupProxyEv
4074:__ZN9Scripting11UnityEngine31ExcludeFromPresetAttributeProxy9InitProxyEv
4075:__ZN9Scripting11UnityEngine31ExcludeFromPresetAttributeProxy12CleanupProxyEv
4076:__ZN9Scripting11UnityEngine38ExcludeFromObjectFactoryAttributeProxy9InitProxyEv
4077:__ZN9Scripting11UnityEngine38ExcludeFromObjectFactoryAttributeProxy12CleanupProxyEv
4078:__ZN9Scripting11UnityEngine6Events15UnityEventProxy9InitProxyEv
4079:__ZN9Scripting11UnityEngine6Events15UnityEventProxy12CleanupProxyEv
4080:__ZN9Scripting11UnityEngine6Events19UnityEventBaseProxy9InitProxyEv
4081:__ZN9Scripting11UnityEngine6Events19UnityEventBaseProxy12CleanupProxyEv
4082:__ZN9Scripting11UnityEngine13EnumInfoProxy9InitProxyEv
4083:__ZN9Scripting11UnityEngine13EnumInfoProxy12CleanupProxyEv
4084:__ZN9Scripting11UnityEngine12DisplayProxy9InitProxyEv
4085:__ZN9Scripting11UnityEngine12DisplayProxy12CleanupProxyEv
4086:__ZN9Scripting11UnityEngine21DiagnosticSwitchProxy9InitProxyEv
4087:__ZN9Scripting11UnityEngine21DiagnosticSwitchProxy12CleanupProxyEv
4088:__ZN9Scripting11UnityEngine26DefaultExecutionOrderProxy9InitProxyEv
4089:__ZN9Scripting11UnityEngine26DefaultExecutionOrderProxy12CleanupProxyEv
4090:__ZN9Scripting11UnityEngine34CustomRenderTextureUpdateZoneProxy9InitProxyEv
4091:__ZN9Scripting11UnityEngine34CustomRenderTextureUpdateZoneProxy12CleanupProxyEv
4092:__ZN9Scripting11UnityEngine24CustomRenderTextureProxy9InitProxyEv
4093:__ZN9Scripting11UnityEngine24CustomRenderTextureProxy12CleanupProxyEv
4094:__ZN9Scripting11UnityEngine18RenderTextureProxy9InitProxyEv
4095:__ZN9Scripting11UnityEngine18RenderTextureProxy12CleanupProxyEv
4096:__ZN9Scripting11UnityEngine17CullingGroupProxy9InitProxyEv
4097:__ZN9Scripting11UnityEngine17CullingGroupProxy12CleanupProxyEv
4098:__ZN9Scripting11UnityEngine12CubemapProxy9InitProxyEv
4099:__ZN9Scripting11UnityEngine12CubemapProxy12CleanupProxyEv
4100:__ZN9Scripting11UnityEngine12TextureProxy9InitProxyEv
4101:__ZN9Scripting11UnityEngine12TextureProxy12CleanupProxyEv
4102:__ZN9Scripting11UnityEngine14CoroutineProxy9InitProxyEv
4103:__ZN9Scripting11UnityEngine14CoroutineProxy12CleanupProxyEv
4104:__ZN9Scripting11UnityEngine16ContextMenuProxy9InitProxyEv
4105:__ZN9Scripting11UnityEngine16ContextMenuProxy12CleanupProxyEv
4106:__ZN9Scripting11UnityEngine18ComputeBufferProxy9InitProxyEv
4107:__ZN9Scripting11UnityEngine18ComputeBufferProxy12CleanupProxyEv
4108:__ZN9Scripting11UnityEngine15ColorGamutProxy9InitProxyEv
4109:__ZN9Scripting11UnityEngine15ColorGamutProxy12CleanupProxyEv
4110:__ZN9Scripting11UnityEngine12Color32Proxy9InitProxyEv
4111:__ZN9Scripting11UnityEngine12Color32Proxy12CleanupProxyEv
4112:__ZN9Scripting11UnityEngine10ColorProxy9InitProxyEv
4113:__ZN9Scripting11UnityEngine10ColorProxy12CleanupProxyEv
4114:__ZN9Scripting11UnityEngine28ClassLibraryInitializerProxy9InitProxyEv
4115:__ZN9Scripting11UnityEngine28ClassLibraryInitializerProxy12CleanupProxyEv
4116:__ZN9Scripting11UnityEngine11CameraProxy9InitProxyEv
4117:__ZN9Scripting11UnityEngine11CameraProxy12CleanupProxyEv
4118:__ZN9Scripting11UnityEngine15CacheIndexProxy9InitProxyEv
4119:__ZN9Scripting11UnityEngine15CacheIndexProxy12CleanupProxyEv
4120:__ZN9Scripting11UnityEngine22CachedAssetBundleProxy9InitProxyEv
4121:__ZN9Scripting11UnityEngine22CachedAssetBundleProxy12CleanupProxyEv
4122:__ZN9Scripting11UnityEngine14BoundsIntProxy9InitProxyEv
4123:__ZN9Scripting11UnityEngine14BoundsIntProxy12CleanupProxyEv
4124:__ZN9Scripting11UnityEngine11BoundsProxy9InitProxyEv
4125:__ZN9Scripting11UnityEngine11BoundsProxy12CleanupProxyEv
4126:__ZN9Scripting11UnityEngine12Vector3Proxy9InitProxyEv
4127:__ZN9Scripting11UnityEngine12Vector3Proxy12CleanupProxyEv
4128:__ZN9Scripting11UnityEngine19BootConfigDataProxy9InitProxyEv
4129:__ZN9Scripting11UnityEngine19BootConfigDataProxy12CleanupProxyEv
4130:__ZN9Scripting11UnityEngine15BoneWeightProxy9InitProxyEv
4131:__ZN9Scripting11UnityEngine15BoneWeightProxy12CleanupProxyEv
4132:__ZN9Scripting11UnityEngine14BehaviourProxy9InitProxyEv
4133:__ZN9Scripting11UnityEngine14BehaviourProxy12CleanupProxyEv
4134:__ZN9Scripting11UnityEngine14ComponentProxy9InitProxyEv
4135:__ZN9Scripting11UnityEngine14ComponentProxy12CleanupProxyEv
4136:__ZN9Scripting11UnityEngine11ObjectProxy9InitProxyEv
4137:__ZN9Scripting11UnityEngine11ObjectProxy12CleanupProxyEv
4138:__Z35scripting_class_get_field_from_name17ScriptingClassPtrPKc
4139:__ZN9Scripting11UnityEngine26AttributeHelperEngineProxy9InitProxyEv
4140:__ZN9Scripting11UnityEngine26AttributeHelperEngineProxy12CleanupProxyEv
4141:__ZN9Scripting11UnityEngine19AsyncOperationProxy9InitProxyEv
4142:__ZN9Scripting11UnityEngine19AsyncOperationProxy12CleanupProxyEv
4143:__ZN9Scripting11UnityEngine21YieldInstructionProxy9InitProxyEv
4144:__ZN9Scripting11UnityEngine21YieldInstructionProxy12CleanupProxyEv
4145:__ZN9Scripting11UnityEngine29AssemblyIsEditorAssemblyProxy9InitProxyEv
4146:__ZN9Scripting11UnityEngine29AssemblyIsEditorAssemblyProxy12CleanupProxyEv
4147:__ZN9Scripting11UnityEngine16ApplicationProxy9InitProxyEv
4148:__ZN9Scripting11UnityEngine16ApplicationProxy12CleanupProxyEv
4149:__ZN9Scripting11UnityEngine19AnimationCurveProxy9InitProxyEv
4150:__ZN9Scripting11UnityEngine19AnimationCurveProxy12CleanupProxyEv
4151:__ZN9Scripting5Unity11Collections23WriteOnlyAttributeProxy9InitProxyEv
4152:__ZN9Scripting5Unity11Collections23WriteOnlyAttributeProxy12CleanupProxyEv
4153:__ZN9Scripting5Unity11Collections22ReadOnlyAttributeProxy9InitProxyEv
4154:__ZN9Scripting5Unity11Collections22ReadOnlyAttributeProxy12CleanupProxyEv
4155:__ZN9Scripting5Unity11Collections44NativeMatchesParallelForLengthAttributeProxy9InitProxyEv
4156:__ZN9Scripting5Unity11Collections44NativeMatchesParallelForLengthAttributeProxy12CleanupProxyEv
4157:__ZN9Scripting5Unity11Collections31NativeFixedLengthAttributeProxy9InitProxyEv
4158:__ZN9Scripting5Unity11Collections31NativeFixedLengthAttributeProxy12CleanupProxyEv
4159:__ZN9Scripting5Unity11Collections49NativeDisableParallelForRestrictionAttributeProxy9InitProxyEv
4160:__ZN9Scripting5Unity11Collections49NativeDisableParallelForRestrictionAttributeProxy12CleanupProxyEv
4161:__ZN9Scripting5Unity11Collections8LowLevel6Unsafe34NativeSetThreadIndexAttributeProxy9InitProxyEv
4162:__ZN9Scripting5Unity11Collections8LowLevel6Unsafe34NativeSetThreadIndexAttributeProxy12CleanupProxyEv
4163:__ZN9Scripting5Unity11Collections8LowLevel6Unsafe48NativeSetClassTypeToNullOnScheduleAttributeProxy9InitProxyEv
4164:__ZN9Scripting5Unity11Collections8LowLevel6Unsafe48NativeSetClassTypeToNullOnScheduleAttributeProxy12CleanupProxyEv
4165:__ZN9Scripting5Unity11Collections8LowLevel6Unsafe47NativeDisableUnsafePtrRestrictionAttributeProxy9InitProxyEv
4166:__ZN9Scripting5Unity11Collections8LowLevel6Unsafe47NativeDisableUnsafePtrRestrictionAttributeProxy12CleanupProxyEv
4167:__ZN9Scripting5Unity11Collections8LowLevel6Unsafe53NativeDisableContainerSafetyRestrictionAttributeProxy9InitProxyEv
4168:__ZN9Scripting5Unity11Collections8LowLevel6Unsafe53NativeDisableContainerSafetyRestrictionAttributeProxy12CleanupProxyEv
4169:__ZN9Scripting5Unity11Collections8LowLevel6Unsafe59NativeContainerSupportsMinMaxWriteRestrictionAttributeProxy9InitProxyEv
4170:__ZN9Scripting5Unity11Collections8LowLevel6Unsafe59NativeContainerSupportsMinMaxWriteRestrictionAttributeProxy12CleanupProxyEv
4171:__ZN9Scripting5Unity11Collections8LowLevel6Unsafe54NativeContainerSupportsDeferredConvertListToArrayProxy9InitProxyEv
4172:__ZN9Scripting5Unity11Collections8LowLevel6Unsafe54NativeContainerSupportsDeferredConvertListToArrayProxy12CleanupProxyEv
4173:__ZN9Scripting5Unity11Collections8LowLevel6Unsafe62NativeContainerSupportsDeallocateOnJobCompletionAttributeProxy9InitProxyEv
4174:__ZN9Scripting5Unity11Collections8LowLevel6Unsafe62NativeContainerSupportsDeallocateOnJobCompletionAttributeProxy12CleanupProxyEv
4175:__ZN9Scripting5Unity11Collections8LowLevel6Unsafe45NativeContainerNeedsThreadIndexAttributeProxy9InitProxyEv
4176:__ZN9Scripting5Unity11Collections8LowLevel6Unsafe45NativeContainerNeedsThreadIndexAttributeProxy12CleanupProxyEv
4177:__ZN9Scripting5Unity11Collections8LowLevel6Unsafe39NativeContainerIsReadOnlyAttributeProxy9InitProxyEv
4178:__ZN9Scripting5Unity11Collections8LowLevel6Unsafe39NativeContainerIsReadOnlyAttributeProxy12CleanupProxyEv
4179:__ZN9Scripting5Unity11Collections8LowLevel6Unsafe46NativeContainerIsAtomicWriteOnlyAttributeProxy9InitProxyEv
4180:__ZN9Scripting5Unity11Collections8LowLevel6Unsafe46NativeContainerIsAtomicWriteOnlyAttributeProxy12CleanupProxyEv
4181:__ZN9Scripting5Unity11Collections8LowLevel6Unsafe29NativeContainerAttributeProxy9InitProxyEv
4182:__ZN9Scripting5Unity11Collections8LowLevel6Unsafe29NativeContainerAttributeProxy12CleanupProxyEv
4183:__ZN9Scripting5Unity11Collections39DeallocateOnJobCompletionAttributeProxy9InitProxyEv
4184:__ZN9Scripting5Unity11Collections39DeallocateOnJobCompletionAttributeProxy12CleanupProxyEv
4185:__ZN9Scripting5Unity11Collections14AllocatorProxy9InitProxyEv
4186:__ZN9Scripting5Unity11Collections14AllocatorProxy12CleanupProxyEv
4187:__ZN5Unity9Component16CheckConsistencyEv
4188:__ZNK5Unity9Component7GetNameEv
4189:__ZN5Unity9Component7SetNameEPKc
4190:__ZN6Object24SetCachedScriptingObjectE18ScriptingObjectPtr
4191:__ZN9Behaviour10DeactivateE19DeactivateOperation
4192:__ZN9Behaviour10SetEnabledEb
4193:__ZN9Transform18GetTransformAccessEv
4194:__ZN32TransformHierarchyChangeDispatch19SetSystemInterestedE15TransformAccess36TransformHierarchyChangeSystemHandleb
4195:__Z25FindAncestorComponentImplR10GameObjectPKN5Unity4TypeE
4196:__ZN14SafeBinaryRead13BeginTransferEPKcS1_PPFbPvRS_Eb
4197:__ZN14SafeBinaryRead11EndTransferEv
4198:__ZN9Behaviour8TransferI14SafeBinaryReadEEvRT_
4199:__ZN12CachedReader15UpdateReadCacheEPvj
4200:__ZN5Unity9Component8TransferI14SafeBinaryReadEEvRT_
4201:__ZN12ImmediatePtrI10GameObjectE8TransferI14SafeBinaryReadEEvRT_
4202:__Z43LocalSerializedObjectIdentifierToInstanceIDRK31LocalSerializedObjectIdentifierRi
4203:__Z38PreallocateObjectFromPersistentManagerib
4204:__ZNK16TypeTreeIterator4NameEv
4205:__ZNK16TypeTreeIterator8ChildrenEv
4206:__ZL4WalkRK16TypeTreeIteratorR12CachedReaderPxb
4207:__ZNK16TypeTreeIterator4NextEv
4208:__Z23GetAllowNameConversionsPK20AllowNameConversionsPKcS3_
4209:__ZNK16TypeTreeIterator4TypeEv
4210:__Z13FindConverterPKcS0_
4211:__ZN24GenerateTypeTreeTransfer13BeginTransferEPKcS1_Pc17TransferMetaFlags
4212:__ZN24GenerateTypeTreeTransfer11EndTransferEv
4213:__ZNK16TypeTreeIterator6FatherEv
4214:__ZN9Behaviour8TransferI24GenerateTypeTreeTransferEEvRT_
4215:__ZN24GenerateTypeTreeTransfer5AlignEv
4216:__ZNK16TypeTreeIterator4LastEv
4217:__ZN5Unity9Component8TransferI24GenerateTypeTreeTransferEEvRT_
4218:__ZN8TypeTree8AddChildERK16TypeTreeIterator
4219:__ZN8TypeTree16AssignByteOffsetERK16TypeTreeIteratorj
4220:__ZN9Behaviour8TransferI17RemapPPtrTransferEEvRT_
4221:__ZN5Unity9Component8TransferI17RemapPPtrTransferEEvRT_
4222:__ZN17RemapPPtrTransfer12PushMetaFlagE17TransferMetaFlags
4223:__ZN9Behaviour8TransferI18StreamedBinaryReadEEvRT_
4224:__ZN18StreamedBinaryRead5AlignEv
4225:__ZN5Unity9Component8TransferI18StreamedBinaryReadEEvRT_
4226:__ZN12ImmediatePtrI10GameObjectE8TransferI18StreamedBinaryReadEEvRT_
4227:__ZN9Behaviour8TransferI19StreamedBinaryWriteEEvRT_
4228:__ZN12CachedWriter16UpdateWriteCacheEPKvj
4229:__ZN19StreamedBinaryWrite5AlignEv
4230:__ZN12CachedWriter11Align4WriteEv
4231:__ZN5Unity9Component8TransferI19StreamedBinaryWriteEEvRT_
4232:__ZN12ImmediatePtrI10GameObjectE8TransferI19StreamedBinaryWriteEEvRT_
4233:__Z43InstanceIDToLocalSerializedObjectIdentifieriR31LocalSerializedObjectIdentifier
4234:__ZN17PersistentManager43InstanceIDToLocalSerializedObjectIdentifierEiR31LocalSerializedObjectIdentifier
4235:__ZN17PersistentManager32GlobalToLocalSerializedFileIndexERK26SerializedObjectIdentifier
4236:__ZN13dynamic_arrayI14FileIdentifierLj0EE12emplace_backERKS0_
4237:__ZN13dynamic_arrayIN10GameObject13ComponentPairELj0EE9push_backERKS1_
4238:__ZN10GameObject28FinalizeAddComponentInternalEPN5Unity9ComponentE
4239:__ZN9Behaviour13AwakeFromLoadE17AwakeFromLoadMode
4240:__ZNK5Unity9Component22GetTypeVirtualInternalEv
4241:__ZN5Unity9Component23VirtualRedirectTransferER24GenerateTypeTreeTransfer
4242:__ZN5Unity9Component23VirtualRedirectTransferER14SafeBinaryRead
4243:__ZN5Unity9Component10SetEnabledEb
4244:__ZN9BehaviourD2Ev
4245:__ZNK9Behaviour22GetTypeVirtualInternalEv
4246:__ZN9Behaviour23VirtualRedirectTransferER24GenerateTypeTreeTransfer
4247:__ZN9Behaviour23VirtualRedirectTransferER14SafeBinaryRead
4248:__ZN11NamedObject7SetNameEPKc
4249:__ZN11NamedObject8TransferI14SafeBinaryReadEEvRT_
4250:__ZN14SafeBinaryRead21TransferSTLStyleArrayI13dynamic_arrayIN4core12basic_stringIcNS2_20StringStorageDefaultIcEEEELj0EEEEvRT_17TransferMetaFlags
4251:__ZN14SafeBinaryRead18BeginArrayTransferEPKcS1_Ri
4252:__ZN14SafeBinaryRead16EndArrayTransferEv
4253:__ZN10SpookyHash7Hash128EPKvjPyS2_
4254:__ZN10SpookyHash5ShortEPKvjPyS2_
4255:__ZN5RectTIfE8TransferI14SafeBinaryReadEEvRT_
4256:__ZN14ConstantString6assignEPKc10MemLabelId
4257:__ZN11NamedObject8TransferI24GenerateTypeTreeTransferEEvRT_
4258:__ZN24GenerateTypeTreeTransfer18BeginArrayTransferEPKcS1_Ri17TransferMetaFlags
4259:__ZN24GenerateTypeTreeTransfer16EndArrayTransferEv
4260:__ZN11NamedObject8TransferI18StreamedBinaryReadEEvRT_
4261:__ZN11NamedObject8TransferI19StreamedBinaryWriteEEvRT_
4262:__ZN14ConstantStringD2Ev
4263:__ZN11NamedObjectD2Ev
4264:__ZN11NamedObjectD0Ev
4265:__ZNK11NamedObject22GetTypeVirtualInternalEv
4266:__ZN11NamedObject23VirtualRedirectTransferER24GenerateTypeTreeTransfer
4267:__ZN11NamedObject23VirtualRedirectTransferER14SafeBinaryRead
4268:__ZN12TLSAllocatorI14StackAllocatorED2Ev
4269:__ZN12TLSAllocatorI14StackAllocatorED0Ev
4270:__ZN12TLSAllocatorI14StackAllocatorE10DeallocateEPv
4271:__ZNK12TLSAllocatorI14StackAllocatorE8ContainsEPKv
4272:__ZNK12TLSAllocatorI14StackAllocatorE10GetPtrSizeEPKv
4273:__ZNK12TLSAllocatorI14StackAllocatorE10IsAssignedEv
4274:__ZNK12TLSAllocatorI14StackAllocatorE22GetAllocatedMemorySizeEv
4275:__ZNK12TLSAllocatorI14StackAllocatorE21GetReservedMemorySizeEv
4276:__ZNK12TLSAllocatorI14StackAllocatorE24GetBookKeepingMemorySizeEv
4277:__ZN12TLSAllocatorI14StackAllocatorE16ThreadInitializeEP13BaseAllocator
4278:__ZN12TLSAllocatorI14StackAllocatorE13ThreadCleanupEv
4279:__ZN12TLSAllocatorI14StackAllocatorE16FrameMaintenanceEb
4280:__ZNK14StackAllocator20IsOverflowAllocationEPKv
4281:__ZN25ThreadsafeLinearAllocatorD2Ev
4282:__ZN25ThreadsafeLinearAllocatorD0Ev
4283:__ZN25ThreadsafeLinearAllocator8AllocateEji
4284:__ZN25ThreadsafeLinearAllocator10ReallocateEPvji
4285:__ZN25ThreadsafeLinearAllocator10DeallocateEPv
4286:__ZN25ThreadsafeLinearAllocator13TryDeallocateEPv
4287:__ZNK25ThreadsafeLinearAllocator8ContainsEPKv
4288:__ZNK25ThreadsafeLinearAllocator10GetPtrSizeEPKv
4289:__ZNK25ThreadsafeLinearAllocator22GetAllocatedMemorySizeEv
4290:__ZNK25ThreadsafeLinearAllocator21GetReservedMemorySizeEv
4291:__ZN25ThreadsafeLinearAllocator16FrameMaintenanceEb
4292:__ZN25ThreadsafeLinearAllocator15SelectFreeBlockEv
4293:__ZN14StackAllocatorD2Ev
4294:__ZN14StackAllocatorD0Ev
4295:__ZNK14StackAllocator8ContainsEPKv
4296:__ZN14StackAllocator16FrameMaintenanceEb
4297:__ZN13MemoryManager18LowLevelReallocateEPvjj
4298:__ZN10TagManagerD2Ev
4299:__ZN10TagManagerD0Ev
4300:__ZN11GameManager17MainThreadCleanupEv
4301:__ZN10TagManager5ResetEv
4302:__ZNK10TagManager22GetTypeVirtualInternalEv
4303:__ZN10TagManager23VirtualRedirectTransferER19StreamedBinaryWrite
4304:__ZN10TagManager23VirtualRedirectTransferER18StreamedBinaryRead
4305:__ZN10TagManager23VirtualRedirectTransferER17RemapPPtrTransfer
4306:__ZN10TagManager23VirtualRedirectTransferER24GenerateTypeTreeTransfer
4307:__ZN10TagManager23VirtualRedirectTransferER14SafeBinaryRead
4308:__ZN10TagManager8TransferI14SafeBinaryReadEEvRT_
4309:__ZN10TagManager32RegisterDefaultTagsAndLayerMasksEv
4310:__ZN10TagManager11RegisterTagEjRKN4core12basic_stringIcNS0_20StringStorageDefaultIcEEEE
4311:__ZN14SafeBinaryRead12IsOldVersionEi
4312:__ZN10TagManager13RegisterLayerEjRKN4core12basic_stringIcNS0_20StringStorageDefaultIcEEEE
4313:__ZN14SafeBinaryRead21TransferSTLStyleArrayI13dynamic_arrayI17SortingLayerEntryLj0EEEEvRT_17TransferMetaFlags
4314:__ZN10TagManager23AddDefaultLayerIfNeededEv
4315:__ZN13dynamic_arrayI17SortingLayerEntryLj0EE6insertEPS0_jRKS0_
4316:__ZN13dynamic_arrayI17SortingLayerEntryLj0EE18resize_initializedEj12ResizePolicy
4317:__ZN15SerializeTraitsI17SortingLayerEntryE8TransferI14SafeBinaryReadEEvRS0_RT_
4318:__ZNSt3__26__treeINS_12__value_typeIN4core12basic_stringIcNS2_20StringStorageDefaultIcEEEEjEENS_19__map_value_compareIS6_S7_NS_4lessIS6_EELb1EEE13stl_allocatorIS7_L18MemLabelIdentifier7ELi16EEE25__emplace_unique_key_argsIS6_JNS_4pairIS6_jEEEEENSH_INS_15__tree_iteratorIS7_PNS_11__tree_nodeIS7_PvEEiEEbEERKT_DpOT0_
4319:__ZNSt3__26__treeINS_12__value_typeIjN4core12basic_stringIcNS2_20StringStorageDefaultIcEEEEEENS_19__map_value_compareIjS7_NS_4lessIjEELb1EEE13stl_allocatorIS7_L18MemLabelIdentifier7ELi16EEE25__emplace_unique_key_argsIjJNS_4pairIjS6_EEEEENSH_INS_15__tree_iteratorIS7_PNS_11__tree_nodeIS7_PvEEiEEbEERKT_DpOT0_
4320:__ZNSt3__26__treeINS_12__value_typeIN4core12basic_stringIcNS2_20StringStorageDefaultIcEEEEjEENS_19__map_value_compareIS6_S7_NS_4lessIS6_EELb1EEE13stl_allocatorIS7_L18MemLabelIdentifier7ELi16EEE7destroyEPNS_11__tree_nodeIS7_PvEE
4321:__ZNSt3__26__treeINS_12__value_typeIjN4core12basic_stringIcNS2_20StringStorageDefaultIcEEEEEENS_19__map_value_compareIjS7_NS_4lessIjEELb1EEE13stl_allocatorIS7_L18MemLabelIdentifier7ELi16EEE7destroyEPNS_11__tree_nodeIS7_PvEE
4322:__ZN10TagManager8TransferI24GenerateTypeTreeTransferEEvRT_
4323:__ZN15SerializeTraitsI13dynamic_arrayI17SortingLayerEntryLj0EEE8TransferI24GenerateTypeTreeTransferEEvRS2_RT_
4324:__ZN10TagManager8TransferI17RemapPPtrTransferEEvRT_
4325:__ZN10TagManager8TransferI18StreamedBinaryReadEEvRT_
4326:__ZN18StreamedBinaryRead21TransferSTLStyleArrayI13dynamic_arrayI17SortingLayerEntryLj0EEEEvRT_17TransferMetaFlags
4327:__ZN10TagManager8TransferI19StreamedBinaryWriteEEvRT_
4328:__ZN15SerializeTraitsI13dynamic_arrayI17SortingLayerEntryLj0EEE8TransferI19StreamedBinaryWriteEEvRS2_RT_
4329:__ZN10TagManager15ThreadedCleanupEv
4330:__ZN11GameManagerD2Ev
4331:__ZN11GameManagerD0Ev
4332:__ZNK11GameManager22GetTypeVirtualInternalEv
4333:__ZNK17GlobalGameManager22GetTypeVirtualInternalEv
4334:__ZN17GlobalGameManager23VirtualRedirectTransferER24GenerateTypeTreeTransfer
4335:__ZN17GlobalGameManager23VirtualRedirectTransferER14SafeBinaryRead
4336:__ZNK6Object22GetTypeVirtualInternalEv
4337:__ZNK16LevelGameManager22GetTypeVirtualInternalEv
4338:__ZN16LevelGameManager23VirtualRedirectTransferER24GenerateTypeTreeTransfer
4339:__ZN16LevelGameManager23VirtualRedirectTransferER14SafeBinaryRead
4340:__ZN10GameObjectD2Ev
4341:__ZN10GameObjectD0Ev
4342:__ZN10GameObject13AwakeFromLoadE17AwakeFromLoadMode
4343:__ZN10GameObject16CheckConsistencyEv
4344:__ZN10GameObject5ResetEv
4345:__ZNK10GameObject22GetTypeVirtualInternalEv
4346:__ZN10GameObject7SetNameEPKc
4347:__ZN10GameObject12SetHideFlagsEN6Object9HideFlagsE
4348:__ZN10GameObject23VirtualRedirectTransferER19StreamedBinaryWrite
4349:__ZN10GameObject23VirtualRedirectTransferER18StreamedBinaryRead
4350:__ZN10GameObject23VirtualRedirectTransferER17RemapPPtrTransfer
4351:__ZN10GameObject23VirtualRedirectTransferER24GenerateTypeTreeTransfer
4352:__ZN10GameObject23VirtualRedirectTransferER14SafeBinaryRead
4353:__ZN10GameObject8TransferI14SafeBinaryReadEEvRT_
4354:__ZN10GameObject18TransferComponentsI14SafeBinaryReadEEvRT_
4355:__ZN14SafeBinaryRead23IsVersionSmallerOrEqualEi
4356:__ZN14SafeBinaryRead21TransferSTLStyleArrayI13dynamic_arrayINSt3__24pairIi12ImmediatePtrIN5Unity9ComponentEEEELj0EEEEvRT_17TransferMetaFlags
4357:__ZN14SafeBinaryRead21TransferSTLStyleArrayI13dynamic_arrayIN10GameObject13ComponentPairELj0EEEEvRT_17TransferMetaFlags
4358:__ZN12ImmediatePtrIN5Unity9ComponentEE8TransferI14SafeBinaryReadEEvRT_
4359:__ZN14SafeBinaryRead8TransferIN10GameObject13ComponentPairEEEvRT_PKc17TransferMetaFlags
4360:__ZN15SerializeTraitsINSt3__24pairIi12ImmediatePtrIN5Unity9ComponentEEEEE8TransferI14SafeBinaryReadEEvRS6_RT_
4361:__ZN10GameObject8TransferI24GenerateTypeTreeTransferEEvRT_
4362:__ZN10GameObject18TransferComponentsI24GenerateTypeTreeTransferEEvRT_
4363:__ZN17RemapPPtrTransfer8TransferI13dynamic_arrayIN10GameObject13ComponentPairELj0EEEEvRT_PKc17TransferMetaFlags
4364:__ZN10GameObject8TransferI18StreamedBinaryReadEEvRT_
4365:__ZN18StreamedBinaryRead21TransferSTLStyleArrayI13dynamic_arrayIN10GameObject13ComponentPairELj0EEEEvRT_17TransferMetaFlags
4366:__ZN12ImmediatePtrIN5Unity9ComponentEE8TransferI18StreamedBinaryReadEEvRT_
4367:__ZN10GameObject8TransferI19StreamedBinaryWriteEEvRT_
4368:__Z17IsObjectAvailablei
4369:__ZN10GameObject21EnsureUniqueTransformEv
4370:__Z24MergeTransformComponentsR9TransformS0_b
4371:__Z30AddTransformComponentUncheckedR10GameObjectPKN5Unity4TypeE
4372:__ZN13dynamic_arrayIN10GameObject13ComponentPairELj0EE6insertEPS1_jRKS1_
4373:__ZN10GameObject20AddComponentInternalEPN5Unity9ComponentE
4374:__ZN9Transform7GetRootEv
4375:__ZN9Transform47ClearTransformHierarchyAndApplyToSerializedDataEv
4376:__ZN9Transform8GetSceneEv
4377:__ZN10UnityScene19RemoveRootFromSceneER9Transformb
4378:__ZN10UnityScene14AddRootToSceneERS_R9Transform
4379:__ZN9Transform4FindEPKS_
4380:__ZN9Transform25RebuildTransformHierarchyEv
4381:__ZN9Transform30EnsureTransformHierarchyExistsEv
4382:__ZN9Transform35SetLocalPositionWithoutNotificationERKN4math7_float3Ey
4383:__ZN9Transform35SetLocalRotationWithoutNotificationERKN4math7_float4Ey
4384:__ZN9Transform32SetLocalScaleWithoutNotificationERKN4math7_float3Ey
4385:__ZN17TransformInternal36OnScaleChangedCalculateTransformTypeE15TransformAccess
4386:__ZNK9Transform14CountNodesDeepEv
4387:__ZN17TransformInternal24CreateTransformHierarchyEj10MemLabelId
4388:__ZN17TransformInternal23AllocateTransformThreadER18TransformHierarchyjj
4389:__ZN9Transform37InitializeTransformHierarchyRecursiveER18TransformHierarchyRii
4390:__ZN23TransformChangeDispatch32QueueTransformChangeIfHasChangedERK15TransformAccess
4391:__ZN17TransformInternal25DestroyTransformHierarchyEP18TransformHierarchy
4392:__ZN23TransformChangeDispatch24RemoveTransformHierarchyER18TransformHierarchy
4393:__ZN23TransformChangeDispatch32QueueTransformChangeIfHasChangedER18TransformHierarchy
4394:__ZN17TransformInternal12InitLocalTRSE15TransformAccessRKN4math7_float3ERKNS1_7_float4ES4_
4395:__ZN23TransformChangeDispatch29RecalculatePermanentInterestsE15TransformAccess
4396:__ZN14BatchAllocator16AllocateInternalEPPvijjj
4397:__ZN14BatchAllocator6CommitE10MemLabelId
4398:__ZN17PersistentManager17IsObjectAvailableEi
4399:__ZN15SharedLightData5ResetEv
4400:__ZN14ShadowSettings5ResetEv
4401:__ZN12BaseRendererD2Ev
4402:__ZN12BaseRenderer23RendererCullingCallbackEv
4403:__ZN12BaseRenderer17GetSortingGroupIDEj
4404:__ZN12BaseRenderer17SetSortingGroupIDEjj
4405:__ZN12BaseRenderer20GetSortingGroupOrderEj
4406:__ZN12BaseRenderer20SetSortingGroupOrderEjj
4407:__ZNK12BaseRenderer21GetGlobalLayeringDataEj
4408:__ZN12BaseRenderer21SetGlobalLayeringDataE18GlobalLayeringDataj
4409:__Z16GetRenderManagerv
4410:__ZN13RenderManager19GetCurrentCameraPtrEv
4411:__ZNK6Camera22GetWorldToCameraMatrixEv
4412:__ZN33RendererCullingCallbackPropertiesC2ERK6CameraRK10Matrix4x4f
4413:__ZNK6Camera33CalculateFarPlaneWorldSpaceLengthEv
4414:__ZNK6Camera16GetCullingMatrixEv
4415:__ZNK6Camera20GetWorldToClipMatrixEv
4416:__ZNK6Camera19GetProjectionMatrixEv
4417:__ZN10Matrix4x4f8SetScaleERK8Vector3f
4418:__ZNK9Transform28GetWorldToLocalMatrixNoScaleEv
4419:__ZN10Matrix4x4fmLERKS_
4420:__Z22MultiplyMatrices4x4REFPK10Matrix4x4fS1_PS_
4421:__ZN10Matrix4x4f14SetPerspectiveEffff
4422:__ZN10Matrix4x4f8SetOrthoEffffff
4423:__ZNK6Camera13GetCameraRectEbb
4424:__ZNK6Camera18ScreenToWorldPointERK8Vector3f21MonoOrStereoscopicEye
4425:__Z14RectfToRectIntRK5RectTIfE
4426:__ZNK6Camera19GetStereoViewMatrixE15StereoscopicEye
4427:__Z25InvertMatrix4x4_General3DPKfPf
4428:__ZNK6Camera25GetStereoProjectionMatrixE15StereoscopicEye
4429:__Z20InvertMatrix4x4_FullPKfPf
4430:__Z15CameraUnProjectRK8Vector3fRK10Matrix4x4fS4_RK5RectTIiERS_b
4431:__ZL19GetCameraTargetRectRK6Camerabbb
4432:__ZNK13RenderTexture14GetScaledWidthEv
4433:__ZNK13RenderTexture15GetScaledHeightEv
4434:__ZN21ScalableBufferManager11GetInstanceEv
4435:__ZN13RuntimeStaticI21ScalableBufferManagerLb0EE10InitializeEv
4436:__Z18GetQualitySettingsv
4437:__ZN6CameraD2Ev
4438:__ZN6CameraD0Ev
4439:__ZN6Camera17MainThreadCleanupEv
4440:__ZN6Camera13AwakeFromLoadE17AwakeFromLoadMode
4441:__ZN6Camera16CheckConsistencyEv
4442:__ZN6Camera5ResetEv
4443:__ZNK6Camera22GetTypeVirtualInternalEv
4444:__ZN6Camera23VirtualRedirectTransferER19StreamedBinaryWrite
4445:__ZN6Camera23VirtualRedirectTransferER18StreamedBinaryRead
4446:__ZN6Camera23VirtualRedirectTransferER17RemapPPtrTransfer
4447:__ZN6Camera23VirtualRedirectTransferER24GenerateTypeTreeTransfer
4448:__ZN6Camera23VirtualRedirectTransferER14SafeBinaryRead
4449:__ZN6Camera12AddToManagerEv
4450:__ZN6Camera17RemoveFromManagerEv
4451:__ZN27IntermediateRendererManager26ClearIntermediateRenderersEij
4452:__ZN13RenderManager12RemoveCameraEP6Camera
4453:__ZNSt3__24listI4PPtrI6CameraENS_9allocatorIS3_EEE6removeERKS3_
4454:__ZN13RenderManager9AddCameraEP6Camera
4455:__ZN6Camera38InitializePreviousViewProjectionMatrixEv
4456:__ZNK6Camera16GetTargetTextureEv
4457:__ZN6Camera8TransferI14SafeBinaryReadEEvRT_
4458:__ZN15SerializeTraitsI10ColorRGBAfE8TransferI14SafeBinaryReadEEvRS0_RT_
4459:__ZN14SafeBinaryRead8TransferI8BitFieldEEvRT_PKc17TransferMetaFlags
4460:__ZN6Camera8TransferI24GenerateTypeTreeTransferEEvRT_
4461:__ZN10ColorRGBAf8TransferI24GenerateTypeTreeTransferEEvRT_
4462:__ZN6Camera8TransferI18StreamedBinaryReadEEvRT_
4463:__ZN6Camera8TransferI19StreamedBinaryWriteEEvRT_
4464:__Z19GetGraphicsSettingsv
4465:__ZN13MonoBehaviour33AddImageEffectCallbacksToManagersEv
4466:__Z30scripting_method_has_attribute18ScriptingMethodPtr17ScriptingClassPtr
4467:__ZN13MonoBehaviour17RenderImageFilterEPN5Unity9ComponentEP13RenderTextureS4_
4468:__Z25GetRenderLoopImageFiltersR10RenderLoop
4469:__ZN12ImageFilters14AddImageFilterERK11ImageFilter
4470:__ZN12ImageFilters17RemoveImageFilterERK11ImageFilter
4471:__ZNSt3__26vectorI11ImageFilterNS_9allocatorIS1_EEE6insertENS_11__wrap_iterIPKS1_EERS6_
4472:__ZN13MonoBehaviour30InvokeMethodOrCoroutineCheckedE18ScriptingMethodPtr18ScriptingObjectPtr
4473:__ZN9Scripting19ScriptingWrapperForEP6Object
4474:__ZN9Scripting34ScriptingWrapperClassForNativeTypeEPKN5Unity4TypeE
4475:__Z33scripting_unity_engine_object_new17ScriptingClassPtrP6Object
4476:__ZN19ScriptingInvocationC2E18ScriptingObjectPtr18ScriptingMethodPtr
4477:__ZN13MonoBehaviour30InvokeMethodOrCoroutineCheckedE18ScriptingMethodPtr18ScriptingObjectPtrP21ScriptingExceptionPtr
4478:__Z11IsCoroutine18ScriptingMethodPtrRK22CommonScriptingClasses
4479:__ZN13MonoBehaviour24TryCreateAndRunCoroutineE18ScriptingObjectPtr18ScriptingMethodPtrPP9Coroutine
4480:__Z35scripting_object_get_virtual_method18ScriptingObjectPtr18ScriptingMethodPtr
4481:__ZN9Coroutine3RunEPb
4482:__ZN9Coroutine16CleanupCoroutineEPv
4483:__ZN9Coroutine14InvokeMoveNextEP21ScriptingExceptionPtr
4484:__ZN9Coroutine23ProcessCoroutineCurrentEv
4485:__Z28scripting_class_is_valuetype17ScriptingClassPtr
4486:__ZN9Coroutine17ContinueCoroutineEP6ObjectPv
4487:__Z11CallDelayedPF15CallObjectStateP6ObjectPvE4PPtrIS0_EfS2_fPFS_S2_EN18DelayedCallManager15DelayedCallModeE
4488:__ZN9Coroutine35HandleIEnumerableCurrentReturnValueE18ScriptingObjectPtr
4489:__ZN9CoroutineC2Ev
4490:__Z23scripting_type_get_type16ScriptingTypePtr
4491:__Z24scripting_class_get_type17ScriptingClassPtr
4492:__Z20scripting_object_new17ScriptingClassPtr
4493:__ZN19RenderEventsContext23RemoveAllCommandBuffersEv
4494:__ZN13RenderTexture7ReleaseEv
4495:__ZN6Camera21CleanupAfterRenderingEPK11CullResults
4496:__ZN15LODGroupManager26CollectAllLODGroupManagersERK16CoreCameraValuesR13dynamic_arrayIPS_Lj0EEb
4497:__ZN15LODGroupManager20DestroyCameraLODDataEi
4498:__Z22CleanupAfterRenderLoopR10RenderLoop
4499:__ZN19RenderBufferManager8Textures17ReleaseTempBufferEP13RenderTexture
4500:__Z19ClearShadowMapCacheP14ShadowMapCache
4501:__ZNSt3__26__treeINS_12__value_typeIi17ShadowCachingDataEENS_19__map_value_compareIiS3_NS_4lessIiEELb1EEE13stl_allocatorIS3_L18MemLabelIdentifier66ELi16EEE7destroyEPNS_11__tree_nodeIS3_PvEE
4502:__ZN4core8hash_mapI17RenderTextureDescPN19RenderBufferManager8Textures12TextureEntryENS3_9KeyHasherENSt3__28equal_toIS1_EEE6insertERKS1_RKS5_
4503:__ZN13RenderTexture21SwitchOutOfFastMemoryEb
4504:__ZN9ShaderLab23ClearGrabPassFrameStateEv
4505:__ZN17RenderLoopContextD2Ev
4506:__ZN19SharedRendererSceneD2Ev
4507:__ZNK15RenderNodeQueue17SyncDependentJobsEv
4508:__ZN27PerObjectLightCullingOutputD2Ev
4509:__ZN12ActiveLightsD2Ev
4510:__ZN19RenderEventsContextD2Ev
4511:__ZN19RenderEventsContext20RemoveCommandBuffersEi
4512:__ZN22RenderingCommandBufferD2Ev
4513:__ZN22RenderingCommandBuffer13ClearCommandsEv
4514:__ZN14GrowableBufferD2Ev
4515:__ZN17GPUFenceInternals7ReleaseEv
4516:__ZN16RenderTextureMap5QueryEPK17RenderSurfaceBase
4517:__ZN13RenderTexture21MakeRenderTargetSetupEiP12ObjectHandleI17RenderSurface_TagP17RenderSurfaceBaseES4_i11CubemapFaceiNS_14SetActiveFlagsE
4518:__ZN13RenderTexture9SetActiveERK20GfxRenderTargetSetupPPS_NS_14SetActiveFlagsE
4519:__ZN13RenderTexture15DestroySurfacesEv
4520:__ZN16RenderTextureMap6RemoveEPK17RenderSurfaceBase
4521:__ZN6Camera24OnRenderSurfaceDestroyedE12ObjectHandleI17RenderSurface_TagP17RenderSurfaceBaseEP13RenderTexture
4522:__ZN9GfxDevice16SetRenderTargetsERK20GfxRenderTargetSetup
4523:__ZNK6Camera25GetNormalizedViewportRectEP13RenderTextureb
4524:__Z22CalculateMipMapCount3Diii
4525:__Z16DeleteRenderLoopP10RenderLoop
4526:__Z21DestroyShadowMapCacheP14ShadowMapCache
4527:__ZN12FlareManager8AddFlareENS_9OwnerTypeE
4528:__ZN12FlareManager11UpdateFlareEiP5FlareR9TransformbfRK10ColorRGBAffjj
4529:__ZNSt3__26vectorIN12FlareManager10FlareEntryENS_9allocatorIS2_EEE21__push_back_slow_pathIS2_EEvOT_
4530:__ZN20IntermediateRendererD2Ev
4531:__ZN20IntermediateRendererD0Ev
4532:__ZN20IntermediateRenderer15AddAsRenderNodeER15RenderNodeQueueRK20DeprecatedSourceData
4533:__ZNK20IntermediateRenderer8GetLayerEv
4534:__ZNK20IntermediateRenderer11GetMaterialEi
4535:__ZN12BaseRenderer16FlattenBasicDataERKS_fR10RenderNode
4536:__ZN12BaseRenderer18FlattenCustomPropsEPKPK19ShaderPropertySheetiR22PerThreadPageAllocatorR10RenderNode
4537:__ZN12BaseRenderer25FlattenSharedMaterialDataILb0EEEbRKS_R22PerThreadPageAllocatorR10RenderNode
4538:__ZN22PerThreadPageAllocator14AcquireNewPageEj
4539:__ZN8Material25AcquireSharedMaterialDataEv
4540:__ZN8Material15BuildPropertiesEv
4541:__ZNK9ShaderLab4Pass21ComputePassValuesHashERK16ShaderKeywordSetPK19ShaderPropertySheetP6Shader
4542:__ZN9ShaderLab27ComputeStateBlockValuesHashERK13dynamic_arrayIiLj0EEPK19ShaderPropertySheetS6_
4543:__ZN9ShaderLab9IntShader23CreateStateBlocksForKeyEjPK19ShaderPropertySheetS3_
4544:__ZN9ShaderLab11ShaderState15AddDeviceStatesEjPK19ShaderPropertySheetS3_
4545:__ZNK9ShaderLab11ShaderState17BuildDeviceStatesER9GfxDevicePK19ShaderPropertySheetS5_RNS0_12DeviceStatesE
4546:__ZNK9ShaderLab20ShaderBlendStateDesc15ToGfxBlendStateEPK19ShaderPropertySheetS3_R13GfxBlendState
4547:__ZN9ShaderLab11shaderprops8GetFloatEPK19ShaderPropertySheetS3_NS_16FastPropertyNameE
4548:__ZNK9ShaderLab21ShaderRasterStateDesc16ToGfxRasterStateEPK19ShaderPropertySheetS3_R14GfxRasterState
4549:__ZNK9ShaderLab22ShaderStencilStateDesc17ToGfxStencilStateEPK19ShaderPropertySheetS3_RK14GfxRasterStateR15GfxStencilState
4550:__ZNK9ShaderLab7Program21GetMatchingSubProgramEPK6ShaderPKNS_4PassERK16ShaderKeywordSetjPS7_R19ShaderSnippetResult
4551:__ZNK20GpuProgramParameters23PrepareOverridingValuesERK19ShaderPropertySheetR13dynamic_arrayIhLj4EE
4552:__ZL22PrepareValueParametersI27OverridingParameterPreparerEvRK13dynamic_arrayIN20GpuProgramParameters14ValueParameterELj0EEjjjRS1_IhLj4EERKT_
4553:__ZNK9ShaderLab6TexEnv11PrepareDataEiibP15GfxTextureParam
4554:__Z35UnityShaderExtPluginKeywordsEnabledRK16ShaderKeywordSet
4555:__Z41UnityShaderExtIsCustomPluginVariantNeededjj
4556:__ZN24dense_hashtable_iteratorINSt3__24pairIKN9ShaderLab7Program23ShaderKeywordSetAndHashEPKNS2_10SubProgramEEES4_NS3_24ShaderKeywordHashFunctorEN14dense_hash_mapIS4_S8_SA_NS0_8equal_toIS4_EE13stl_allocatorIS9_L18MemLabelIdentifier67ELi16EEE9SelectKeyESD_SG_E30advance_past_empty_and_deletedEv
4557:__ZNK15dense_hashtableINSt3__24pairIKN9ShaderLab7Program23ShaderKeywordSetAndHashEPKNS2_10SubProgramEEES4_NS3_24ShaderKeywordHashFunctorEN14dense_hash_mapIS4_S8_SA_NS0_8equal_toIS4_EE13stl_allocatorIS9_L18MemLabelIdentifier67ELi16EEE9SelectKeyESD_SG_E23find_position_with_hashERS5_j
4558:__ZN9ShaderLab32FindBestMatchingShaderKeywordSetERK16ShaderKeywordSetRK13dynamic_arrayIS0_Lj0EEPS5_
4559:__ZN9ShaderLab10SubProgram7CompileEv
4560:__ZNK9ShaderLab7Program24MarkVariantAsUnsupportedERK16ShaderKeywordSet
4561:__ZN15dense_hashtableINSt3__24pairIKN9ShaderLab7Program23ShaderKeywordSetAndHashEPKNS2_10SubProgramEEES4_NS3_24ShaderKeywordHashFunctorEN14dense_hash_mapIS4_S8_SA_NS0_8equal_toIS4_EE13stl_allocatorIS9_L18MemLabelIdentifier67ELi16EEE9SelectKeyESD_SG_E12resize_deltaEjj
4562:__ZN15dense_hashtableINSt3__24pairIKN9ShaderLab7Program23ShaderKeywordSetAndHashEPKNS2_10SubProgramEEES4_NS3_24ShaderKeywordHashFunctorEN14dense_hash_mapIS4_S8_SA_NS0_8equal_toIS4_EE13stl_allocatorIS9_L18MemLabelIdentifier67ELi16EEE9SelectKeyESD_SG_E15insert_noresizeERKS9_
4563:__ZN15dense_hashtableINSt3__24pairIKN9ShaderLab7Program23ShaderKeywordSetAndHashEPKNS2_10SubProgramEEES4_NS3_24ShaderKeywordHashFunctorEN14dense_hash_mapIS4_S8_SA_NS0_8equal_toIS4_EE13stl_allocatorIS9_L18MemLabelIdentifier67ELi16EEE9SelectKeyESD_SG_E12maybe_shrinkEv
4564:__ZN15dense_hashtableINSt3__24pairIKN9ShaderLab7Program23ShaderKeywordSetAndHashEPKNS2_10SubProgramEEES4_NS3_24ShaderKeywordHashFunctorEN14dense_hash_mapIS4_S8_SA_NS0_8equal_toIS4_EE13stl_allocatorIS9_L18MemLabelIdentifier67ELi16EEE9SelectKeyESD_SG_E9copy_fromERKSJ_j
4565:__ZN20GpuProgramParametersaSERKS_
4566:__Z34UnityShaderExtCanCompileGPUProgramRK16ShaderKeywordSet20ShaderGpuProgramType
4567:__ZN16PropertyNamesSet6insertERKS_
4568:__ZN22CreateGpuProgramOutputD2Ev
4569:__ZN20GpuProgramParametersD2Ev
4570:__ZNSt3__213__vector_baseIN20GpuProgramParameters14ConstantBufferENS_9allocatorIS2_EEED2Ev
4571:__ZNSt3__26vectorIN20GpuProgramParameters16TextureParameterENS_9allocatorIS2_EEE6assignIPS2_EENS_9enable_ifIXaasr21__is_forward_iteratorIT_EE5valuesr16is_constructibleIS2_NS_15iterator_traitsIS9_E9referenceEEE5valueEvE4typeES9_S9_
4572:__ZNSt3__26vectorIN20GpuProgramParameters12UAVParameterENS_9allocatorIS2_EEE6assignIPS2_EENS_9enable_ifIXaasr21__is_forward_iteratorIT_EE5valuesr16is_constructibleIS2_NS_15iterator_traitsIS9_E9referenceEEE5valueEvE4typeES9_S9_
4573:__ZNSt3__26vectorIN20GpuProgramParameters14ConstantBufferENS_9allocatorIS2_EEE6assignIPS2_EENS_9enable_ifIXaasr21__is_forward_iteratorIT_EE5valuesr16is_constructibleIS2_NS_15iterator_traitsIS9_E9referenceEEE5valueEvE4typeES9_S9_
4574:__ZNSt3__26vectorIN20GpuProgramParameters15StructParameterENS_9allocatorIS2_EEE6assignIPS2_EENS_9enable_ifIXaasr21__is_forward_iteratorIT_EE5valuesr16is_constructibleIS2_NS_15iterator_traitsIS9_E9referenceEEE5valueEvE4typeES9_S9_
4575:__ZNSt3__26vectorIN20GpuProgramParameters15StructParameterENS_9allocatorIS2_EEEC2ERKS5_
4576:__ZNSt3__26vectorIN20GpuProgramParameters14ConstantBufferENS_9allocatorIS2_EEE10deallocateEv
4577:__ZN22CreateGpuProgramOutputC2Ev
4578:__ZN6Shader10GetDefaultEv
4579:__ZN19ShaderPropertySheet8CopyFromERKS_
4580:__ZN18UnityPropertySheet20AddNewShaderlabPropsERK19ShaderPropertySheet
4581:__ZN18UnityPropertySheet25AssignDefinedPropertiesToER19ShaderPropertySheet
4582:__ZN8Material10SetTextureEN9ShaderLab16FastPropertyNameEP7Texture
4583:__ZN24MaterialDisplayListCache22InvalidateDisplayListsER18SharedMaterialData
4584:__ZN19ShaderPropertySheet10SetTextureERK23FastTexturePropertyNameP7Texture
4585:__ZN8Material28UpdateHashesOnPropertyChangeEN9ShaderLab16FastPropertyNameE
4586:__ZN23TextureStreamingManager14UpdateMaterialER8Material
4587:__ZN20TextureStreamingData15FreeTextureInfoEP17StreamingRenderer
4588:__ZN19ShaderPropertySheet18AddTextureFromInfoERK23FastTexturePropertyNamePKN9ShaderLab25SerializedTexturePropertyE
4589:__ZN19ShaderPropertySheet17UpdateTextureInfoEiRK23FastTexturePropertyNameP7Textureb9TextureID
4590:__ZN9ShaderLab6TexEnv14SetTextureInfoE9TextureID16TextureDimension14VRTextureUsage19TextureSamplingTypeRKNS_16FastPropertyNameE
4591:__Z19GetActiveColorSpacev
4592:__Z22GetTextureDecodeValues16TextureUsageMode17TextureColorSpace
4593:__ZN19ShaderPropertySheet37CreateTextureAuxPropertyUninitializedEN9ShaderLab16FastPropertyNameES1_PKc
4594:__ZNK9ShaderLab16FastPropertyName7GetNameEv
4595:__ZN19ShaderPropertySheet27AddNewPropertyUninitializedEN9ShaderLab16FastPropertyNameENS_12PropertyTypeEj
4596:__ZN13dynamic_arrayIN9ShaderLab16FastPropertyNameELj0EE6insertEPS1_jRKS1_
4597:__ZN13dynamic_arrayIjLj0EE6insertEPjjRKj
4598:__Z20GetPlayerSettingsPtrv
4599:__ZN9ShaderLab6TexEnvC2ERKNS_25SerializedTexturePropertyE
4600:__ZN24MaterialDisplayListCache16CachedShaderPass10ReleaseAllEv
4601:__ZN19ShaderPropertySheet8SetFloatEN9ShaderLab16FastPropertyNameEfNS_8SetFlagsE
4602:__ZN19ShaderPropertySheet9SetVectorEN9ShaderLab16FastPropertyNameERK8Vector4fNS_8SetFlagsE
4603:__ZN19ShaderPropertySheet23SetTextureWithPlacementERK23FastTexturePropertyNameP7Texture8Vector2fS5_
4604:__ZNK19ShaderPropertySheet24GetFloatValueInsRGBSpaceEi
4605:__ZNK19ShaderPropertySheet25GetVectorValueInsRGBSpaceEi
4606:__ZNK22BuiltinResourceManager11GetResourceEPKN5Unity4TypeERKN4core12basic_stringIcNS4_20StringStorageDefaultIcEEEE
4607:__ZNK13sorted_vectorIN22BuiltinResourceManager8ResourceENSt3__24lessIS1_EENS2_9allocatorIS1_EEE4findIS1_EENS2_11__wrap_iterIPKS1_EERKT_
4608:__ZN19AtomicPageAllocator12AllocatePageEj
4609:__Z11FormatBytesx
4610:__ZN4Mesh10CreateMeshEv
4611:__ZN12BaseRenderer16FlattenProbeDataE4PPtrI9TransformERisRK17LightProbeContextR10RenderNode
4612:__ZN17MeshRenderingData4InitEP4MeshS1_iP9GfxBufferS3_
4613:__Z20RenderMultipleMeshesRK15RenderNodeQueueRK18RenderMultipleData16VertexInputMasks
4614:__ZN8DrawUtil24DrawMeshRawFromNodeQueueERK15RenderNodeQueuej16VertexInputMasksi
4615:__ZN8DrawUtil31CleanupDrawMeshRawFromNodeQueueER15RenderNodeQueuej
4616:__ZN17MeshRenderingData7ReleaseEv
4617:__Z30ExtractMeshBuffersAndDrawRangeR11MeshBuffersR16DrawBuffersRangeRK9GfxDeviceRK17MeshRenderingData16VertexInputMasksib
4618:__Z18ExtractMeshBuffersR11MeshBuffersP14SharedMeshDataS2_P23SharedMeshRenderingDataS4_16VertexInputMasksP9GfxBufferb
4619:__ZNK16MeshVertexFormat28CalculateRequiredStreamCountE17ShaderChannelMask
4620:__Z30AddDefaultStreamsToMeshBuffersR9GfxDeviceR11MeshBuffersj17ShaderChannelMaskS3_
4621:__ZN16MeshVertexFormat20GetVertexDeclarationER9GfxDevice16VertexInputMasksPKS_
4622:__ZNK16MeshVertexFormat28GetVertexDeclarationInternalER9GfxDevice17ShaderChannelMaskPKS_
4623:__ZN9GfxDevice20GetVertexDeclarationERK18VertexChannelsInfoNS_30VertexDeclarationMRUCacheIndexE
4624:__ZN25VertexDeclarationMRUCache13GetVertexDeclER9GfxDeviceRK18VertexChannelsInfo
4625:__ZNK18VertexChannelsInfoneERKS_
4626:__ZL13MeshExtractorPv16VertexInputMasksiR11MeshBuffersR16DrawBuffersRangeRiS5_
4627:__ZNK17InstancingBatcher15RenderInstancesERK15RenderNodeQueuePK17BatchInstanceDataj16VertexInputMasksPFbPvS6_iR11MeshBuffersR16DrawBuffersRangeRiSC_E
4628:__ZN8DrawUtil26ApplySharedNodeCustomPropsER9GfxDeviceRK10RenderNodei
4629:__Z18ExtractMeshBuffersR11MeshBuffersRK17MeshRenderingData16VertexInputMasksbb
4630:__Z17RenderStaticBatchR9GfxDevice10Matrix4x4fR13dynamic_arrayI7SubMeshLj0EERK11MeshBuffersPK17BatchInstanceDataj16VertexInputMasks
4631:__ZNK14VertexDataInfo17GetChannelsLayoutEv
4632:__ZN9GfxDevice13GetDynamicVBOEv
4633:__Z29CalculateDefaultChannelsToAdd17ShaderChannelMaskS_
4634:__Z40BuildSingleStreamChannelInfoWithDefaultsP11ChannelInfoRK20VertexChannelsLayout17ShaderChannelMaskS4_S4_
4635:__Z30ProcessDynamicBatchGeometryJobP25DynamicVBOGeometryJobDataj
4636:__Z30CleanupDynamicBatchGeometryJobP25DynamicVBOGeometryJobData
4637:__Z17SetupObjectMatrixRK10Matrix4x4fi
4638:__Z27TransformVerticesStridedREFPhRK10Matrix4x4fjPKhiS4_ii25GfxTransformVerticesFlagsj
4639:__ZN10Matrix3x3f15InvertTransposeEv
4640:__Z26TransformVerticesInnerLoopILb0ELb0ELb0EEvPhRK10Matrix4x4fRK10Matrix3x3fjPKhiS8_ii25GfxTransformVerticesFlagsj
4641:__Z26TransformVerticesInnerLoopILb1ELb0ELb0EEvPhRK10Matrix4x4fRK10Matrix3x3fjPKhiS8_ii25GfxTransformVerticesFlagsj
4642:__Z26TransformVerticesInnerLoopILb0ELb1ELb0EEvPhRK10Matrix4x4fRK10Matrix3x3fjPKhiS8_ii25GfxTransformVerticesFlagsj
4643:__Z26TransformVerticesInnerLoopILb1ELb1ELb0EEvPhRK10Matrix4x4fRK10Matrix3x3fjPKhiS8_ii25GfxTransformVerticesFlagsj
4644:__Z26TransformVerticesInnerLoopILb0ELb0ELb1EEvPhRK10Matrix4x4fRK10Matrix3x3fjPKhiS8_ii25GfxTransformVerticesFlagsj
4645:__Z26TransformVerticesInnerLoopILb1ELb0ELb1EEvPhRK10Matrix4x4fRK10Matrix3x3fjPKhiS8_ii25GfxTransformVerticesFlagsj
4646:__Z26TransformVerticesInnerLoopILb0ELb1ELb1EEvPhRK10Matrix4x4fRK10Matrix3x3fjPKhiS8_ii25GfxTransformVerticesFlagsj
4647:__Z26TransformVerticesInnerLoopILb1ELb1ELb1EEvPhRK10Matrix4x4fRK10Matrix3x3fjPKhiS8_ii25GfxTransformVerticesFlagsj
4648:__ZN10Matrix4x4f5ScaleERK8Vector3f
4649:__ZN10Matrix4x4fC2ERK10Matrix3x3f
4650:__ZN10Matrix3x3fC2ERK10Matrix4x4f
4651:__ZNK17InstancingBatcher18MapConstantBuffersER9GfxDeviceR13dynamic_arrayIPvLj0EERS2_I5CbKeyLj0EERS2_IjLj0EEj
4652:__ZNK17InstancingBatcher25FillInstanceBufferWithJobIN10Instancing14RenderLoopArgsEEEvR8JobFenceR13dynamic_arrayIPvLj0EEjjRKT_
4653:__ZNK15RenderNodeQueue15AddDependentJobER8JobFence
4654:__ZL17InstanceBufferJobIN10Instancing14RenderLoopArgsEEvP21InstanceBufferJobDataIT_E
4655:__Z19ScheduleJobInternalR8JobFencePFvPvES1_11JobPriority
4656:__ZNK15InstancingProps35FillInstanceBufferDispatchConstantsIN10Instancing14RenderLoopArgsEEEvPPvjjRK19ShaderPropertySheetRKT_
4657:__ZNK27SharedObjectDeleteReleaseOpI21InstanceBufferJobDataIN10Instancing14RenderLoopArgsEEEclEPS3_10MemLabelId
4658:__Z26DrawSpriteRawFromNodeQueueRK15RenderNodeQueuej16VertexInputMasksi
4659:__Z20GetSpriteDeviceColorRK10ColorRGBAf
4660:__Z16TransformIndicesPtPKvjjjjb
4661:__Z17TransformVerticesPhRK10Matrix4x4fPKhjj26GfxTransformVerticesParams25GfxTransformVerticesFlagsj
4662:__ZN19ShaderPropertySheetD2Ev
4663:__ZN19ShaderPropertySheetD0Ev
4664:__ZNK28ReflectionProbeAnchorManager35FindCachedReflectionProbeFromAnchorEPK9TransformRK4AABBRS3_RsS7_
4665:__ZNK28ReflectionProbeAnchorManager28GetCachedProbeAnchorPositionERK9Transform
4666:__Z38CalculateLightProbeSamplingCoordinatesRK17LightProbeContextRK8Vector3fiR29LightProbeSamplingCoordinates
4667:__ZNK11LightProbes14LightProbeData33GetLightProbeInterpolationWeightsERK8Vector3fRiR8Vector4f
4668:__Z37GetBarycentricCoordinatesForOuterCellPPK8Vector3fRK13dynamic_arrayIS_Lj0EERS0_RK11TetrahedronR8Vector4f
4669:__ZN15LightProbeUtils32BarycentricCoordinates3DTriangleEPK8Vector3fRS1_
4670:__ZN28ReflectionProbeAnchorManager37FindReflectionProbeFromAnchorInternalEPK9Transform8Vector3fRK4AABBRS4_RsS8_
4671:__ZNK10GameObject25QueryComponentByExactTypeEPKN5Unity4TypeE
4672:__ZN4Mesh5ClearEb
4673:__ZN4Mesh15UnshareMeshDataEv
4674:__Z27ConvertSubMeshesToTrianglesIjEvR13dynamic_arrayI7SubMeshLj0EERS0_IhLj0EE
4675:__Z27ConvertSubMeshesToTrianglesItEvR13dynamic_arrayI7SubMeshLj0EERS0_IhLj0EE
4676:__ZN23SharedMeshRenderingData25CreateOrUpdateIndexBufferERK13GfxBufferDescPKv20GfxUpdateBufferFlags
4677:__ZN18VertexChannelsInfoC2ERA14_K11ChannelInfo
4678:__ZN14SharedMeshDataC2ERKS_
4679:__ZN10VertexDataC2E10MemLabelIdRKS_17ShaderChannelMask
4680:__ZN14VertexDataInfo12UpdateFormatEj17ShaderChannelMaskS0_RK19VertexStreamsLayoutRK20VertexChannelsLayout
4681:__ZL12CopyChannelsj17ShaderChannelMaskRA4_K10StreamInfoRA14_K11ChannelInfoPKhS3_S7_Ph
4682:__ZN14VertexDataInfo18UpdateImplicitDataEv
4683:__Z43IsVertexFormatCompatibleWithDynamicBatchingRK14VertexDataInfo
4684:__ZN13dynamic_arrayI7SubMeshLj0EE9push_backERKS0_
4685:__Z16ClearBlendShapesR14BlendShapeData
4686:__ZN4Mesh14ResizeVerticesEj17ShaderChannelMaskS0_RK20VertexChannelsLayout
4687:__ZN14VertexDataInfoC2Ev
4688:__ZN14SharedMeshData22ClearCachedBoneWeightsEv
4689:__Z17SendMessageDirectR6ObjectRK17MessageIdentifierR11MessageData
4690:__ZN10VertexDataD2Ev
4691:__ZN10VertexData4SwapERS_
4692:__ZN10VertexData6ResizeEj17ShaderChannelMaskS0_RK19VertexStreamsLayoutRK20VertexChannelsLayout
4693:__ZN18ShadowMapJobHeaderD2Ev
4694:__ZN18ShadowMapJobHeaderD0Ev
4695:__ZN15SharedLightDataD2Ev
4696:__ZN16GraphicsSettingsD2Ev
4697:__ZN16GraphicsSettingsD0Ev
4698:__ZN16GraphicsSettings10SmartResetEv
4699:__ZNK16GraphicsSettings22GetTypeVirtualInternalEv
4700:__ZN16GraphicsSettings23VirtualRedirectTransferER19StreamedBinaryWrite
4701:__ZN16GraphicsSettings23VirtualRedirectTransferER18StreamedBinaryRead
4702:__ZN16GraphicsSettings23VirtualRedirectTransferER17RemapPPtrTransfer
4703:__ZN16GraphicsSettings23VirtualRedirectTransferER24GenerateTypeTreeTransfer
4704:__ZN16GraphicsSettings23VirtualRedirectTransferER14SafeBinaryRead
4705:__ZN16GraphicsSettings8TransferI14SafeBinaryReadEEvRT_
4706:__ZN21BuiltinShaderSettings8TransferI14SafeBinaryReadEEvRT_
4707:__ZN14SafeBinaryRead21TransferSTLStyleArrayINSt3__26vectorI4PPtrI6ShaderE13stl_allocatorIS5_L18MemLabelIdentifier53ELi16EEEEEEvRT_17TransferMetaFlags
4708:__ZN14SafeBinaryRead21TransferSTLStyleArrayINSt3__26vectorI4PPtrI23ShaderVariantCollectionE13stl_allocatorIS5_L18MemLabelIdentifier53ELi16EEEEEEvRT_17TransferMetaFlags
4709:__ZN20TierGraphicsSettings8TransferI14SafeBinaryReadEEvRT_
4710:__ZN14SafeBinaryRead21TransferSTLStyleArrayI13dynamic_arrayI21PlatformShaderDefinesLj0EEEEvRT_17TransferMetaFlags
4711:__ZN5Light17PrecalcLightColorEb
4712:__ZN16GraphicsSettings28SetLightsUseColorTemperatureEb
4713:__ZN15SharedLightData17PrecalcLightColorEb
4714:__Z31CorrelatedColorTemperatureToRGBf
4715:__ZN15SharedLightDataC2ERKS_
4716:__ZN19RenderEventsContextC2ERKS_
4717:__ZN22RenderingCommandBufferC2E10MemLabelIdRKS_
4718:__ZN14GrowableBufferC2ERKS_
4719:__ZN15SerializeTraitsI21PlatformShaderDefinesE8TransferI14SafeBinaryReadEEvRS0_RT_
4720:__Z14resize_trimmedINSt3__26vectorI4PPtrI23ShaderVariantCollectionE13stl_allocatorIS4_L18MemLabelIdentifier53ELi16EEEEEvRT_j
4721:__ZNSt3__26vectorI4PPtrI23ShaderVariantCollectionE13stl_allocatorIS3_L18MemLabelIdentifier53ELi16EEE6assignINS_11__wrap_iterIPS3_EEEENS_9enable_ifIXaasr21__is_forward_iteratorIT_EE5valuesr16is_constructibleIS3_NS_15iterator_traitsISD_E9referenceEEE5valueEvE4typeESD_SD_
4722:__ZNSt3__26vectorI4PPtrI23ShaderVariantCollectionE13stl_allocatorIS3_L18MemLabelIdentifier53ELi16EEE8__appendEj
4723:__ZN16GraphicsSettings8TransferI24GenerateTypeTreeTransferEEvRT_
4724:__ZN24GenerateTypeTreeTransfer8TransferI21BuiltinShaderSettingsEEvRT_PKc17TransferMetaFlags
4725:__ZN20TierGraphicsSettings8TransferI24GenerateTypeTreeTransferEEvRT_
4726:__ZN24GenerateTypeTreeTransfer8TransferI21PlatformShaderDefinesEEvRT_PKc17TransferMetaFlags
4727:__ZN16GraphicsSettings8TransferI17RemapPPtrTransferEEvRT_
4728:__ZN16GraphicsSettings8TransferI18StreamedBinaryReadEEvRT_
4729:__ZN20TierGraphicsSettings8TransferI18StreamedBinaryReadEEvRT_
4730:__ZN18StreamedBinaryRead21TransferSTLStyleArrayI13dynamic_arrayI21PlatformShaderDefinesLj0EEEEvRT_17TransferMetaFlags
4731:__ZN21PlatformShaderDefines8TransferI18StreamedBinaryReadEEvRT_
4732:__ZN16GraphicsSettings8TransferI19StreamedBinaryWriteEEvRT_
4733:__ZN20TierGraphicsSettings8TransferI19StreamedBinaryWriteEEvRT_
4734:__ZN21PlatformShaderDefines8TransferI19StreamedBinaryWriteEEvRT_
4735:__ZN21LightProbeProxyVolume27ValidateBoundingBoxSettingsEv
4736:__ZNK9Transform21GetWorldToLocalMatrixEv
4737:__ZN26LightProbeProxyVolumeUtilsL27ComputeLocalAABBOnHierarchyERK10Matrix4x4fR9TransformR10MinMaxAABB
4738:__ZN8Renderer29GetTransformInfoAndUpdateSlowEv
4739:__ZNK4AABB17CalculateVerticesEP8Vector3f
4740:__ZN21RendererUpdateManager20UpdateSingleRendererER8RendererR13RendererScene
4741:__Z28CalculateGlobalMatrixInverse23TransformAccessReadOnly
4742:__ZN15ReflectionProbeD0Ev
4743:__ZN15ReflectionProbe13AwakeFromLoadE17AwakeFromLoadMode
4744:__ZN15ReflectionProbe16CheckConsistencyEv
4745:__ZN15ReflectionProbe5ResetEv
4746:__ZNK15ReflectionProbe22GetTypeVirtualInternalEv
4747:__ZN15ReflectionProbe23VirtualRedirectTransferER19StreamedBinaryWrite
4748:__ZN15ReflectionProbe23VirtualRedirectTransferER18StreamedBinaryRead
4749:__ZN15ReflectionProbe23VirtualRedirectTransferER17RemapPPtrTransfer
4750:__ZN15ReflectionProbe23VirtualRedirectTransferER24GenerateTypeTreeTransfer
4751:__ZN15ReflectionProbe23VirtualRedirectTransferER14SafeBinaryRead
4752:__ZN15ReflectionProbe12AddToManagerEv
4753:__ZN15ReflectionProbe17RemoveFromManagerEv
4754:__ZN16ReflectionProbes11RemoveProbeE4PPtrI15ReflectionProbeE
4755:__ZNK15ReflectionProbe10GetTextureEv
4756:__ZN16ReflectionProbes22ForceProbeToUseTextureER15ReflectionProbeP7Texture
4757:__Z35GetTextureDecodeValuesWithIntensity16TextureUsageMode17TextureColorSpace10ColorSpacef
4758:__ZNSt3__25dequeI18ReflectionProbeJobNS_9allocatorIS1_EEE19__add_back_capacityEv
4759:__ZNSt3__212__deque_baseI18ReflectionProbeJobNS_9allocatorIS1_EEED2Ev
4760:__ZNSt3__214__split_bufferIP18ReflectionProbeJobNS_9allocatorIS2_EEE9push_backEOS2_
4761:__ZNSt3__214__split_bufferIP18ReflectionProbeJobNS_9allocatorIS2_EEE10push_frontEOS2_
4762:__ZN16ReflectionProbes8AddProbeE4PPtrI15ReflectionProbeE
4763:__ZN16ReflectionProbes8ScheduleEN18ReflectionProbeJob7JobTypeEP15ReflectionProbei
4764:__ZN15ReflectionProbe8TransferI14SafeBinaryReadEEvRT_
4765:__ZN15ReflectionProbe8TransferI24GenerateTypeTreeTransferEEvRT_
4766:__ZN15ReflectionProbe8TransferI18StreamedBinaryReadEEvRT_
4767:__ZN15ReflectionProbe8TransferI19StreamedBinaryWriteEEvRT_
4768:__ZNK12GraphicsCaps17IsFormatSupportedE14GraphicsFormat11FormatUsage13FormatSupport
4769:__ZN11HaloManager10DeleteHaloEiP6Object
4770:__ZNSt3__26vectorIN11HaloManager8HaloDataENS_9allocatorIS2_EEE21__push_back_slow_pathIS2_EEvOT_
4771:__ZN11HaloManager10UpdateHaloEiR9Transform11ColorRGBA32fjP6Object
4772:__ZN20SphericalHarmonicsL28TransferI14SafeBinaryReadEEvRT_
4773:__ZN20SphericalHarmonicsL28TransferI24GenerateTypeTreeTransferEEvRT_
4774:__ZN18StreamedBinaryRead10ReadDirectEPvi
4775:__ZN12CachedReader4ReadEPvj
4776:__ZN20SphericalHarmonicsL28TransferI18StreamedBinaryReadEEvRT_
4777:__ZN20SphericalHarmonicsL28TransferI19StreamedBinaryWriteEEvRT_
4778:__ZN14RenderSettingsD2Ev
4779:__ZN14RenderSettingsD0Ev
4780:__ZN14RenderSettings13AwakeFromLoadE17AwakeFromLoadMode
4781:__ZN14RenderSettings16CheckConsistencyEv
4782:__ZN14RenderSettings5ResetEv
4783:__ZNK14RenderSettings22GetTypeVirtualInternalEv
4784:__ZN14RenderSettings23VirtualRedirectTransferER19StreamedBinaryWrite
4785:__ZN14RenderSettings23VirtualRedirectTransferER18StreamedBinaryRead
4786:__ZN14RenderSettings23VirtualRedirectTransferER17RemapPPtrTransfer
4787:__ZN14RenderSettings23VirtualRedirectTransferER24GenerateTypeTreeTransfer
4788:__ZN14RenderSettings23VirtualRedirectTransferER14SafeBinaryRead
4789:__ZN14RenderSettings8TransferI14SafeBinaryReadEEvRT_
4790:__ZN14RenderSettings18TransferDeprecatedI14SafeBinaryReadEEvRT_
4791:__ZN14RenderSettings8TransferI24GenerateTypeTreeTransferEEvRT_
4792:__ZN14RenderSettings8TransferI17RemapPPtrTransferEEvRT_
4793:__ZN14RenderSettings8TransferI18StreamedBinaryReadEEvRT_
4794:__ZN14RenderSettings8TransferI19StreamedBinaryWriteEEvRT_
4795:__ZNK22BuiltinResourceManager21GetResourceInstanceIDEPKN5Unity4TypeERKN4core12basic_stringIcNS4_20StringStorageDefaultIcEEEE
4796:__ZN14RenderSettings17UpdateGlobalStateEv
4797:__ZN14RenderSettings23UpdateFinalAmbientProbeEv
4798:__ZN14RenderSettings14ApplyFogParamsEv
4799:__ZN5Light9SetupHaloEv
4800:__ZN5Light10SetupFlareEv
4801:__ZN16ReflectionProbes17SetDefaultTextureE4PPtrI7CubemapEf
4802:__ZN14RenderSettings27UpdateIndirectSpecularColorEv
4803:__ZN16ReflectionProbes16UpdateSampleDataEv
4804:__ZNK16ReflectionProbes21GenerateDefaultSampleEv
4805:__ZN16ReflectionProbes11UpdateProbeER15ReflectionProbej
4806:__ZNK9Transform28GetLocalToWorldMatrixNoScaleEv
4807:__ZNK10GameObject16GetCullSceneMaskEv
4808:__ZNK28ReflectionProbeAnchorManager14IsAnchorCachedERK9Transform
4809:__ZN19RuntimeSceneManager14GetActiveSceneEv
4810:__ZN12FlareManager11DeleteFlareEi
4811:__ZN12LightManager28IsLightTransformDataUpToDateEPK5Light
4812:__ZN12LightManager27UpdateAllLightTransformDataEv
4813:__ZN23TransformChangeDispatch28GetAndClearChangedTransformsE27TransformChangeSystemHandleR13dynamic_arrayI23TransformAccessReadOnlyLj0EEPN9profiling6MarkerE
4814:__ZN5Light25UpdateLightDataTransformsEv
4815:__ZN15SharedLightData15UpdateTransformERK9Transform
4816:__ZN15SharedLightData7PrecalcEv
4817:__Z24CalculateVertexLightDataRK15SharedLightDataR14GfxVertexLight
4818:__ZL31GetAndClearChangedTransformsJobP27GetChangedTransformsJobDatajPK23TransformAccessReadOnlyPKyj
4819:__ZN23TransformChangeDispatch40GetAndClearChangedAsBatchedJobs_InternalEyPFvPvjPK23TransformAccessReadOnlyPKyjES0_PFvS0_EPN9profiling6MarkerE
4820:__Z40ConfigureBlockRangesWithMinIndicesPerJobP10BlockRangeii
4821:__ZN18BlockRangeInternal16PopLastNodeIndexEP10BlockRangeji
4822:__ZN18BlockRangeInternal25GetSizeFromLastBlockRangeEP10BlockRangej
4823:__Z43GetUniqueDependenciesAndClearHierarchyFencePP18TransformHierarchyjP8JobFence
4824:__Z26ScheduleMultiDependencyJobR8JobFenceR18JobBatchDispatcherPKS_j
4825:__ZL8BatchJobP18BatchJobDataSingle
4826:__ZN11HaloManager7AddHaloENS_9OwnerTypeE
4827:__ZN20SphericalHarmonicsL27SetZeroEv
4828:__ZN20SphericalHarmonicsL211AddWeightedERKS_f
4829:__ZN20SphericalHarmonicsL215AddAmbientLightERK10ColorRGBAf
4830:__ZN20SphericalHarmonicsL219AddDirectionalLightERKN4math7_float3ERKNS0_7_float4E
4831:__ZN17AmbientProbeBaker29CalculateAmbientFaceProcessorclER5ImageiRK8Vector3fS5_S5_b
4832:__ZN6prcore10ClearImageER14ImageReferenceRK11ColorRGBA3214ImageClearMode
4833:__Z20GetTextureFormatInfo13TextureFormat
4834:__ZN6prcoreL11inner_clearILj1EEEvPhjjj
4835:__ZN6prcoreL11inner_clearILj2EEEvPhjjj
4836:__ZN6prcoreL11inner_clearILj3EEEvPhjjj
4837:__ZN6prcoreL11inner_clearILj4EEEvPhjjj
4838:__ZN5ImageC2Eii13TextureFormat
4839:__Z25GetBytesFromTextureFormat13TextureFormat
4840:__ZN20SphericalHarmonicsL217AddToCoefficientsEPKN4math7_float4EPKf
4841:__ZN23TransformChangeDispatch19SetSystemInterestedE15TransformAccess27TransformChangeSystemHandleb
4842:__ZN10TextureRef4InitEP7Textureb
4843:__ZN8Playable13SetInputCountEi
4844:__ZN8Playable14SetOutputCountEi
4845:__ZN8Playable14SetInputWeightEif
4846:__ZNK8Playable14GetInputWeightEi
4847:__ZN8Playable11PrepareDataERK19DirectorVisitorInfo
4848:__ZN8Playable12PrepareFrameERK19DirectorVisitorInfo
4849:__ZN8Playable11SetLeadTimeEf
4850:__ZN8Playable7SetTimeEd
4851:__ZN8Playable7SetDataEyPv
4852:__ZN8Playable13OnAdvanceTimeEd
4853:__ZN8Playable19SetOutputConnectionEPS_i
4854:__ZN8Playable20ClearInputConnectionEi
4855:__ZN8Playable21ClearOutputConnectionEi
4856:__Z8WrapTimedd16DirectorWrapModed
4857:__ZN8Playable19DeallocateResourcesEv
4858:__ZN8Playable7DestroyEv
4859:__ZNK15PlayableMethods21InvokePlayableDestroyER18ScriptingObjectPtrRK9HPlayable
4860:__ZNK8Playable11DerivesFromE17ScriptingClassPtr
4861:__Z11CopyTextureP7TextureS0_
4862:__ZL29CheckCopyTextureBaseArgumentsP7TextureS0_
4863:__ZN9Texture2D18UnshareTextureDataEv
4864:__Z28EnsureRenderTextureIsCreatedP13RenderTexture
4865:__ZN13RenderTexture6CreateERK12ObjectHandleI17RenderSurface_TagP17RenderSurfaceBaseES6_NS_11CreateFlagsE
4866:__ZN13RenderTexture25AdjustDescForGraphicsCapsER17RenderTextureDescR9GfxDeviceRK12GraphicsCapsPS_
4867:__Z12GetMSAALeveli
4868:__Z17GetGraphicsFormat17DepthBufferFormat
4869:__ZN9GfxDevice18AliasRenderSurfaceE9TextureIDP17RenderSurfaceBase
4870:__ZN16RenderTextureMap6UpdateEPK17RenderSurfaceBaseP13RenderTexture
4871:__ZN4core8hash_mapIPK17RenderSurfaceBaseP13RenderTexture19PointerHashFunctionIS3_ENSt3__28equal_toIS3_EEE6insertERKS3_RKS5_
4872:__ZN21ScalableBufferManager21RegisterRenderSurfaceEP17RenderSurfaceBase
4873:__Z23GetGraphicsFormatString14GraphicsFormat
4874:__ZN4core13StringBuilder6appendEi
4875:__Z11IntToStringi
4876:__ZN19RenderBufferManager8Textures13GetTempBufferEii17DepthBufferFormat19RenderTextureFormat22RenderTextureReadWriteNS0_5FlagsE14VRTextureUsagei23RenderTextureMemoryless
4877:__ZN19RenderBufferManager8Textures13GetTempBufferE17RenderTextureDesc
4878:__ZNK6Camera24GetScreenViewportRectIntEb
4879:__ZN13RenderTexture21FixInvalidDescOptionsER17RenderTextureDesc
4880:__ZNK4core8hash_setINS_4pairIK17RenderTextureDescPN19RenderBufferManager8Textures12TextureEntryELb0EEENS_9hash_pairINS5_9KeyHasherES3_S7_EENS_10equal_pairINSt3__28equal_toIS2_EES3_S7_EEE6lookupIS2_EEPNSH_4nodeERKT_
4881:__ZN6Object27AllocateAndAssignInstanceIDEPS_
4882:__ZN13RenderTexture20SetRenderTextureDescERK17RenderTextureDesc
4883:__ZN13RenderTexture18SetUseDynamicScaleEb
4884:__ZN13RenderTexture6CreateENS_11CreateFlagsE
4885:__ZN10MemoryPool8AllocateEj
4886:__ZN13RenderTexture15DiscardContentsEbb
4887:__ZN13RenderTexture24CorrectVerticalTexelSizeEb
4888:__ZN13RenderTexture20SwitchIntoFastMemoryE11SurfaceType12SurfaceUsage15FastMemoryFlagsbf
4889:__ZN10MemoryPool14AllocNewBubbleEv
4890:__ZN13RenderTexture14SetColorFormatE19RenderTextureFormat
4891:__ZN13RenderTexture9SetMipMapEb
4892:__ZN13RenderTexture16SetBindTextureMSEb
4893:__ZN13RenderTexture12SetDimensionE16TextureDimension
4894:__ZN13RenderTextureC2E10MemLabelId18ObjectCreationMode
4895:__ZN7TextureC2E10MemLabelId18ObjectCreationMode
4896:__ZN13RenderTextureD2Ev
4897:__ZN13RenderTextureD0Ev
4898:__ZN13RenderTexture17MainThreadCleanupEv
4899:__ZN13RenderTexture13AwakeFromLoadE17AwakeFromLoadMode
4900:__ZN7Texture16CheckConsistencyEv
4901:__ZN7Texture5ResetEv
4902:__ZNK13RenderTexture22GetTypeVirtualInternalEv
4903:__ZN7Texture7SetNameEPKc
4904:__ZNK13RenderTexture20GetRuntimeMemorySizeEv
4905:__ZN13RenderTexture23VirtualRedirectTransferER19StreamedBinaryWrite
4906:__ZN13RenderTexture23VirtualRedirectTransferER18StreamedBinaryRead
4907:__ZN13RenderTexture23VirtualRedirectTransferER17RemapPPtrTransfer
4908:__ZN13RenderTexture23VirtualRedirectTransferER24GenerateTypeTreeTransfer
4909:__ZN13RenderTexture23VirtualRedirectTransferER14SafeBinaryRead
4910:__ZN13RenderTexture13ApplySettingsEv
4911:__ZNK13RenderTexture21GetShadowSamplingModeEv
4912:__ZNK13RenderTexture14IsDepthTextureEv
4913:__ZNK13RenderTexture12IsMemorylessEv
4914:__ZNK13RenderTexture19IsBoundMultisampledEv
4915:__ZNK13RenderTexture12IsUAVAllowedEv
4916:__ZNK13RenderTexture12GetDataWidthEv
4917:__ZNK13RenderTexture13GetDataHeightEv
4918:__ZNK13RenderTexture20GetTextureLayerCountEv
4919:__ZNK13RenderTexture12GetDimensionEv
4920:__ZNK13RenderTexture10GetVRUsageEv
4921:__ZN7Texture33VerifyFileTextureUploadCompletionEv
4922:__ZNK13RenderTexture16ExtractImageImplEP14ImageReference13ImageBlitModebi
4923:__ZNK13RenderTexture37IsBoundMultisampledOnSecondaryTextureEv
4924:__ZN15TextureSettings38ClearUnsupportedSettingsForColorFormatE19RenderTextureFormat
4925:__ZNK15TextureSettings5ApplyE9TextureID16TextureDimensionb17TextureColorSpace18ShadowSamplingModeb
4926:__ZNK15TextureSettings5ApplyER9GfxDevice9TextureID16TextureDimensionb17TextureColorSpace18ShadowSamplingModeb
4927:__ZNK12GraphicsCaps16FindUploadFormatE14GraphicsFormat11FormatUsage
4928:__ZN13RenderTexture8TransferI14SafeBinaryReadEEvRT_
4929:__ZN7Texture8TransferI14SafeBinaryReadEEvRT_
4930:__ZN15TextureSettings8TransferI14SafeBinaryReadEEvRT_
4931:__ZN13RenderTexture8TransferI24GenerateTypeTreeTransferEEvRT_
4932:__ZN7Texture8TransferI24GenerateTypeTreeTransferEEvRT_
4933:__ZN15TextureSettings8TransferI24GenerateTypeTreeTransferEEvRT_
4934:__ZN13RenderTexture8TransferI18StreamedBinaryReadEEvRT_
4935:__ZN7Texture8TransferI18StreamedBinaryReadEEvRT_
4936:__ZN15TextureSettings8TransferI18StreamedBinaryReadEEvRT_
4937:__ZN13RenderTexture8TransferI19StreamedBinaryWriteEEvRT_
4938:__ZN7Texture8TransferI19StreamedBinaryWriteEEvRT_
4939:__ZN15TextureSettings8TransferI19StreamedBinaryWriteEEvRT_
4940:__ZN15TextureSettings16CheckConsistencyEv
4941:__ZN6Camera24OnRenderTextureDestroyedEP13RenderTexture
4942:__ZN25CameraStackRenderingState16GetTargetTextureEv
4943:__ZN7Texture17MainThreadCleanupEv
4944:__ZN19ShaderPropertySheet26SetMatchingTextureIDToNoneE9TextureID
4945:__ZN25CameraStackRenderingState32GetCameraStackTempEyeTextureDescEv
4946:__ZN25CameraStackRenderingState29GetCameraStackTempTextureDescEv
4947:__ZN19StereoRenderTexture12AllocateTempER17RenderTextureDesc
4948:__Z27GetRenderTextureColorFormatbbb
4949:__ZNK13RenderTexture18GetUseDynamicScaleEv
4950:__ZN6Camera23SetTargetTextureBuffersEP13RenderTextureiPK12ObjectHandleI17RenderSurface_TagP17RenderSurfaceBaseES6_PS1_
4951:__ZN7TextureD2Ev
4952:__ZNK7Texture22GetTypeVirtualInternalEv
4953:__ZN7Texture23VirtualRedirectTransferER24GenerateTypeTreeTransfer
4954:__ZN7Texture23VirtualRedirectTransferER14SafeBinaryRead
4955:__ZN7Texture13ApplySettingsEv
4956:__ZN11NamedObjectC2E10MemLabelId18ObjectCreationMode
4957:__ZN6ObjectC2E10MemLabelId18ObjectCreationMode
4958:__ZN14ConstantString12create_emptyEv
4959:__ZNK15PlayableMethods18InvokePrepareFrameER18ScriptingObjectPtrRK9HPlayableP18ScriptingFrameData
4960:__ZNK15PlayableMethods17InvokePrepareDataER18ScriptingObjectPtrRK9HPlayableP18ScriptingFrameData
4961:__ZN8PlayableD2Ev
4962:__ZN15DirectorManager14ConnectionPool4FreeEP14ConnectionList
4963:__ZN15DirectorManager8FreeNodeEP5HNode
4964:__ZN8PlayableD0Ev
4965:__ZN8Playable7ProcessEiRK9FrameDataPv
4966:__ZNK8Playable7GetTypeEv
4967:__ZN8Playable18SetInputConnectionEPS_ii
4968:__ZN15DirectorManager14ConnectionPool12SwitchBucketEP14ConnectionList
4969:__ZNK15PlayableMethods18InvokeProcessFrameER18ScriptingObjectPtrRK9HPlayableP18ScriptingFrameDataRK9FrameData
4970:__ZNK9Transform18GetWorldScaleLossyEv
4971:__Z25CalculateGlobalScaleLossy23TransformAccessReadOnly
4972:__ZN22DeviceMVPMatricesStateD2Ev
4973:__ZN29ExtractProjectionPlanesHelperILb0EE5ApplyERK10Matrix4x4fP5Plane
4974:__ZL20InitializeGUIShadersv
4975:__ZN9ShaderLab4Pass9ApplyPassEjPK19ShaderPropertySheetR17ShaderPassContextP6ShaderiPKNS_10GrabPassesEPNS_11SubProgramsEPK22DeviceRenderStateBlock
4976:__ZNK9ShaderLab11ShaderState16ApplyShaderStateEjPK19ShaderPropertySheetRK17ShaderPassContextP6ShaderPNS_4PassEPNS_11SubProgramsEPK22DeviceRenderStateBlock
4977:__ZN9ShaderLab10GrabPasses13ApplyGrabPassERKNS_16FastPropertyNameER17ShaderPassContextRKS0_
4978:__ZN9ShaderLab10GrabPasses23ApplyGrabPassMainThreadERKNS_16FastPropertyNameER17ShaderPassContext
4979:__ZN9ShaderLabL15GetSizedTextureEPK6CameraRKNS_16FastPropertyNameEbbRb
4980:__ZN13RenderTexture17SetGlobalPropertyERKN9ShaderLab16FastPropertyNameER17ShaderPassContext
4981:__ZN9ShaderLabL27GetDesiredRenderTextureDescEPK6Camera
4982:__ZN13RenderTexture9GetActiveEi
4983:__ZN13RenderTexture10GrabPixelsEiiii
4984:__ZN7Texture13SetFilterModeE17TextureFilterMode
4985:__ZN13RenderTexture10GrabPixelsE12ObjectHandleI17RenderSurface_TagP17RenderSurfaceBaseES4_iiii
4986:__ZN19ShaderPropertySheet38CopyTextureWithAuxiliaryPropertiesFromERKN9ShaderLab16FastPropertyNameERKS_
4987:__ZNK9ShaderLab11ShaderState20FindSubProgramsToUseEPK6ShaderPKNS_4PassERNS_11SubProgramsERK17ShaderPassContext
4988:__ZN14GraphicsHelper28PrepareShaderParameterBufferER13dynamic_arrayIhLj4EERA6_P10GpuProgramRA6_PK20GpuProgramParametersRA6_PKhRKN9ShaderLab11SubProgramsEPK19ShaderPropertySheetSM_
4989:__ZNK22DeviceRenderStateBlock8OverrideERN9ShaderLab11ShaderState12DeviceStatesERi
4990:__ZNK20GpuProgramParameters13PrepareValuesEPK19ShaderPropertySheetS2_R13dynamic_arrayIhLj4EEjP12GfxPatchInfoPb
4991:__ZL22PrepareValueParametersI21FullParameterPreparerEvRK13dynamic_arrayIN20GpuProgramParameters14ValueParameterELj0EEjjjRS1_IhLj4EERKT_
4992:__ZNK21FullParameterPreparer16OnPrepareTextureERPKN9ShaderLab6TexEnvERKN20GpuProgramParameters16TextureParameterEj
4993:__ZNK21FullParameterPreparer22OnPrepareComputeBufferER15ComputeBufferIDRKN20GpuProgramParameters15BufferParameterEj
4994:__ZN9ShaderLab11shaderprops16GetComputeBufferEPK19ShaderPropertySheetS3_NS_16FastPropertyNameE
4995:__ZN9ShaderLab11shaderprops9GetTexEnvEPK19ShaderPropertySheetS3_NS_16FastPropertyNameE16TextureDimensionb
4996:__ZNK21FullParameterPreparer13OnPrepareImplIfEEbR12PartialArrayIT_EN8GfxPatch4TypeERKN20GpuProgramParameters14ValueParameterERKN9ShaderLab11shaderprops16PropertyLocationEj
4997:__ZN9ShaderLab11shaderprops9GetVectorEPK19ShaderPropertySheetS3_NS_16FastPropertyNameE
4998:__ZN9ShaderLab11shaderprops9GetMatrixEPK19ShaderPropertySheetS3_NS_16FastPropertyNameE
4999:__ZN13dynamic_arrayI16ShaderKeywordSetLj0EE6insertEPS0_PKS0_S4_
5000:__ZN9ShaderLab11ShaderState25RemoveUnsupportedProgramsEPK6Shader
5001:__ZNK9ShaderLab10SubProgram14EnsureCompiledEv
5002:__ZN6Shader27MarkShaderStateNotSupportedEPKS_
5003:__ZN6Shader19MarkShaderHasErrorsEPKS_
5004:__ZNK9ShaderLab11ShaderState34ShouldRemoveAnyUnsupportedProgramsEv
5005:__ZNK9ShaderLab7Program19HasMatchingVariantsERK13dynamic_arrayI16ShaderKeywordSetLj0EE
5006:__ZN9ShaderLab7Program14RemoveVariantsERK13dynamic_arrayI16ShaderKeywordSetLj0EE
5007:__Z15GetScriptMapperv
5008:__ZN12ScriptMapper10FindShaderERKN4core12basic_stringIcNS0_20StringStorageDefaultIcEEEE
5009:__ZN8Material14CreateMaterialER6ShaderN6Object9HideFlagsEb
5010:__ZN8Material9GetShaderEv
5011:__ZN8MaterialD2Ev
5012:__ZN8MaterialD0Ev
5013:__ZN8Material17MainThreadCleanupEv
5014:__ZN8Material13AwakeFromLoadE17AwakeFromLoadMode
5015:__ZN8Material5ResetEv
5016:__ZNK8Material22GetTypeVirtualInternalEv
5017:__ZNK8Material20GetRuntimeMemorySizeEv
5018:__ZN8Material23VirtualRedirectTransferER19StreamedBinaryWrite
5019:__ZN8Material23VirtualRedirectTransferER18StreamedBinaryRead
5020:__ZN8Material23VirtualRedirectTransferER17RemapPPtrTransfer
5021:__ZN8Material23VirtualRedirectTransferER24GenerateTypeTreeTransfer
5022:__ZN8Material23VirtualRedirectTransferER14SafeBinaryRead
5023:__ZN8Material8TransferI14SafeBinaryReadEEvRT_
5024:__ZN14SafeBinaryRead19TransferSTLStyleMapINSt3__23mapIN4core12basic_stringIcNS3_20StringStorageDefaultIcEEEES7_NS1_4lessIS7_EE13stl_allocatorINS1_4pairIKS7_S7_EEL18MemLabelIdentifier1ELi16EEEEEEvRT_17TransferMetaFlags
5025:__ZN14SafeBinaryRead21TransferSTLStyleArrayINSt3__26vectorIN4core12basic_stringIcNS3_20StringStorageDefaultIcEEEE13stl_allocatorIS7_L18MemLabelIdentifier1ELi16EEEEEEvRT_17TransferMetaFlags
5026:__ZNSt3__26vectorINS_4pairI11ShaderTagIDS2_EENS_9allocatorIS3_EEE6insertENS_11__wrap_iterIPKS3_EEOS3_
5027:__ZN18UnityPropertySheet8TransferI14SafeBinaryReadEEvRT_
5028:__ZNSt3__26__treeINS_12__value_typeIN4core12basic_stringIcNS2_20StringStorageDefaultIcEEEES6_EENS_19__map_value_compareIS6_S7_NS_4lessIS6_EELb1EEE13stl_allocatorIS7_L18MemLabelIdentifier1ELi16EEE7destroyEPNS_11__tree_nodeIS7_PvEE
5029:__ZN14SafeBinaryRead19TransferSTLStyleMapINSt3__23mapI39DeprecatedFastPropertyNameSerializationN18UnityPropertySheet11UnityTexEnvENS1_4lessIS3_EENS1_9allocatorINS1_4pairIKS3_S5_EEEEEEEEvRT_17TransferMetaFlags
5030:__ZN14SafeBinaryRead19TransferSTLStyleMapINSt3__23mapI39DeprecatedFastPropertyNameSerializationfNS1_4lessIS3_EENS1_9allocatorINS1_4pairIKS3_fEEEEEEEEvRT_17TransferMetaFlags
5031:__ZN14SafeBinaryRead19TransferSTLStyleMapINSt3__23mapI39DeprecatedFastPropertyNameSerialization10ColorRGBAfNS1_4lessIS3_EENS1_9allocatorINS1_4pairIKS3_S4_EEEEEEEEvRT_17TransferMetaFlags
5032:__ZN14SafeBinaryRead19TransferSTLStyleMapINSt3__23mapIN9ShaderLab16FastPropertyNameEN18UnityPropertySheet11UnityTexEnvENS1_4lessIS4_EENS1_9allocatorINS1_4pairIKS4_S6_EEEEEEEEvRT_17TransferMetaFlags
5033:__ZN14SafeBinaryRead19TransferSTLStyleMapINSt3__23mapIN9ShaderLab16FastPropertyNameEfNS1_4lessIS4_EENS1_9allocatorINS1_4pairIKS4_fEEEEEEEEvRT_17TransferMetaFlags
5034:__ZN14SafeBinaryRead19TransferSTLStyleMapINSt3__23mapIN9ShaderLab16FastPropertyNameE10ColorRGBAfNS1_4lessIS4_EENS1_9allocatorINS1_4pairIKS4_S5_EEEEEEEEvRT_17TransferMetaFlags
5035:__ZNSt3__26__treeINS_12__value_typeIN9ShaderLab16FastPropertyNameE10ColorRGBAfEENS_19__map_value_compareIS3_S5_NS_4lessIS3_EELb1EEENS_9allocatorIS5_EEE7destroyEPNS_11__tree_nodeIS5_PvEE
5036:__ZN15SerializeTraitsINSt3__24pairIN9ShaderLab16FastPropertyNameE10ColorRGBAfEEE8TransferI14SafeBinaryReadEEvRS5_RT_
5037:__ZNSt3__26__treeINS_12__value_typeIN9ShaderLab16FastPropertyNameEfEENS_19__map_value_compareIS3_S4_NS_4lessIS3_EELb1EEENS_9allocatorIS4_EEE7destroyEPNS_11__tree_nodeIS4_PvEE
5038:__ZN15SerializeTraitsINSt3__24pairIN9ShaderLab16FastPropertyNameEfEEE8TransferI14SafeBinaryReadEEvRS4_RT_
5039:__ZNSt3__26__treeINS_12__value_typeIN9ShaderLab16FastPropertyNameEN18UnityPropertySheet11UnityTexEnvEEENS_19__map_value_compareIS3_S6_NS_4lessIS3_EELb1EEENS_9allocatorIS6_EEE7destroyEPNS_11__tree_nodeIS6_PvEE
5040:__ZN15SerializeTraitsINSt3__24pairIN9ShaderLab16FastPropertyNameEN18UnityPropertySheet11UnityTexEnvEEEE8TransferI14SafeBinaryReadEEvRS6_RT_
5041:__ZN18UnityPropertySheet11UnityTexEnv8TransferI14SafeBinaryReadEEvRT_
5042:__ZNSt3__26__treeINS_12__value_typeI39DeprecatedFastPropertyNameSerialization10ColorRGBAfEENS_19__map_value_compareIS2_S4_NS_4lessIS2_EELb1EEENS_9allocatorIS4_EEE7destroyEPNS_11__tree_nodeIS4_PvEE
5043:__ZN15SerializeTraitsINSt3__24pairI39DeprecatedFastPropertyNameSerialization10ColorRGBAfEEE8TransferI14SafeBinaryReadEEvRS4_RT_
5044:__ZN39DeprecatedFastPropertyNameSerialization8TransferI14SafeBinaryReadEEvRT_
5045:__ZNSt3__26__treeINS_12__value_typeI39DeprecatedFastPropertyNameSerializationfEENS_19__map_value_compareIS2_S3_NS_4lessIS2_EELb1EEENS_9allocatorIS3_EEE7destroyEPNS_11__tree_nodeIS3_PvEE
5046:__ZNSt3__26__treeINS_12__value_typeI39DeprecatedFastPropertyNameSerializationN18UnityPropertySheet11UnityTexEnvEEENS_19__map_value_compareIS2_S5_NS_4lessIS2_EELb1EEENS_9allocatorIS5_EEE7destroyEPNS_11__tree_nodeIS5_PvEE
5047:__ZN15SerializeTraitsINSt3__24pairI39DeprecatedFastPropertyNameSerializationN18UnityPropertySheet11UnityTexEnvEEEE8TransferI14SafeBinaryReadEEvRS5_RT_
5048:__ZNSt3__214__split_bufferINS_4pairI11ShaderTagIDS2_EERNS_9allocatorIS3_EEE9push_backEOS3_
5049:__ZN18SharedMaterialDataD2Ev
5050:__ZN18SharedMaterialDataD0Ev
5051:__ZN24MaterialDisplayListCache20MaterialDisplayLists22InvalidateDisplayListsEv
5052:__Z14resize_trimmedINSt3__26vectorIN4core12basic_stringIcNS2_20StringStorageDefaultIcEEEE13stl_allocatorIS6_L18MemLabelIdentifier1ELi16EEEEEvRT_j
5053:__ZNSt3__26vectorIN4core12basic_stringIcNS1_20StringStorageDefaultIcEEEE13stl_allocatorIS5_L18MemLabelIdentifier1ELi16EEE7reserveEj
5054:__ZNSt3__26vectorIN4core12basic_stringIcNS1_20StringStorageDefaultIcEEEE13stl_allocatorIS5_L18MemLabelIdentifier1ELi16EEE6assignINS_11__wrap_iterIPS5_EEEENS_9enable_ifIXaasr21__is_forward_iteratorIT_EE5valuesr16is_constructibleIS5_NS_15iterator_traitsISF_E9referenceEEE5valueEvE4typeESF_SF_
5055:__ZNSt3__26vectorIN4core12basic_stringIcNS1_20StringStorageDefaultIcEEEE13stl_allocatorIS5_L18MemLabelIdentifier1ELi16EEE8__appendEj
5056:__ZNSt3__26vectorIN4core12basic_stringIcNS1_20StringStorageDefaultIcEEEE13stl_allocatorIS5_L18MemLabelIdentifier1ELi16EEEC2INS_11__wrap_iterIPS5_EEEET_SE_RKS8_PNS_9enable_ifIXaasr21__is_forward_iteratorISE_EE5valuesr16is_constructibleIS5_NS_15iterator_traitsISE_E9referenceEEE5valueEvE4typeE
5057:__ZN15SerializeTraitsINSt3__24pairIN4core12basic_stringIcNS2_20StringStorageDefaultIcEEEES6_EEE8TransferI14SafeBinaryReadEEvRS7_RT_
5058:__ZNSt3__26__treeINS_12__value_typeIN4core12basic_stringIcNS2_20StringStorageDefaultIcEEEES6_EENS_19__map_value_compareIS6_S7_NS_4lessIS6_EELb1EEE13stl_allocatorIS7_L18MemLabelIdentifier1ELi16EEE25__emplace_unique_key_argsIS6_JRNS_4pairIS6_S6_EEEEENSH_INS_15__tree_iteratorIS7_PNS_11__tree_nodeIS7_PvEEiEEbEERKT_DpOT0_
5059:__ZNSt3__26__treeINS_12__value_typeIN4core12basic_stringIcNS2_20StringStorageDefaultIcEEEES6_EENS_19__map_value_compareIS6_S7_NS_4lessIS6_EELb1EEE13stl_allocatorIS7_L18MemLabelIdentifier1ELi16EEE16__construct_nodeIJRNS_4pairIS6_S6_EEEEENS_10unique_ptrINS_11__tree_nodeIS7_PvEENS_22__tree_node_destructorISC_ISN_LSD_1ELi16EEEEEEDpOT_
5060:__ZN8Material8TransferI24GenerateTypeTreeTransferEEvRT_
5061:__ZN24GenerateTypeTreeTransfer19TransferSTLStyleMapINSt3__23mapIN4core12basic_stringIcNS3_20StringStorageDefaultIcEEEES7_NS1_4lessIS7_EE13stl_allocatorINS1_4pairIKS7_S7_EEL18MemLabelIdentifier1ELi16EEEEEEvRT_17TransferMetaFlags
5062:__ZN18UnityPropertySheet8TransferI24GenerateTypeTreeTransferEEvRT_
5063:__ZN15SerializeTraitsIN18UnityPropertySheet11UnityTexEnvEE8TransferI24GenerateTypeTreeTransferEEvRS1_RT_
5064:__ZN15SerializeTraitsINSt3__24pairIN4core12basic_stringIcNS2_20StringStorageDefaultIcEEEES6_EEE8TransferI24GenerateTypeTreeTransferEEvRS7_RT_
5065:__ZN8Material8TransferI17RemapPPtrTransferEEvRT_
5066:__ZN8Material8TransferI18StreamedBinaryReadEEvRT_
5067:__ZN18StreamedBinaryRead19TransferSTLStyleMapINSt3__23mapIN4core12basic_stringIcNS3_20StringStorageDefaultIcEEEES7_NS1_4lessIS7_EE13stl_allocatorINS1_4pairIKS7_S7_EEL18MemLabelIdentifier1ELi16EEEEEEvRT_17TransferMetaFlags
5068:__ZN18StreamedBinaryRead19TransferSTLStyleMapINSt3__23mapIN9ShaderLab16FastPropertyNameEN18UnityPropertySheet11UnityTexEnvENS1_4lessIS4_EENS1_9allocatorINS1_4pairIKS4_S6_EEEEEEEEvRT_17TransferMetaFlags
5069:__ZN18StreamedBinaryRead19TransferSTLStyleMapINSt3__23mapIN9ShaderLab16FastPropertyNameEfNS1_4lessIS4_EENS1_9allocatorINS1_4pairIKS4_fEEEEEEEEvRT_17TransferMetaFlags
5070:__ZN18StreamedBinaryRead19TransferSTLStyleMapINSt3__23mapIN9ShaderLab16FastPropertyNameE10ColorRGBAfNS1_4lessIS4_EENS1_9allocatorINS1_4pairIKS4_S5_EEEEEEEEvRT_17TransferMetaFlags
5071:__ZN18StreamedBinaryRead8TransferINSt3__24pairIN9ShaderLab16FastPropertyNameEfEEEEvRT_PKc17TransferMetaFlags
5072:__ZN18UnityPropertySheet11UnityTexEnv8TransferI18StreamedBinaryReadEEvRT_
5073:__ZN8Material8TransferI19StreamedBinaryWriteEEvRT_
5074:__ZN9shadertag16GetShaderTagNameE11ShaderTagID
5075:__ZNSt3__26__treeINS_12__value_typeIN4core12basic_stringIcNS2_20StringStorageDefaultIcEEEES6_EENS_19__map_value_compareIS6_S7_NS_4lessIS6_EELb1EEE13stl_allocatorIS7_L18MemLabelIdentifier1ELi16EEE25__emplace_unique_key_argsIS6_JRKNS_21piecewise_construct_tENS_5tupleIJOS6_EEENSK_IJEEEEEENS_4pairINS_15__tree_iteratorIS7_PNS_11__tree_nodeIS7_PvEEiEEbEERKT_DpOT0_
5076:__ZN18UnityPropertySheet8TransferI19StreamedBinaryWriteEEvRT_
5077:__Z36UnityPropertySheet_MakeSortedTexEnvsRKNSt3__23mapIN9ShaderLab16FastPropertyNameEN18UnityPropertySheet11UnityTexEnvENS_4lessIS2_EENS_9allocatorINS_4pairIKS2_S4_EEEEEER10vector_mapIS2_S4_S6_NS7_INS8_IS2_S4_EEEEE
5078:__ZN15SerializeTraitsIN9ShaderLab16FastPropertyNameEE8TransferI19StreamedBinaryWriteEEvRS1_RT_
5079:__ZN18UnityPropertySheet11UnityTexEnv8TransferI19StreamedBinaryWriteEEvRT_
5080:__Z35UnityPropertySheet_MakeSortedFloatsRKNSt3__23mapIN9ShaderLab16FastPropertyNameEfNS_4lessIS2_EENS_9allocatorINS_4pairIKS2_fEEEEEER10vector_mapIS2_fS4_NS5_INS6_IS2_fEEEEE
5081:__Z35UnityPropertySheet_MakeSortedColorsRKNSt3__23mapIN9ShaderLab16FastPropertyNameE10ColorRGBAfNS_4lessIS2_EENS_9allocatorINS_4pairIKS2_S3_EEEEEER10vector_mapIS2_S3_S5_NS6_INS7_IS2_S3_EEEEE
5082:__ZL15SortColorByNameRKNSt3__24pairIN9ShaderLab16FastPropertyNameE10ColorRGBAfEES6_
5083:__ZNSt3__26__sortIRPFbRKNS_4pairIN9ShaderLab16FastPropertyNameE10ColorRGBAfEES7_EPS5_EEvT0_SC_T_
5084:__ZNSt3__26vectorINS_4pairIN9ShaderLab16FastPropertyNameE10ColorRGBAfEENS_9allocatorIS5_EEE21__push_back_slow_pathIS5_EEvOT_
5085:__ZNSt3__27__sort3IRPFbRKNS_4pairIN9ShaderLab16FastPropertyNameE10ColorRGBAfEES7_EPS5_EEjT0_SC_SC_T_
5086:__ZNSt3__27__sort4IRPFbRKNS_4pairIN9ShaderLab16FastPropertyNameE10ColorRGBAfEES7_EPS5_EEjT0_SC_SC_SC_T_
5087:__ZNSt3__27__sort5IRPFbRKNS_4pairIN9ShaderLab16FastPropertyNameE10ColorRGBAfEES7_EPS5_EEjT0_SC_SC_SC_SC_T_
5088:__ZNSt3__227__insertion_sort_incompleteIRPFbRKNS_4pairIN9ShaderLab16FastPropertyNameE10ColorRGBAfEES7_EPS5_EEbT0_SC_T_
5089:__ZNSt3__26__sortIRPFbRKNS_4pairIN9ShaderLab16FastPropertyNameEfEES6_EPS4_EEvT0_SB_T_
5090:__ZNSt3__27__sort3IRPFbRKNS_4pairIN9ShaderLab16FastPropertyNameEfEES6_EPS4_EEjT0_SB_SB_T_
5091:__ZNSt3__27__sort5IRPFbRKNS_4pairIN9ShaderLab16FastPropertyNameEfEES6_EPS4_EEjT0_SB_SB_SB_SB_T_
5092:__ZNSt3__227__insertion_sort_incompleteIRPFbRKNS_4pairIN9ShaderLab16FastPropertyNameEfEES6_EPS4_EEbT0_SB_T_
5093:__ZNSt3__26__sortIRPFbRKNS_4pairIN9ShaderLab16FastPropertyNameEN18UnityPropertySheet11UnityTexEnvEEES8_EPS6_EEvT0_SD_T_
5094:__ZNSt3__26vectorINS_4pairIN9ShaderLab16FastPropertyNameEN18UnityPropertySheet11UnityTexEnvEEENS_9allocatorIS6_EEE21__push_back_slow_pathIS6_EEvOT_
5095:__ZNSt3__27__sort3IRPFbRKNS_4pairIN9ShaderLab16FastPropertyNameEN18UnityPropertySheet11UnityTexEnvEEES8_EPS6_EEjT0_SD_SD_T_
5096:__ZNSt3__27__sort4IRPFbRKNS_4pairIN9ShaderLab16FastPropertyNameEN18UnityPropertySheet11UnityTexEnvEEES8_EPS6_EEjT0_SD_SD_SD_T_
5097:__ZNSt3__27__sort5IRPFbRKNS_4pairIN9ShaderLab16FastPropertyNameEN18UnityPropertySheet11UnityTexEnvEEES8_EPS6_EEjT0_SD_SD_SD_SD_T_
5098:__ZNSt3__227__insertion_sort_incompleteIRPFbRKNS_4pairIN9ShaderLab16FastPropertyNameEN18UnityPropertySheet11UnityTexEnvEEES8_EPS6_EEbT0_SD_T_
5099:__ZN8Material15ResetWithShaderEP6Shader
5100:__ZN19ShaderPropertySheet5ClearEb
5101:__ZN8Material17UpdateToNewShaderEb
5102:__ZN8Material14SetOverrideTagE11ShaderTagIDS0_
5103:__ZN8keywords18StringToKeywordSetERKN4core12basic_stringIcNS0_20StringStorageDefaultIcEEEER16ShaderKeywordSet
5104:__ZN15NameToObjectMapI6ShaderNSt3__23mapI4PPtrIS0_EN4core12basic_stringIcNS5_20StringStorageDefaultIcEEEENS1_4lessIS4_EENS1_9allocatorINS1_4pairIKS4_S9_EEEEEENS1_8multimapIS9_S4_NSA_IS9_EENSC_INSD_IKS9_S4_EEEEEEE4FindERSK_
5105:__ZNSt3__26__treeINS_12__value_typeIN4core12basic_stringIcNS2_20StringStorageDefaultIcEEEE4PPtrI6ShaderEEENS_19__map_value_compareIS6_SA_NS_4lessIS6_EELb1EEENS_9allocatorISA_EEE19__equal_range_multiIS6_EENS_4pairINS_15__tree_iteratorISA_PNS_11__tree_nodeISA_PvEEiEESP_EERKT_
5106:__ZN22DeviceMVPMatricesStateC2ER9GfxDevice
5107:__ZN19ShaderPropertySheet18SetTextureUnscaledERK23FastTexturePropertyNameP7Texture8Vector2fS5_
5108:__ZN19ShaderPropertySheet24SetTextureScaleAndOffsetERK23FastTexturePropertyName8Vector2fS3_
5109:__ZNK14PlayableOutput7GetTypeEv
5110:__ZNK14PlayableOutput11DerivesFromE17ScriptingClassPtr
5111:__ZN14PlayableOutput17SetSourcePlayableEP8Playable
5112:__ZNK14PlayableOutput17GetSourcePlayableEv
5113:__ZN20BaseBehaviourManagerD2Ev
5114:__ZNSt3__26__treeINS_12__value_typeIiNS_4pairIP4ListI8ListNodeI9BehaviourEES8_EEEENS_19__map_value_compareIiSA_NS_4lessIiEELb1EEENS_9allocatorISA_EEE7destroyEPNS_11__tree_nodeISA_PvEE
5115:__ZN18DelayedCallManagerD2Ev
5116:__ZN18DelayedCallManagerD0Ev
5117:__ZN18DelayedCallManager17MainThreadCleanupEv
5118:__ZNK18DelayedCallManager22GetTypeVirtualInternalEv
5119:__ZN18DelayedCallManager6UpdateEi
5120:__ZN18DelayedCallManager8ClearAllEv
5121:__ZNSt3__26__treeIN18DelayedCallManager8CallbackENS_4lessIS2_EENS_9allocatorIS2_EEE7destroyEPNS_11__tree_nodeIS2_PvEE
5122:__ZN6SpriteD2Ev
5123:__ZN6SpriteD0Ev
5124:__ZN6Sprite17MainThreadCleanupEv
5125:__ZN6Sprite13AwakeFromLoadE17AwakeFromLoadMode
5126:__ZNK6Sprite22GetTypeVirtualInternalEv
5127:__ZN6Sprite23VirtualRedirectTransferER19StreamedBinaryWrite
5128:__ZN6Sprite23VirtualRedirectTransferER18StreamedBinaryRead
5129:__ZN6Sprite23VirtualRedirectTransferER17RemapPPtrTransfer
5130:__ZN6Sprite23VirtualRedirectTransferER24GenerateTypeTreeTransfer
5131:__ZN6Sprite23VirtualRedirectTransferER14SafeBinaryRead
5132:__ZN6Sprite8TransferI14SafeBinaryReadEEvRT_
5133:__ZN16SpriteRenderData8TransferI14SafeBinaryReadEEvRT_
5134:__ZN14SafeBinaryRead21TransferSTLStyleArrayINSt3__26vectorI13dynamic_arrayI8Vector2fLj0EENS1_9allocatorIS5_EEEEEEvRT_17TransferMetaFlags
5135:__ZN14SafeBinaryRead21TransferSTLStyleArrayI13dynamic_arrayI10SpriteBoneLj0EEEEvRT_17TransferMetaFlags
5136:__ZN13dynamic_arrayI10SpriteBoneLj0EE18resize_initializedEj12ResizePolicy
5137:__ZN10SpriteBone8TransferI14SafeBinaryReadEEvRT_
5138:__Z14resize_trimmedINSt3__26vectorI13dynamic_arrayI8Vector2fLj0EENS0_9allocatorIS4_EEEEEvRT_j
5139:__ZN14SafeBinaryRead21TransferSTLStyleArrayI13dynamic_arrayI8Vector2fLj0EEEEvRT_17TransferMetaFlags
5140:__ZNSt3__26vectorI13dynamic_arrayI8Vector2fLj0EENS_9allocatorIS3_EEE7reserveEj
5141:__ZNSt3__26vectorI13dynamic_arrayI8Vector2fLj0EENS_9allocatorIS3_EEE6assignINS_11__wrap_iterIPS3_EEEENS_9enable_ifIXaasr21__is_forward_iteratorIT_EE5valuesr16is_constructibleIS3_NS_15iterator_traitsISC_E9referenceEEE5valueEvE4typeESC_SC_
5142:__ZNSt3__26vectorI13dynamic_arrayI8Vector2fLj0EENS_9allocatorIS3_EEE8__appendEj
5143:__ZNSt3__26vectorI13dynamic_arrayI8Vector2fLj0EENS_9allocatorIS3_EEEC2INS_11__wrap_iterIPS3_EEEET_SB_RKS5_PNS_9enable_ifIXaasr21__is_forward_iteratorISB_EE5valuesr16is_constructibleIS3_NS_15iterator_traitsISB_E9referenceEEE5valueEvE4typeE
5144:__ZN14SafeBinaryRead21TransferSTLStyleArrayI13dynamic_arrayI7SubMeshLj0EEEEvRT_17TransferMetaFlags
5145:__ZN14SafeBinaryRead21TransferSTLStyleArrayI13dynamic_arrayI12SpriteVertexLj0EEEEvRT_17TransferMetaFlags
5146:__ZN14SafeBinaryRead21TransferSTLStyleArrayI13dynamic_arrayItLj0EEEEvRT_17TransferMetaFlags
5147:__Z23SetSpriteMeshIndexCountP14SharedMeshDataj
5148:__Z24SetSpriteMeshVertexCountP14SharedMeshDataj
5149:__ZN10VertexData8TransferI14SafeBinaryReadEEvRT_
5150:__ZN14SafeBinaryRead21TransferSTLStyleArrayI13dynamic_arrayI10Matrix4x4fLj16EEEEvRT_17TransferMetaFlags
5151:__ZN14SafeBinaryRead21TransferSTLStyleArrayI13dynamic_arrayI12BoneWeights4Lj0EEEEvRT_17TransferMetaFlags
5152:__ZN16SpriteRenderData14SetBoneWeightsEPK12BoneWeights4i
5153:__ZN12BoneWeights48TransferI14SafeBinaryReadEEvRT_
5154:__ZN10Matrix4x4f8TransferI14SafeBinaryReadEEvRT_
5155:__ZN14SafeBinaryRead21TransferSTLStyleArrayI13dynamic_arrayI11ChannelInfoLj0EEEEvRT_17TransferMetaFlags
5156:__Z33BuildLegacyShaderChannelsFromMaskR13dynamic_arrayI11ChannelInfoLj0EEj
5157:__ZN10VertexData27ConvertLegacyShaderChannelsERK13dynamic_arrayI11ChannelInfoLj0EE
5158:__ZN14SafeBinaryRead16TransferTypelessEPjPKc17TransferMetaFlags
5159:__ZN14SafeBinaryRead20TransferTypelessDataEjPvi
5160:__ZN10VertexDataC2E10MemLabelIdRKS_17ShaderChannelMaskRK19VertexStreamsLayoutRK20VertexChannelsLayout
5161:__ZN15SerializeTraitsI11ChannelInfoE8TransferI14SafeBinaryReadEEvRS0_RT_
5162:__ZN14SafeBinaryRead8TransferItEEvRT_PKc17TransferMetaFlags
5163:__ZN12SpriteVertex8TransferI14SafeBinaryReadEEvRT_
5164:__ZN13dynamic_arrayI7SubMeshLj0EE18resize_initializedEj12ResizePolicy
5165:__ZN7SubMesh8TransferI14SafeBinaryReadEEvRT_
5166:__ZN6Sprite8TransferI24GenerateTypeTreeTransferEEvRT_
5167:__ZN16SpriteRenderData8TransferI24GenerateTypeTreeTransferEEvRT_
5168:__ZN24GenerateTypeTreeTransfer8TransferINSt3__26vectorI13dynamic_arrayI8Vector2fLj0EENS1_9allocatorIS5_EEEEEEvRT_PKc17TransferMetaFlags
5169:__ZN15SerializeTraitsI13dynamic_arrayI10SpriteBoneLj0EEE8TransferI24GenerateTypeTreeTransferEEvRS2_RT_
5170:__ZN10SpriteBone8TransferI24GenerateTypeTreeTransferEEvRT_
5171:__ZN7SubMesh8TransferI24GenerateTypeTreeTransferEEvRT_
5172:__ZN10VertexData8TransferI24GenerateTypeTreeTransferEEvRT_
5173:__ZN10Matrix4x4f8TransferI24GenerateTypeTreeTransferEEvRT_
5174:__ZN11ChannelInfo8TransferI24GenerateTypeTreeTransferEEvRT_
5175:__ZN24GenerateTypeTreeTransfer16TransferTypelessEPjPKc17TransferMetaFlags
5176:__ZN16SpriteRenderData8TransferI17RemapPPtrTransferEEvRT_
5177:__ZN6Sprite8TransferI18StreamedBinaryReadEEvRT_
5178:__ZN16SpriteRenderData8TransferI18StreamedBinaryReadEEvRT_
5179:__ZN18StreamedBinaryRead21TransferSTLStyleArrayI13dynamic_arrayI8Vector2fLj0EEEEvRT_17TransferMetaFlags
5180:__ZN10SpriteBone8TransferI18StreamedBinaryReadEEvRT_
5181:__ZN7SubMesh8TransferI18StreamedBinaryReadEEvRT_
5182:__ZN10VertexData8TransferI18StreamedBinaryReadEEvRT_
5183:__ZN18StreamedBinaryRead21TransferSTLStyleArrayI13dynamic_arrayI10Matrix4x4fLj16EEEEvRT_17TransferMetaFlags
5184:__ZN10Matrix4x4f8TransferI18StreamedBinaryReadEEvRT_
5185:__ZN11ChannelInfo8TransferI18StreamedBinaryReadEEvRT_
5186:__ZN18StreamedBinaryRead16TransferTypelessEPjPKc17TransferMetaFlags
5187:__ZN18StreamedBinaryRead20TransferTypelessDataEjPvi
5188:__ZN12CachedReader4SkipEj
5189:__ZN6Sprite8TransferI19StreamedBinaryWriteEEvRT_
5190:__ZN16SpriteRenderData8TransferI19StreamedBinaryWriteEEvRT_
5191:__ZN19StreamedBinaryWrite8TransferI13dynamic_arrayI8Vector2fLj0EEEEvRT_PKc17TransferMetaFlags
5192:__ZN10SpriteBone8TransferI19StreamedBinaryWriteEEvRT_
5193:__ZN7SubMesh8TransferI19StreamedBinaryWriteEEvRT_
5194:__ZN10VertexData8TransferI19StreamedBinaryWriteEEvRT_
5195:__ZN10Matrix4x4f8TransferI19StreamedBinaryWriteEEvRT_
5196:__ZN11ChannelInfo8TransferI19StreamedBinaryWriteEEvRT_
5197:__ZN19StreamedBinaryWrite16TransferTypelessEPjPKc17TransferMetaFlags
5198:__ZN19StreamedBinaryWrite20TransferTypelessDataEjPvi
5199:__ZN12CachedWriter5WriteEPKvj
5200:__ZN6Sprite19LoadAtlasRenderDataEb
5201:__ZN18SpriteAtlasManager8GetAtlasERK4PPtrI6SpriteE
5202:__ZNK11SpriteAtlas20GetRuntimeRenderDataEPK6Sprite
5203:__ZNK4core8hash_setINS_4pairIKNSt3__24pairI9UnityGUIDxEE15SpriteAtlasDataLb0EEENS_9hash_pairI23SpriteRenderDataKeyHashS6_S7_EENS_10equal_pairINS2_8equal_toIS5_EES6_S7_EEE6lookupIS5_EEPNSG_4nodeERKT_
5204:__ZN13sorted_vectorI4PPtrI11SpriteAtlasENSt3__24lessIS2_EE13stl_allocatorIS2_L18MemLabelIdentifier1ELi16EEE21sort_clear_duplicatesEv
5205:__ZNK4core8hash_setINS_4pairIKNS_12basic_stringIcNS_20StringStorageDefaultIcEEEE10vector_setI4PPtrI11SpriteAtlasENSt3__24lessISA_EE13stl_allocatorISA_L18MemLabelIdentifier81ELi16EEELb1EEENS_9hash_pairINS_4hashIS5_EES6_SH_EENS_10equal_pairINSB_8equal_toIS5_EES6_SH_EEE6lookupIS5_EEPNSR_4nodeERKT_
5206:__ZN18SpriteAtlasManager19AddRequestingSpriteE4PPtrI6SpriteE
5207:__ZNK4core8hash_setINS_4pairIKNS_12basic_stringIcNS_20StringStorageDefaultIcEEEE13dynamic_arrayI4PPtrI6SpriteELj0EELb1EEENS_9hash_pairINS_4hashIS5_EES6_SB_EENS_10equal_pairINSt3__28equal_toIS5_EES6_SB_EEE6lookupIS5_EEPNSM_4nodeERKT_
5208:__ZN4core8hash_mapINS_12basic_stringIcNS_20StringStorageDefaultIcEEEE13dynamic_arrayI4PPtrI6SpriteELj0EENS_4hashIS4_EENSt3__28equal_toIS4_EEEixERKS4_
5209:__ZN13sorted_vectorIN4core12basic_stringIcNS0_20StringStorageDefaultIcEEEENSt3__24lessIS4_EE13stl_allocatorIS4_L18MemLabelIdentifier81ELi16EEE4findIS4_EENS5_11__wrap_iterIPS4_EERKT_
5210:__ZNSt3__26vectorIN4core12basic_stringIcNS1_20StringStorageDefaultIcEEEE13stl_allocatorIS5_L18MemLabelIdentifier81ELi16EEE21__push_back_slow_pathIRKS5_EEvOT_
5211:__ZN4core8hash_setINS_4pairIKNS_12basic_stringIcNS_20StringStorageDefaultIcEEEE13dynamic_arrayI4PPtrI6SpriteELj0EELb1EEENS_9hash_pairINS_4hashIS5_EES6_SB_EENS_10equal_pairINSt3__28equal_toIS5_EES6_SB_EEE4growEi
5212:__ZNSt3__213__stable_sortIRNS_4lessI4PPtrI11SpriteAtlasEEENS_11__wrap_iterIPS4_EEEEvT0_SA_T_NS_15iterator_traitsISA_E15difference_typeEPNSD_10value_typeEi
5213:__ZNSt3__218__stable_sort_moveIRNS_4lessI4PPtrI11SpriteAtlasEEENS_11__wrap_iterIPS4_EEEEvT0_SA_T_NS_15iterator_traitsISA_E15difference_typeEPNSD_10value_typeE
5214:__ZNSt3__215__inplace_mergeIRNS_4lessI4PPtrI11SpriteAtlasEEENS_11__wrap_iterIPS4_EEEEvT0_SA_SA_T_NS_15iterator_traitsISA_E15difference_typeESE_PNSD_10value_typeEi
5215:__ZN16SpriteRenderData17MainThreadCleanupEv
5216:__ZN23SharedMeshRenderingData6UnloadEv
5217:__ZN16SpriteRenderDataD2Ev
5218:__ZN12CubemapArrayD2Ev
5219:__ZN12CubemapArrayD0Ev
5220:__ZN12CubemapArray17MainThreadCleanupEv
5221:__ZN12CubemapArray13AwakeFromLoadE17AwakeFromLoadMode
5222:__ZN12CubemapArray21AwakeFromLoadThreadedEv
5223:__ZN12CubemapArray5ResetEv
5224:__ZNK12CubemapArray22GetTypeVirtualInternalEv
5225:__ZN12CubemapArray23VirtualRedirectTransferER19StreamedBinaryWrite
5226:__ZN12CubemapArray23VirtualRedirectTransferER18StreamedBinaryRead
5227:__ZN12CubemapArray23VirtualRedirectTransferER24GenerateTypeTreeTransfer
5228:__ZN12CubemapArray23VirtualRedirectTransferER14SafeBinaryRead
5229:__ZNK12CubemapArray26CanReuploadDataToGfxDeviceEv
5230:__ZNK12CubemapArray20GetTextureLayerCountEv
5231:__ZNK12CubemapArray12GetDimensionEv
5232:__ZN12CubemapArray34UpdateFileTextureUploadInstructionEP24TextureUploadInstructionj
5233:__ZNK12CubemapArray13GetIsReadableEv
5234:__ZN12CubemapArray19UnloadFromGfxDeviceEb
5235:__ZN12CubemapArray17UploadToGfxDeviceEv
5236:__ZNK12CubemapArray16ExtractImageImplEP14ImageReference13ImageBlitModebi
5237:__ZN14ImageReference9BlitImageERKS_13ImageBlitMode
5238:__ZL13BlitImageImplR14ImageReferenceiiRKS_17TextureColorSpace13ImageBlitModeb
5239:__ZN6prcore14BlitImageFlipYERK14ImageReferenceRS0_ii
5240:__ZN6prcore9BlitImageERK14ImageReferenceRS0_ii
5241:__ZN6prcore14BlitImageFlipYERK14ImageReferenceRS0_13ImageBlitMode
5242:__ZN6prcore9BlitImageERK14ImageReferenceRS0_13ImageBlitMode
5243:__ZL21BlitScaleStbImageImplRK14ImageReferenceRS_17TextureColorSpace
5244:__ZN6prcore10FlipImageYER14ImageReference
5245:__ZN6prcoreL10inner_flipILj2EEEvPhS1_j
5246:__ZN6prcoreL10inner_flipILj3EEEvPhS1_j
5247:__ZN6prcoreL10inner_flipILj4EEEvPhS1_j
5248:__ZN6prcoreL10inner_flipILj1EEEvPhS1_j
5249:__Z11IsHDRFormat13TextureFormat
5250:__ZL8StbAllocjPv
5251:__ZL7StbFreePvS_
5252:_stbir_resize
5253:__ZL23stbir__resize_arbitraryPvPKviiiS_iiiffffPfiij14stbir_datatype12stbir_filterS4_10stbir_edgeS5_16stbir_colorspace
5254:__ZL23stbir__calculate_memoryP11stbir__info
5255:__ZL24stbir__calculate_filtersP19stbir__contributorsPf12stbir_filterffii
5256:__ZL22stbir__decode_scanlineP11stbir__infoi
5257:__ZL35stbir__resample_horizontal_upsampleP11stbir__infoPf
5258:__ZL37stbir__resample_horizontal_downsampleP11stbir__infoPf
5259:__ZL22stbir__encode_scanlineP11stbir__infoiPvPfiii
5260:__ZL19stbir__support_zerof
5261:__ZL23stbir__filter_trapezoidff
5262:__ZL24stbir__support_trapezoidf
5263:__ZL22stbir__filter_triangleff
5264:__ZL18stbir__support_onef
5265:__ZL19stbir__filter_cubicff
5266:__ZL18stbir__support_twof
5267:__ZL24stbir__filter_catmullromff
5268:__ZL22stbir__filter_mitchellff
5269:__ZL31stbir__filter_mitchell_modifiedff
5270:__ZN6prcore14BlitImageFloatERK14ImageReferenceRS0_13ImageBlitMode
5271:__ZN6prcore21BlitImageRemapNoScaleERK14ImageReferenceRS0_
5272:__ZN6prcore17GetIntegerBlitterE13TextureFormatS0_13ImageBlitMode
5273:__ZN6prcoreL29BlitFuncExecuteFromSelectInfoEPKNS_9InnerInfoEPKv
5274:__ZN6prcoreL21CreateRemapAnyBlitterE13TextureFormatS0_
5275:__ZN6prcoreL18BlitIntegerToFloatERK14ImageReferenceRS0_
5276:__ZN6prcoreL17BlitBilinearFloatERK14ImageReferenceRS0_
5277:__ZN6prcoreL18BlitFloatToIntegerERK14ImageReferenceRS0_
5278:__ZN6prcore16BlitFuncInfoSIMD19BlitFuncExecuteSIMDEPKNS_9InnerInfoEPKv
5279:__ZN14ImageReferenceC2Eiii13TextureFormatPv
5280:__ZN7Texture25ReloadFromStorageIfNeededEPvb
5281:__ZN12CubemapArray13UploadTextureEv
5282:__ZN17PersistentManager14ReloadFromDiskER6Object
5283:__Z21CalculateMipMapOffsetii13TextureFormati
5284:__Z18CalculateImageSizeii13TextureFormat
5285:__Z29GetRowBytesFromWidthAndFormati13TextureFormat
5286:__ZNK7Texture41QueryPersistentManagerForDataAvailabilityEv
5287:__ZN12CubemapArray8TransferI14SafeBinaryReadEEvRT_
5288:__ZN14SafeBinaryRead21TransferResourceImageE19ActiveResourceImagePKcR13StreamingInfoPvjiPKN5Unity4TypeE
5289:__ZN13StreamingInfo8TransferI14SafeBinaryReadEEvRT_
5290:__ZN12CubemapArray8TransferI24GenerateTypeTreeTransferEEvRT_
5291:__ZN24GenerateTypeTreeTransfer21TransferResourceImageE19ActiveResourceImagePKcR13StreamingInfoPvjiPKN5Unity4TypeE
5292:__ZN29SerializeTraitsForStringTypesIN4core12basic_stringIcNS0_20StringStorageDefaultIcEEEEE8TransferI24GenerateTypeTreeTransferEEvRS4_RT_
5293:__ZN12CubemapArray8TransferI18StreamedBinaryReadEEvRT_
5294:__ZN18StreamedBinaryRead21TransferResourceImageE19ActiveResourceImagePKcR13StreamingInfoPvjiPKN5Unity4TypeE
5295:__ZN12CubemapArray8TransferI19StreamedBinaryWriteEEvRT_
5296:__ZN19StreamedBinaryWrite21TransferResourceImageE19ActiveResourceImagePKcR13StreamingInfoPvjiPKN5Unity4TypeE
5297:__ZN7Texture16BeginAsyncUploadEj
5298:__Z18UploadAsyncTextureR7Texturej
5299:__ZN7Texture38InitializeFileTextureUploadInstructionER24TextureUploadInstructionj
5300:__ZL26CalculateAsyncTextureSizesPK24TextureUploadInstructionRjS2_S2_
5301:__ZL32AsyncTextureReadCompleteCallbackbRK23AsyncUploadCallbackInfo
5302:__ZL38AsyncTextureProcessingCompleteCallbackR9GfxDeviceRK23AsyncUploadCallbackInfo
5303:__ZN18AsyncUploadManager16QueueUploadAssetEPKcjjjRK18AsyncUploadHandler
5304:__ZN15TextureSettings38ClearUnsupportedSettingsForColorFormatE13TextureFormat
5305:__Z19UploadTexture2DDataRK23UploadTextureDataParams
5306:__Z17UploadCubemapData9TextureIDPhjiiii14GraphicsFormat18TextureUploadFlagsR9GfxDevice
5307:__Z16DecompressCrunchPKhRjR13TextureFormatiiii10MemLabelId
5308:__ZN4crnd17crnd_unpack_beginEPKvj
5309:__ZN4crnd21crnd_get_texture_infoEPKvjPNS_16crn_texture_infoE
5310:__Z24CalculateImageMipMapSizeii13TextureFormat
5311:__ZN4crnd17crnd_unpack_levelEPvPS0_jjj
5312:__ZN4crnd12crn_unpackerD2Ev
5313:__ZN4crndL20crnd_default_reallocEPvjPjbS0_
5314:__ZN4crnd11crnd_deleteINS_13prefix_coding14decoder_tablesEEEvPT_
5315:__ZN4crnd12crn_unpacker12unpack_levelEPKvjPPvjjj
5316:__ZN4crnd12crn_unpacker11unpack_dxt1EPPhjjj
5317:__ZN4crnd12crn_unpacker11unpack_dxt5EPPhjjj
5318:__ZN4crnd12crn_unpacker12unpack_dxt5aEPPhjjj
5319:__ZN4crnd12crn_unpacker10unpack_dxnEPPhjjj
5320:__ZN4crnd12crn_unpacker11unpack_etc1EPPhjjj
5321:__ZN4crnd12crn_unpacker12unpack_etc2aEPPhjjj
5322:__ZN4crnd16elemental_vector17increase_capacityEjbjPFvPvS1_jE
5323:__ZN4crnd12symbol_codec6decodeERKNS_25static_huffman_data_modelE
5324:__ZN4crnd11crnd_mallocEjPj
5325:__ZN4crnd12crn_unpacker11init_tablesEv
5326:__ZN4crnd12crn_unpacker15decode_palettesEv
5327:__ZN4crnd12crn_unpacker22decode_color_endpointsEv
5328:__ZN4crnd12crn_unpacker22decode_color_selectorsEv
5329:__ZN4crnd12crn_unpacker22decode_alpha_endpointsEv
5330:__ZN4crnd12crn_unpacker26decode_alpha_selectors_etcEv
5331:__ZN4crnd12crn_unpacker22decode_alpha_selectorsEv
5332:__ZN4crnd12symbol_codec32decode_receive_static_data_modelERNS_25static_huffman_data_modelE
5333:__ZN4crnd12symbol_codec11decode_bitsEj
5334:__ZN4crnd25static_huffman_data_model22prepare_decoder_tablesEv
5335:__ZN4crnd13prefix_coding14decoder_tables4initEjPKhj
5336:__Z29SkipMipLevelsForTextureUploadi13TextureFormatiPPKhPiS3_S3_b
5337:__Z19GetBytesForOnePixel13TextureFormat
5338:__ZL17DoScaledPaddedJobP24TextureUploadInstruction
5339:__ZN9TextureOpI11TextureDataE15ExtractMipLevelEPS0_S2_iibb
5340:__ZL18DoCubemapMipmapJobP24TextureUploadInstruction
5341:__ZL15DoDeCruncherJobP24TextureUploadInstruction
5342:__Z21SourceMipLevelForBlitiiii
5343:__Z23BlitCopyCompressedImage13TextureFormatPKhiiPhiib
5344:__ZN9TextureOpI11TextureDataE12ExtractImageEPS0_P14ImageReference13ImageBlitModebi
5345:__ZN17SharedTextureData32GetCrunchDecompressedTextureDataI11TextureDataEEbRKT_
5346:__ZN9TextureOpI17SharedTextureDataE12ExtractImageEPS0_P14ImageReference13ImageBlitModebi
5347:__Z26GetDecompressTextureFormat13TextureFormat
5348:__ZN5Image8SetImageERK14ImageReferenceb
5349:__Z41DecompressNativeTextureFormatWithMipLevel13TextureFormatS_iiiPKjiiPj
5350:__ZNK14ImageReference9ClipImageEiiii
5351:__Z14PadImageBorderR14ImageReferenceii
5352:__Z29DecompressNativeTextureFormat13TextureFormatS_iiPKjiiPj
5353:__Z19GetColorBlockColorsPK11DXTColBlockP9Color8888
5354:__Z16DecodeColorBlockPjRK11DXTColBlockiPKj
5355:__Z19DecodeAlphaExplicitPjRK21DXTAlphaBlockExplicitij
5356:__Z21DecodeAlpha3BitLinearPjRK23DXTAlphaBlock3BitLineariji
5357:__Z14DecompressBC6HiiiPKjPj13TextureFormat
5358:__Z13DecompressBC7iiiPKjPj
5359:__Z14DecodeBC7BlockP9HDRColorAPKh
5360:__Z15DecodeBC6HBlockP9HDRColorAPKh
5361:__ZN5Image8SetImageEii13TextureFormatb
5362:__ZN17SharedTextureData32GetCrunchDecompressedTextureDataIS_EEbRKT_
5363:__ZN7CubemapD2Ev
5364:__ZN7CubemapD0Ev
5365:__ZN9Texture2D17MainThreadCleanupEv
5366:__ZN9Texture2D13AwakeFromLoadE17AwakeFromLoadMode
5367:__ZN9Texture2D21AwakeFromLoadThreadedEv
5368:__ZN9Texture2D5ResetEv
5369:__ZNK7Cubemap22GetTypeVirtualInternalEv
5370:__ZNK9Texture2D20GetRuntimeMemorySizeEv
5371:__ZN7Cubemap23VirtualRedirectTransferER19StreamedBinaryWrite
5372:__ZN7Cubemap23VirtualRedirectTransferER18StreamedBinaryRead
5373:__ZN7Cubemap23VirtualRedirectTransferER17RemapPPtrTransfer
5374:__ZN7Cubemap23VirtualRedirectTransferER24GenerateTypeTreeTransfer
5375:__ZN7Cubemap23VirtualRedirectTransferER14SafeBinaryRead
5376:__ZN9Texture2D13ApplySettingsEv
5377:__ZNK9Texture2D20GetUnscaledTextureIDEv
5378:__ZNK9Texture2D16GetNpotTexelSizeEv
5379:__ZNK9Texture2D13IsNPOTAllowedEv
5380:__ZNK9Texture2D26CanReuploadDataToGfxDeviceEv
5381:__ZNK9Texture2D13GetDataHeightEv
5382:__ZNK7Cubemap12GetDimensionEv
5383:__ZN7Cubemap34UpdateFileTextureUploadInstructionEP24TextureUploadInstructionj
5384:__ZN9Texture2D33VerifyFileTextureUploadCompletionEv
5385:__ZNK9Texture2D13GetIsReadableEv
5386:__ZN9Texture2D19UnloadFromGfxDeviceEb
5387:__ZN9Texture2D17UploadToGfxDeviceEv
5388:__ZNK9Texture2D16ExtractImageImplEP14ImageReference13ImageBlitModebi
5389:__ZN7Cubemap13UploadTextureEi
5390:__ZNK9Texture2D13GetDataFormatEv
5391:__ZN7Cubemap11InitTextureEii13TextureFormat20TextureCreationFlagsiii16TextureDimension
5392:__ZN9Texture2D15UpdateImageDataEv
5393:__ZN9Texture2D30UpdateImageDataDontTouchMipmapEv
5394:__ZN7Cubemap13RebuildMipMapEv
5395:__Z12CreateMipMapPhiii13TextureFormat
5396:__Z20IsNPOTTextureAllowedb
5397:__ZN9Texture2D11InitTextureEii13TextureFormat20TextureCreationFlagsiii16TextureDimension
5398:__Z20IsValidTextureFormat13TextureFormat
5399:__Z25GetNextAllowedTextureSizeib13TextureFormat
5400:__Z30CalculateImageSizeWithMipCountii13TextureFormatj
5401:__ZN9Texture2D19InitTextureInternalEii13TextureFormati20TextureCreationFlagsii
5402:__ZN23TextureStreamingManager13RemoveTextureER9Texture2D
5403:__ZN9Texture2D16DeleteGfxTextureEv
5404:__ZN23TextureStreamingManager10AddTextureER9Texture2D
5405:__ZN23TextureStreamingManager14AddTextureDataER9Texture2D
5406:__ZN20TextureStreamingData10AddTextureEii13TextureFormatiii
5407:__ZN20TextureStreamingData15ReserveTexturesEj
5408:__ZN17SharedTextureDataC2E10MemLabelIdii13TextureFormatjiibb
5409:__ZN23TextureStreamingManager21RemoveTextureInternalER9Texture2D
5410:__ZN20TextureStreamingData13RemoveTextureEi
5411:__Z29GetTextureSizeAllowedMultiple13TextureFormat
5412:__ZN23TextureStreamingManager20GetLoadedMipmapLevelERK9Texture2D
5413:__ZN14SafeBinaryRead22TransferWithTypeStringI7CubemapEEvRT_PKcS5_17TransferMetaFlags
5414:__ZN9Texture2D8TransferI14SafeBinaryReadEEvRT_
5415:__ZN14SafeBinaryRead21TransferSTLStyleArrayINSt3__26vectorI4PPtrI9Texture2DENS1_9allocatorIS5_EEEEEEvRT_17TransferMetaFlags
5416:__Z14resize_trimmedINSt3__26vectorI4PPtrI9Texture2DENS0_9allocatorIS4_EEEEEvRT_j
5417:__ZNSt3__26vectorI4PPtrI9Texture2DENS_9allocatorIS3_EEE6assignINS_11__wrap_iterIPS3_EEEENS_9enable_ifIXaasr21__is_forward_iteratorIT_EE5valuesr16is_constructibleIS3_NS_15iterator_traitsISC_E9referenceEEE5valueEvE4typeESC_SC_
5418:__ZNSt3__26vectorI4PPtrI9Texture2DENS_9allocatorIS3_EEE8__appendEj
5419:__ZN9Texture2D8TransferI24GenerateTypeTreeTransferEEvRT_
5420:__ZN7Cubemap8TransferI18StreamedBinaryReadEEvRT_
5421:__ZN9Texture2D8TransferI18StreamedBinaryReadEEvRT_
5422:__ZN7Cubemap8TransferI19StreamedBinaryWriteEEvRT_
5423:__ZN9Texture2D8TransferI19StreamedBinaryWriteEEvRT_
5424:__ZNK23TextureStreamingManager17IsCalculatingMipsEv
5425:__ZN9Texture2DD2Ev
5426:__ZN9Texture2D15ThreadedCleanupEv
5427:__ZN9Texture2DD0Ev
5428:__ZNK9Texture2D22GetTypeVirtualInternalEv
5429:__ZN9Texture2D23VirtualRedirectTransferER19StreamedBinaryWrite
5430:__ZN9Texture2D23VirtualRedirectTransferER18StreamedBinaryRead
5431:__ZN9Texture2D23VirtualRedirectTransferER17RemapPPtrTransfer
5432:__ZN9Texture2D23VirtualRedirectTransferER24GenerateTypeTreeTransfer
5433:__ZN9Texture2D23VirtualRedirectTransferER14SafeBinaryRead
5434:__ZN9Texture2D34UpdateFileTextureUploadInstructionEP24TextureUploadInstructionj
5435:__ZN9Texture2D13UploadTextureEi
5436:__ZN9Texture2D13RebuildMipMapEv
5437:__ZN9Texture2D25CreateScaledAndPaddedDataEPP17SharedTextureDataS2_
5438:__ZN9Texture2D26AllocateScaledOrPaddedDataE13TextureFormat
5439:__ZN17SharedTextureData17GetImageReferenceEii
5440:__ZN9TextureOpI17SharedTextureDataE15ExtractMipLevelEPS0_S2_iibb
5441:__ZN9TextureOpI17SharedTextureDataE22ExtractCompressedImageEPS0_Phiii
5442:__ZN17SharedTextureData17GetImageReferenceEP14ImageReferenceii
5443:__ZN15QualitySettingsD2Ev
5444:__ZN15QualitySettingsD0Ev
5445:__ZN15QualitySettings13AwakeFromLoadE17AwakeFromLoadMode
5446:__ZN15QualitySettings16CheckConsistencyEv
5447:__ZN15QualitySettings5ResetEv
5448:__ZNK15QualitySettings22GetTypeVirtualInternalEv
5449:__ZN15QualitySettings23VirtualRedirectTransferER19StreamedBinaryWrite
5450:__ZN15QualitySettings23VirtualRedirectTransferER18StreamedBinaryRead
5451:__ZN15QualitySettings23VirtualRedirectTransferER24GenerateTypeTreeTransfer
5452:__ZN15QualitySettings23VirtualRedirectTransferER14SafeBinaryRead
5453:__ZN15QualitySettings8TransferI14SafeBinaryReadEEvRT_
5454:__ZN14SafeBinaryRead21TransferSTLStyleArrayINSt3__26vectorIN15QualitySettings14QualitySettingENS1_9allocatorIS4_EEEEEEvRT_17TransferMetaFlags
5455:__ZL32InitializeDefaultQualitySettingsPN15QualitySettings14QualitySettingE
5456:__ZN15QualitySettings14QualitySetting8TransferI14SafeBinaryReadEEvRT_
5457:__ZNSt3__26vectorIN15QualitySettings14QualitySettingENS_9allocatorIS2_EEE6assignIPS2_EENS_9enable_ifIXaasr21__is_forward_iteratorIT_EE5valuesr16is_constructibleIS2_NS_15iterator_traitsIS9_E9referenceEEE5valueEvE4typeES9_S9_
5458:__Z14resize_trimmedINSt3__26vectorIN15QualitySettings14QualitySettingENS0_9allocatorIS3_EEEEEvRT_j
5459:__ZNSt3__26vectorIN15QualitySettings14QualitySettingENS_9allocatorIS2_EEE7reserveEj
5460:__ZNSt3__26vectorIN15QualitySettings14QualitySettingENS_9allocatorIS2_EEE6assignINS_11__wrap_iterIPS2_EEEENS_9enable_ifIXaasr21__is_forward_iteratorIT_EE5valuesr16is_constructibleIS2_NS_15iterator_traitsISB_E9referenceEEE5valueEvE4typeESB_SB_
5461:__ZNSt3__26vectorIN15QualitySettings14QualitySettingENS_9allocatorIS2_EEE8__appendEj
5462:__ZNSt3__26vectorIN15QualitySettings14QualitySettingENS_9allocatorIS2_EEEC2INS_11__wrap_iterIPS2_EEEET_SA_RKS4_PNS_9enable_ifIXaasr21__is_forward_iteratorISA_EE5valuesr16is_constructibleIS2_NS_15iterator_traitsISA_E9referenceEEE5valueEvE4typeE
5463:__ZN15QualitySettings8TransferI24GenerateTypeTreeTransferEEvRT_
5464:__ZN24GenerateTypeTreeTransfer21TransferSTLStyleArrayINSt3__26vectorIN15QualitySettings14QualitySettingENS1_9allocatorIS4_EEEEEEvRT_17TransferMetaFlags
5465:__ZN15QualitySettings14QualitySetting8TransferI24GenerateTypeTreeTransferEEvRT_
5466:__ZN15QualitySettings8TransferI18StreamedBinaryReadEEvRT_
5467:__ZN15QualitySettings14QualitySetting8TransferI18StreamedBinaryReadEEvRT_
5468:__ZN15QualitySettings8TransferI19StreamedBinaryWriteEEvRT_
5469:__ZN15QualitySettings14QualitySetting8TransferI19StreamedBinaryWriteEEvRT_
5470:__ZNSt3__26vectorIN15QualitySettings14QualitySettingENS_9allocatorIS2_EEE21__push_back_slow_pathIRKS2_EEvOT_
5471:__ZN11PlayerPrefs6GetIntERKN4core12basic_stringIcNS0_20StringStorageDefaultIcEEEEi
5472:__ZN15QualitySettings13ApplySettingsEib
5473:__ZN7Texture21SetMasterTextureLimitEib
5474:__ZN23TextureStreamingManager17SetFeatureEnabledEb
5475:__ZN23TextureStreamingManager15SetMemoryBudgetEf
5476:__ZN23TextureStreamingManager20SetRendererBatchSizeEi
5477:__ZN23TextureStreamingResults25UpdateWorkingBufferMemoryEv
5478:__ZN13dynamic_arrayIS_I24StreamingTextureMipLevelLj0EELj0EE12emplace_backEv
5479:__ZN23TextureStreamingResults15ReserveTexturesEj
5480:__ZN13dynamic_arrayI24StreamingTextureMipLevelLj0EE18resize_initializedEjRKS0_12ResizePolicy
5481:__ZN23TextureStreamingManager17RescanTextureDataEv
5482:__ZN23TextureStreamingManager15AddRendererDataER8Renderer
5483:__ZN23TextureStreamingResults6ResizeEii
5484:__ZN13dynamic_arrayIS_I24StreamingTextureMipLevelLj0EELj0EE18resize_initializedEj12ResizePolicy
5485:__ZN13dynamic_arrayIiLj0EE18resize_initializedEjRKi12ResizePolicy
5486:__ZN23TextureStreamingManager7CompactEf
5487:__ZN20TextureStreamingData11AddRendererEv
5488:__ZN20TextureStreamingData7CompactEPS_
5489:__ZN23TextureStreamingResults7CompactEPS_
5490:__ZN23TextureStreamingResultsD2Ev
5491:__ZN20TextureStreamingDataD2Ev
5492:__ZN20TextureStreamingData19AllocateTextureInfoEP17StreamingRendererj
5493:__Z16ReloadAllSpritesv
5494:__ZL21SetAnisoLimitEnumImplN7Texture20AnisotropicFilteringEb
5495:__ZN15TextureSettings14SetAnisoLimitsEii
5496:__ZL18InitializeIfNeededv
5497:__ZNSt3__26__treeINS_12__value_typeIN4core12basic_stringIcNS2_20StringStorageDefaultIcEEEE9PrefValueEENS_19__map_value_compareIS6_S8_NS_4lessIS6_EELb1EEENS_9allocatorIS8_EEE25__emplace_unique_key_argsIS6_JRKNS_21piecewise_construct_tENS_5tupleIJRKS6_EEENSK_IJEEEEEENS_4pairINS_15__tree_iteratorIS8_PNS_11__tree_nodeIS8_PvEEiEEbEERKT_DpOT0_
5498:__ZL15GetPrefFilePathb
5499:__Z18ReadStringFromFilePN4core17string_with_labelILi1EEERKNS_12basic_stringIcNS_20StringStorageDefaultIcEEEE
5500:__ZL11DecodeValuePPKcS0_
5501:__ZN12FileAccessor4ReadEyPvPy
5502:__Z14AppendPathNameRKN4core12basic_stringIcNS_20StringStorageDefaultIcEEEES5_
5503:__ZL18AppendPathNameImplRKN4core12basic_stringIcNS_20StringStorageDefaultIcEEEES5_cRS3_
5504:__ZN9Texture3DD2Ev
5505:__ZN9Texture3DD0Ev
5506:__ZN9Texture3D13AwakeFromLoadE17AwakeFromLoadMode
5507:__ZNK9Texture3D22GetTypeVirtualInternalEv
5508:__ZNK9Texture3D20GetRuntimeMemorySizeEv
5509:__ZN9Texture3D23VirtualRedirectTransferER19StreamedBinaryWrite
5510:__ZN9Texture3D23VirtualRedirectTransferER18StreamedBinaryRead
5511:__ZN9Texture3D23VirtualRedirectTransferER24GenerateTypeTreeTransfer
5512:__ZN9Texture3D23VirtualRedirectTransferER14SafeBinaryRead
5513:__ZNK9Texture3D26CanReuploadDataToGfxDeviceEv
5514:__ZNK9Texture3D12GetDimensionEv
5515:__ZN9Texture3D34UpdateFileTextureUploadInstructionEP24TextureUploadInstructionj
5516:__ZN9Texture3D17UploadToGfxDeviceEv
5517:__ZNK9Texture3D16ExtractImageImplEP14ImageReference13ImageBlitModebi
5518:__ZN9Texture3D13UploadTextureEi
5519:__ZN9Texture3D8TransferI14SafeBinaryReadEEvRT_
5520:__ZN9Texture3D8TransferI24GenerateTypeTreeTransferEEvRT_
5521:__ZN9Texture3D8TransferI18StreamedBinaryReadEEvRT_
5522:__ZN9Texture3D8TransferI19StreamedBinaryWriteEEvRT_
5523:__ZN13ScreenManager17RequestResolutionEii14FullscreenModei
5524:__ZN13ScreenManager22SetRequestedResolutionEv
5525:__ZN13ScreenManager14GetResolutionsER13dynamic_arrayI10ResolutionLj0EE
5526:__ZNK13ScreenManager19GetSystemResolutionEv
5527:__ZNK13ScreenManager20GetCurrentResolutionEv
5528:__ZNK13ScreenManager16GetScreenTimeoutEv
5529:__ZNK13ScreenManager21GetCursorInsideWindowEv
5530:__ZN13ScreenManager21SetCursorInsideWindowEb
5531:__ZNK13ScreenManager11GetSafeAreaEv
5532:__ZN13ScreenManager26ReapplyRequestedResolutionEv
5533:__ZNK13ScreenManager6GetDPIEv
5534:__ZNK13ScreenManager17GetFullscreenModeEv
5535:__ZN13ScreenManager18RequestOrientationE17ScreenOrientation
5536:__ZNK13ScreenManager20GetScreenOrientationEv
5537:__ZN13ScreenManager23SetIsOrientationEnabledE18EnabledOrientationb
5538:__ZN14Texture2DArrayD2Ev
5539:__ZN14Texture2DArrayD0Ev
5540:__ZN14Texture2DArray17MainThreadCleanupEv
5541:__ZN14Texture2DArray13AwakeFromLoadE17AwakeFromLoadMode
5542:__ZNK14Texture2DArray22GetTypeVirtualInternalEv
5543:__ZN14Texture2DArray23VirtualRedirectTransferER19StreamedBinaryWrite
5544:__ZN14Texture2DArray23VirtualRedirectTransferER18StreamedBinaryRead
5545:__ZN14Texture2DArray23VirtualRedirectTransferER24GenerateTypeTreeTransfer
5546:__ZN14Texture2DArray23VirtualRedirectTransferER14SafeBinaryRead
5547:__ZNK14Texture2DArray12GetDimensionEv
5548:__ZN14Texture2DArray34UpdateFileTextureUploadInstructionEP24TextureUploadInstructionj
5549:__ZNK14Texture2DArray13GetIsReadableEv
5550:__ZN14Texture2DArray19UnloadFromGfxDeviceEb
5551:__ZN14Texture2DArray17UploadToGfxDeviceEv
5552:__ZN14Texture2DArray13UploadTextureEv
5553:__ZN14Texture2DArray8TransferI14SafeBinaryReadEEvRT_
5554:__ZN14Texture2DArray8TransferI24GenerateTypeTreeTransferEEvRT_
5555:__ZN14Texture2DArray8TransferI18StreamedBinaryReadEEvRT_
5556:__ZN14Texture2DArray8TransferI19StreamedBinaryWriteEEvRT_
5557:__ZN16LightmapSettingsD2Ev
5558:__ZN16LightmapSettingsD0Ev
5559:__ZN16LightmapSettings13AwakeFromLoadE17AwakeFromLoadMode
5560:__ZN16LightmapSettings5ResetEv
5561:__ZNK16LightmapSettings22GetTypeVirtualInternalEv
5562:__ZN16LightmapSettings23VirtualRedirectTransferER19StreamedBinaryWrite
5563:__ZN16LightmapSettings23VirtualRedirectTransferER18StreamedBinaryRead
5564:__ZN16LightmapSettings23VirtualRedirectTransferER17RemapPPtrTransfer
5565:__ZN16LightmapSettings23VirtualRedirectTransferER24GenerateTypeTreeTransfer
5566:__ZN16LightmapSettings23VirtualRedirectTransferER14SafeBinaryRead
5567:__ZN16LightmapSettings8TransferI14SafeBinaryReadEEvRT_
5568:__ZN21EnlightenSceneMapping8TransferI14SafeBinaryReadEEvRT_
5569:__ZN14SafeBinaryRead21TransferSTLStyleArrayI13dynamic_arrayI12LightmapDataLj0EEEEvRT_17TransferMetaFlags
5570:__ZN10GISettings8TransferI14SafeBinaryReadEEvRT_
5571:__ZN16LightmapSettings18TransferDeprecatedI14SafeBinaryReadEEvRT_
5572:__ZN13dynamic_arrayI12LightmapDataLj0EE18resize_initializedEj12ResizePolicy
5573:__ZN12LightmapData8TransferI14SafeBinaryReadEEvRT_
5574:__ZN14SafeBinaryRead21TransferSTLStyleArrayI13dynamic_arrayI28EnlightenRendererInformationLj0EEEEvRT_17TransferMetaFlags
5575:__ZN14SafeBinaryRead21TransferSTLStyleArrayI13dynamic_arrayI26EnlightenSystemInformationLj0EEEEvRT_17TransferMetaFlags
5576:__ZN14SafeBinaryRead21TransferSTLStyleArrayI13dynamic_arrayI7Hash128Lj0EEEEvRT_17TransferMetaFlags
5577:__ZN14SafeBinaryRead21TransferSTLStyleArrayI13dynamic_arrayI31EnlightenSystemAtlasInformationLj0EEEEvRT_17TransferMetaFlags
5578:__ZN14SafeBinaryRead21TransferSTLStyleArrayI13dynamic_arrayI33EnlightenTerrainChunksInformationLj0EEEEvRT_17TransferMetaFlags
5579:__ZN21EnlightenSceneMapping16BuildRemapTablesEv
5580:__ZN15SerializeTraitsI33EnlightenTerrainChunksInformationE8TransferI14SafeBinaryReadEEvRS0_RT_
5581:__ZN15SerializeTraitsI31EnlightenSystemAtlasInformationE8TransferI14SafeBinaryReadEEvRS0_RT_
5582:__ZN26EnlightenSystemInformation8TransferI14SafeBinaryReadEEvRT_
5583:__ZN28EnlightenRendererInformation8TransferI14SafeBinaryReadEEvRT_
5584:__ZN16LightmapSettings8TransferI24GenerateTypeTreeTransferEEvRT_
5585:__ZN21EnlightenSceneMapping8TransferI24GenerateTypeTreeTransferEEvRT_
5586:__ZN15SerializeTraitsI12LightmapDataE8TransferI24GenerateTypeTreeTransferEEvRS0_RT_
5587:__ZN10GISettings8TransferI24GenerateTypeTreeTransferEEvRT_
5588:__ZN28EnlightenRendererInformation8TransferI24GenerateTypeTreeTransferEEvRT_
5589:__ZN26EnlightenSystemInformation8TransferI24GenerateTypeTreeTransferEEvRT_
5590:__ZN24GenerateTypeTreeTransfer8TransferI13dynamic_arrayI33EnlightenTerrainChunksInformationLj0EEEEvRT_PKc17TransferMetaFlags
5591:__ZN16LightmapSettings8TransferI17RemapPPtrTransferEEvRT_
5592:__ZN16LightmapSettings8TransferI18StreamedBinaryReadEEvRT_
5593:__ZN21EnlightenSceneMapping8TransferI18StreamedBinaryReadEEvRT_
5594:__ZN18StreamedBinaryRead8TransferI13dynamic_arrayI12LightmapDataLj0EEEEvRT_PKc17TransferMetaFlags
5595:__ZN10GISettings8TransferI18StreamedBinaryReadEEvRT_
5596:__ZN18StreamedBinaryRead21TransferSTLStyleArrayI13dynamic_arrayI28EnlightenRendererInformationLj0EEEEvRT_17TransferMetaFlags
5597:__ZN18StreamedBinaryRead21TransferSTLStyleArrayI13dynamic_arrayI26EnlightenSystemInformationLj0EEEEvRT_17TransferMetaFlags
5598:__ZN18StreamedBinaryRead21TransferSTLStyleArrayI13dynamic_arrayI7Hash128Lj0EEEEvRT_17TransferMetaFlags
5599:__ZN18StreamedBinaryRead21TransferSTLStyleArrayI13dynamic_arrayI31EnlightenSystemAtlasInformationLj0EEEEvRT_17TransferMetaFlags
5600:__ZN18StreamedBinaryRead21TransferSTLStyleArrayI13dynamic_arrayI33EnlightenTerrainChunksInformationLj0EEEEvRT_17TransferMetaFlags
5601:__ZN26EnlightenSystemInformation8TransferI18StreamedBinaryReadEEvRT_
5602:__ZN16LightmapSettings8TransferI19StreamedBinaryWriteEEvRT_
5603:__ZN21EnlightenSceneMapping8TransferI19StreamedBinaryWriteEEvRT_
5604:__ZN10GISettings8TransferI19StreamedBinaryWriteEEvRT_
5605:__ZN19StreamedBinaryWrite21TransferSTLStyleArrayI13dynamic_arrayI28EnlightenRendererInformationLj0EEEEvRT_17TransferMetaFlags
5606:__ZN26EnlightenSystemInformation8TransferI19StreamedBinaryWriteEEvRT_
5607:__ZN15SerializeTraitsI13dynamic_arrayI31EnlightenSystemAtlasInformationLj0EEE8TransferI19StreamedBinaryWriteEEvRS2_RT_
5608:__ZN10GISettings5ResetEv
5609:__ZN21EnlightenSceneMappingD2Ev
5610:__Z29GetCustomRenderTextureManagerv
5611:__ZN13RenderTexture14SetDepthFormatE17DepthBufferFormat
5612:__ZN8Material14SetVectorArrayEN9ShaderLab16FastPropertyNameEPK8Vector4fj
5613:__ZN8Material13SetFloatArrayEN9ShaderLab16FastPropertyNameEPKfj
5614:__ZN19ShaderPropertySheet16SetArrayPropertyEN9ShaderLab16FastPropertyNameENS_12PropertyTypeEPKvj
5615:__ZN19CustomRenderTexture22ClearChildDependenciesEv
5616:__ZNSt3__26__treeI4PPtrI19CustomRenderTextureENS_4lessIS3_EENS_9allocatorIS3_EEE7destroyEPNS_11__tree_nodeIS3_PvEE
5617:__ZN8RendererD2Ev
5618:__ZN8RendererD0Ev
5619:__ZN8Renderer17MainThreadCleanupEv
5620:__ZN8Renderer13AwakeFromLoadE17AwakeFromLoadMode
5621:__ZN8Renderer16CheckConsistencyEv
5622:__ZN8Renderer10SmartResetEv
5623:__ZNK8Renderer22GetTypeVirtualInternalEv
5624:__ZN8Renderer23VirtualRedirectTransferER19StreamedBinaryWrite
5625:__ZN8Renderer23VirtualRedirectTransferER18StreamedBinaryRead
5626:__ZN8Renderer23VirtualRedirectTransferER17RemapPPtrTransfer
5627:__ZN8Renderer23VirtualRedirectTransferER24GenerateTypeTreeTransfer
5628:__ZN8Renderer23VirtualRedirectTransferER14SafeBinaryRead
5629:__ZN8Renderer26SupportedMessagesDidChangeEj
5630:__ZN8Renderer10DeactivateE19DeactivateOperation
5631:__ZNK8Renderer10GetEnabledEv
5632:__ZN8Renderer10SetEnabledEb
5633:__ZN8Renderer21RendererBecameVisibleEv
5634:__ZN8Renderer23RendererBecameInvisibleEv
5635:__ZN8Renderer20RendererAddedToSceneEv
5636:__ZN8Renderer24RendererRemovedFromSceneEv
5637:__ZN8Renderer15AddAsRenderNodeER15RenderNodeQueueRK20DeprecatedSourceData
5638:__ZNK8Renderer8GetLayerEv
5639:__ZNK8Renderer16GetMaterialCountEv
5640:__ZNK8Renderer11GetMaterialEi
5641:__ZN8Renderer15SetIsRenderableEb
5642:__ZN8Renderer23UpdatePreviousFrameDataEv
5643:__ZN8Renderer20SetupSortingOverrideEv
5644:__ZThn32_N8RendererD1Ev
5645:__ZThn32_N8RendererD0Ev
5646:__ZThn32_N8Renderer15AddAsRenderNodeER15RenderNodeQueueRK20DeprecatedSourceData
5647:__ZThn32_NK8Renderer8GetLayerEv
5648:__ZThn32_NK8Renderer16GetMaterialCountEv
5649:__ZThn32_NK8Renderer11GetMaterialEi
5650:__Z35UpdateSortingGroupStatusForRendererP8Renderer
5651:__ZN8Renderer10AddToSceneEv
5652:__ZN8Renderer15RemoveFromSceneEv
5653:__ZN23TextureStreamingManager14RemoveRendererER8Renderer
5654:__ZN21RendererUpdateManager14RemoveRendererER8Renderer
5655:__ZN20TextureStreamingData14RemoveRendererEi
5656:__ZN13RendererScene11AddRendererEP8Renderer
5657:__ZN8LODGroup23GetLODGroupIndexAndMaskEPK8RendererPjPh
5658:__ZN21RendererUpdateManager11AddRendererER8Renderer
5659:__ZN13RendererScene19AddRendererInternalEP8Rendereri
5660:__ZNK8Renderer29FlattenPerMaterialCustomPropsER22PerThreadPageAllocatorR10RenderNode
5661:__Z30GetLightProbeProxyVolumeHandleRK28LightProbeProxyVolumeContextRK8Renderer
5662:__ZN28ReflectionProbeAnchorManager18RemoveCachedAnchorERK4PPtrI9TransformE
5663:__ZN28ReflectionProbeAnchorManager15AddCachedAnchorERK4PPtrI9TransformE
5664:__ZN4core8hash_mapIiN28ReflectionProbeAnchorManager16CachedAnchorDataENS_4hashIiEENSt3__28equal_toIiEEEixERKi
5665:__ZN4core8hash_setIiNS_4hashIiEENSt3__28equal_toIiEEE6insertERKi
5666:__ZN6Object11InvokeEventEi
5667:__ZN13RendererScene30RemoveRendererFromPendingNodesEP8Renderer
5668:__ZN8Renderer8TransferI14SafeBinaryReadEEvRT_
5669:__ZN14SafeBinaryRead21TransferSTLStyleArrayI13dynamic_arrayI4PPtrI8MaterialELj0EEEEvRT_17TransferMetaFlags
5670:__ZN15StaticBatchInfo8TransferI14SafeBinaryReadEEvRT_
5671:__ZN8Renderer8TransferI24GenerateTypeTreeTransferEEvRT_
5672:__ZN8Renderer8TransferI17RemapPPtrTransferEEvRT_
5673:__ZN8Renderer8TransferI18StreamedBinaryReadEEvRT_
5674:__ZN8Renderer8TransferI19StreamedBinaryWriteEEvRT_
5675:__ZN8Renderer16SetMaterialCountEi
5676:__ZN21RendererUpdateManager19DirtyDispatchUpdateER8Renderer
5677:__ZN8Renderer24SetupNewRendererForSceneEv
5678:__ZN8LODGroup25RemoveFromCachedRenderersEP8Renderer
5679:__ZN8Renderer15ThreadedCleanupEv
5680:__ZN14SafeBinaryRead21TransferSTLStyleArrayI13dynamic_arrayI8Vector4fLj0EEEEvRT_17TransferMetaFlags
5681:__ZN18StreamedBinaryRead21TransferSTLStyleArrayI13dynamic_arrayI8Vector4fLj0EEEEvRT_17TransferMetaFlags
5682:__ZN18StreamedBinaryRead21TransferSTLStyleArrayI13dynamic_arrayItLj0EEEEvRT_17TransferMetaFlags
5683:__ZN8Renderer13BoundsChangedEv
5684:__ZN19ShaderPropertySheet20ReservePropertyCountEj
5685:__ZN13RenderTexture9SetActiveEPS_i11CubemapFaceiNS_14SetActiveFlagsE
5686:__Z25LoadFullScreenOrthoMatrixffR9GfxDevice
5687:__ZN8Material8SetFloatEN9ShaderLab16FastPropertyNameEf
5688:__ZN12ImageFilters4BlitER17ShaderPassContextP7TextureP13RenderTextureiP8MaterialiNS_9BlitFlagsE11CubemapFaceRK8Vector2fSC_
5689:__ZN8Material12UpdateHashesEv
5690:__ZN8Material11HasPropertyEN9ShaderLab16FastPropertyNameE
5691:__ZN12ImageFilters4BlitER17ShaderPassContextP7TextureP13RenderTextureiPK18SharedMaterialDataPKcP6ShaderiNS_9BlitFlagsE11CubemapFaceRK8Vector2fSH_
5692:__ZN16BlitStereoHelperC2ER9GfxDeviceR17ShaderPassContextP13RenderTexture
5693:__ZL22SetCurrentRenderTargetP13RenderTextureiNS_14SetActiveFlagsE11CubemapFace
5694:__ZN19ShaderPropertySheet18ReserveValueBufferEj
5695:__ZN14GraphicsHelper15CreateQuadChunkER9GfxDevicebRK5RectTIfEP21DynamicVBOChunkHandle
5696:__ZN16BlitStereoHelper16PrepareEyeRenderEiRK19ShaderPropertySheetRS0_bRK8Vector2fS6_14VRTextureUsage
5697:__ZN14GraphicsHelper15RenderQuadChunkER9GfxDevice16VertexInputMasksRK21DynamicVBOChunkHandle
5698:__ZN13RenderTexture9SetActiveEiP12ObjectHandleI17RenderSurface_TagP17RenderSurfaceBaseES4_PPS_i11CubemapFaceiNS_14SetActiveFlagsE
5699:__ZNK19ShaderPropertySheet11HasPropertyERKN9ShaderLab16FastPropertyNameE
5700:__ZN13RenderTexture21MakeRenderTargetSetupEPS_i11CubemapFaceiNS_14SetActiveFlagsE
5701:__ZN12ImageFilters4BlitER17ShaderPassContextP7TextureP13RenderTextureiRK8Vector2fS8_NS_9BlitFlagsE
5702:__ZNK6Camera18GetRenderRectangleEv
5703:__ZN12ImageFilters19GetBlitCopyMaterialENS_12BlitCopyModeE
5704:__Z29PluginsIssueRenderingExtQuery26UnityRenderingExtQueryType32GfxDeviceRenderingExtQueryMethod
5705:__ZNK9Transform14TransformPointERK8Vector3f
5706:__ZN15LODGroupManager24UpdateLODGroupParametersEjR8LODGroupRK8Vector3ff
5707:__Z14TransformPoint23TransformAccessReadOnlyRKN4math7_float3E
5708:__ZN10DynamicVBOD2Ev
5709:__ZN10DynamicVBO8GetChunkEjjjj16GfxPrimitiveTypeP21DynamicVBOChunkHandle
5710:__ZN10DynamicVBO12ReleaseChunkER21DynamicVBOChunkHandlejj
5711:__ZN10DynamicVBO9DrawChunkERK21DynamicVBOChunkHandleP17VertexDeclarationPKNS_10DrawParamsEi
5712:__ZN10DynamicVBO11SwapBuffersEj
5713:__ZN10DynamicVBO13HandleToChunkERK21DynamicVBOChunkHandleb
5714:__ZN16GeometryJobTasks29PutDynamicVBOGeometryJobFenceER9GfxDevice
5715:__ZNK10DynamicVBO13IsHandleValidERK21DynamicVBOChunkHandle
5716:__ZN10DynamicVBO19FillQuadIndexBufferER21DynamicVBOChunkHandle
5717:__ZN17GenericDynamicVBOD2Ev
5718:__ZN17GenericDynamicVBOD0Ev
5719:__ZN17GenericDynamicVBO11SwapBuffersEj
5720:__ZN17GenericDynamicVBO13HandleToChunkERK21DynamicVBOChunkHandleb
5721:__ZN17GenericDynamicVBO10AllocateVBEjR21DynamicVBOChunkHandle
5722:__ZN17GenericDynamicVBO10AllocateIBEjR21DynamicVBOChunkHandle
5723:__ZN17GenericDynamicVBO17DrawChunkInternalERK21DynamicVBOChunkHandleP17VertexDeclarationPK16DrawBuffersRangeijj
5724:__ZN17GenericDynamicVBO20ReleaseChunkInternalERK21DynamicVBOChunkHandlejj
5725:__ZN17GenericDynamicVBO12EnsureBufferEjj15GfxBufferTargetR13dynamic_arrayIP9GfxBufferLj0EE
5726:__ZN10MeshFilterD0Ev
5727:__ZN10MeshFilter13AwakeFromLoadE17AwakeFromLoadMode
5728:__ZNK10MeshFilter22GetTypeVirtualInternalEv
5729:__ZN10MeshFilter23VirtualRedirectTransferER19StreamedBinaryWrite
5730:__ZN10MeshFilter23VirtualRedirectTransferER18StreamedBinaryRead
5731:__ZN10MeshFilter23VirtualRedirectTransferER17RemapPPtrTransfer
5732:__ZN10MeshFilter23VirtualRedirectTransferER24GenerateTypeTreeTransfer
5733:__ZN10MeshFilter23VirtualRedirectTransferER14SafeBinaryRead
5734:__ZN10MeshFilter20WillDestroyComponentEv
5735:__ZN12MeshRenderer13SetSharedMeshE4PPtrI4MeshE
5736:__ZN12MeshRenderer16UpdateCachedMeshEv
5737:__ZN12MeshRenderer18CalculateLocalAABBER4AABBRKS_RK4Mesh
5738:__ZN14SafeBinaryRead8TransferI10MeshFilterEEvRT_PKc17TransferMetaFlags
5739:__ZNK6Sprite9GetBoundsEbbb
5740:__ZN16SpriteRenderDataC2Ev
5741:__ZN23SharedMeshRenderingDataC2E10MemLabelId
5742:__ZNK9Transform13GetLocalScaleEv
5743:__ZN9Transform13SetLocalScaleERK8Vector3f
5744:__ZN8Renderer39GetCustomPropertiesRememberToUpdateHashEv
5745:__ZN19ShaderPropertySheet35SetTextureWithNoAuxiliaryPropertiesEN9ShaderLab16FastPropertyNameE9TextureID16TextureDimension14VRTextureUsage
5746:__ZN19ShaderPropertySheet11ComputeHashEv
5747:__ZN24ScriptableRenderPipeline18GetDefaultMaterialENS_22DefaultSRPMaterialTypeE
5748:__Z22FindUnityObjectFromSRPI8MaterialEPT_N4core12basic_stringIcNS3_20StringStorageDefaultIcEEEE
5749:__ZN13MonoBehaviour10FindMethodEPKc
5750:__ZN9Scripting26GetMethodWithSearchOptionsE17ScriptingClassPtrPKcN24ScriptingMethodFiltering18MethodSearchFilterE
5751:__ZN4MeshD2Ev
5752:__ZN4MeshD0Ev
5753:__ZN4Mesh17MainThreadCleanupEv
5754:__ZN4Mesh13AwakeFromLoadE17AwakeFromLoadMode
5755:__ZN4Mesh21AwakeFromLoadThreadedEv
5756:__ZNK4Mesh22GetTypeVirtualInternalEv
5757:__ZN4Mesh23VirtualRedirectTransferER19StreamedBinaryWrite
5758:__ZN4Mesh23VirtualRedirectTransferER18StreamedBinaryRead
5759:__ZN4Mesh23VirtualRedirectTransferER17RemapPPtrTransfer
5760:__ZN4Mesh23VirtualRedirectTransferER24GenerateTypeTreeTransfer
5761:__ZN4Mesh23VirtualRedirectTransferER14SafeBinaryRead
5762:__ZN4Mesh8TransferI14SafeBinaryReadEEvRT_
5763:__ZN14BlendShapeData8TransferI14SafeBinaryReadEEvRT_
5764:__ZN14SafeBinaryRead21TransferSTLStyleArrayI13dynamic_arrayI11ColorRGBA32Lj0EEEEvRT_17TransferMetaFlags
5765:__ZN4Mesh22SetBoneWeightsInternalEPK12BoneWeights4i
5766:__ZN14CompressedMesh8TransferI14SafeBinaryReadEEvRT_
5767:__ZN14CompressedMesh10DecompressER4Mesh
5768:__ZN14CompressedMeshD2Ev
5769:__ZN17CollisionMeshData8TransferI14SafeBinaryReadEEvRT_R4Mesh
5770:__ZN17PackedFloatVector12UnpackFloatsEPfiiii
5771:__ZN14CompressedMeshC2Ev
5772:__ZN13VertexUtility13SwapEndianessERK14VertexDataInfoPh
5773:__ZN14SafeBinaryRead21TransferSTLStyleArrayI13dynamic_arrayI16BlendShapeVertexLj0EEEEvRT_17TransferMetaFlags
5774:__ZN14SafeBinaryRead21TransferSTLStyleArrayI13dynamic_arrayI10BlendShapeLj0EEEEvRT_17TransferMetaFlags
5775:__ZN14SafeBinaryRead21TransferSTLStyleArrayINSt3__26vectorI17BlendShapeChannelNS1_9allocatorIS3_EEEEEEvRT_17TransferMetaFlags
5776:__ZN14SafeBinaryRead21TransferSTLStyleArrayI13dynamic_arrayIfLj0EEEEvRT_17TransferMetaFlags
5777:__Z14resize_trimmedINSt3__26vectorI17BlendShapeChannelNS0_9allocatorIS2_EEEEEvRT_j
5778:__ZN15SerializeTraitsI17BlendShapeChannelE8TransferI14SafeBinaryReadEEvRS0_RT_
5779:__ZNSt3__26vectorI17BlendShapeChannelNS_9allocatorIS1_EEE7reserveEj
5780:__ZNSt3__26vectorI17BlendShapeChannelNS_9allocatorIS1_EEE6assignINS_11__wrap_iterIPS1_EEEENS_9enable_ifIXaasr21__is_forward_iteratorIT_EE5valuesr16is_constructibleIS1_NS_15iterator_traitsISA_E9referenceEEE5valueEvE4typeESA_SA_
5781:__ZNSt3__26vectorI17BlendShapeChannelNS_9allocatorIS1_EEE8__appendEj
5782:__ZN14ConstantString6assignERKS_
5783:__ZN15SerializeTraitsI13dynamic_arrayI10BlendShapeLj0EEE19ResizeSTLStyleArrayERS2_i
5784:__ZN15SerializeTraitsI10BlendShapeE8TransferI14SafeBinaryReadEEvRS0_RT_
5785:__ZN13dynamic_arrayI16BlendShapeVertexLj0EE18resize_initializedEj12ResizePolicy
5786:__ZN16BlendShapeVertex8TransferI14SafeBinaryReadEEvRT_
5787:__ZN4Mesh8TransferI24GenerateTypeTreeTransferEEvRT_
5788:__ZN14BlendShapeData8TransferI24GenerateTypeTreeTransferEEvRT_
5789:__ZN14CompressedMesh8TransferI24GenerateTypeTreeTransferEEvRT_
5790:__ZN17CollisionMeshData8TransferI24GenerateTypeTreeTransferEEvRT_R4Mesh
5791:__ZN10BlendShape8TransferI24GenerateTypeTreeTransferEEvRT_
5792:__ZN17BlendShapeChannel8TransferI24GenerateTypeTreeTransferEEvRT_
5793:__ZN4Mesh8TransferI17RemapPPtrTransferEEvRT_
5794:__ZN4Mesh8TransferI18StreamedBinaryReadEEvRT_
5795:__ZN15SerializeTraitsI13dynamic_arrayI7SubMeshLj0EEE19ResizeSTLStyleArrayERS2_i
5796:__ZN14BlendShapeData8TransferI18StreamedBinaryReadEEvRT_
5797:__ZN14CompressedMesh8TransferI18StreamedBinaryReadEEvRT_
5798:__ZN17CollisionMeshData8TransferI18StreamedBinaryReadEEvRT_R4Mesh
5799:__ZN16BlendShapeVertex8TransferI18StreamedBinaryReadEEvRT_
5800:__ZN10BlendShape8TransferI18StreamedBinaryReadEEvRT_
5801:__ZN17BlendShapeChannel8TransferI18StreamedBinaryReadEEvRT_
5802:__ZN4Mesh8TransferI19StreamedBinaryWriteEEvRT_
5803:__ZN14BlendShapeData8TransferI19StreamedBinaryWriteEEvRT_
5804:__ZN14CompressedMesh8CompressERK4MeshRK21CompressedMeshQuality
5805:__ZN14CompressedMesh8TransferI19StreamedBinaryWriteEEvRT_
5806:__ZN17PackedFloatVector10PackFloatsEPKfiiiib
5807:__ZN15PackedIntVector8PackIntsItEEvPT_i
5808:__ZNK4Mesh14ExtractUvArrayEiPfi
5809:__ZN15PackedIntVector8PackIntsIjEEvPT_i
5810:__ZNK4Mesh17ExtractColorArrayEP10ColorRGBAf
5811:__ZN14SharedMeshData14GetBoneWeightsEi
5812:__ZN14VertexDataInfo18SetAsSingleChannelEj13ShaderChannelRK24VertexFormatAndDimension
5813:__ZN13VertexUtility12CopyChannelsEj17ShaderChannelMaskRK14VertexDataInfoPKhRS1_Ph
5814:__ZN16BlendShapeVertex8TransferI19StreamedBinaryWriteEEvRT_
5815:__ZN10BlendShape8TransferI19StreamedBinaryWriteEEvRT_
5816:__ZN17BlendShapeChannel8TransferI19StreamedBinaryWriteEEvRT_
5817:__ZN17CollisionMeshData21AwakeFromLoadThreadedER4Mesh
5818:__ZN4Mesh14UploadMeshDataEb
5819:__ZN4Mesh18UpdateVertexFormatEv
5820:__ZN13VertexUtility24CalcChannelLayoutForCapsERK12GraphicsCapsRK14VertexDataInfoR20VertexChannelsLayoutR17ShaderChannelMask
5821:__ZN17CollisionMeshData7CleanupEv
5822:__ZN14BlendShapeDataD2Ev
5823:__ZN8Renderer12GetTransformEv
5824:__Z26ScheduleJobDependsInternalR8JobFencePFvPvES1_RKS_11JobPriority
5825:__ZNK9Transform21GetLocalToWorldMatrixER10Matrix4x4f
5826:__Z21CalculateGlobalMatrix23TransformAccessReadOnly
5827:__ZN6Object11RemoveEventEPFvPvS0_iES0_
5828:__ZN6Object8AddEventEPFvPvS0_iES0_
5829:__ZN12EventManager8AddEventEPFvPvS0_iES0_P10EventEntry
5830:__ZN12EventManager11RemoveEventEP10EventEntryPFvPvS2_iES2_
5831:__ZN13HandleManager4FreeEi
5832:__ZN13HandleManager8AllocateEv
5833:__ZN12MeshRendererD2Ev
5834:__ZN12MeshRendererD0Ev
5835:__ZN12MeshRenderer17MainThreadCleanupEv
5836:__ZN12MeshRenderer13AwakeFromLoadE17AwakeFromLoadMode
5837:__ZNK12MeshRenderer22GetTypeVirtualInternalEv
5838:__ZN12MeshRenderer23VirtualRedirectTransferER19StreamedBinaryWrite
5839:__ZN12MeshRenderer23VirtualRedirectTransferER18StreamedBinaryRead
5840:__ZN12MeshRenderer23VirtualRedirectTransferER17RemapPPtrTransfer
5841:__ZN12MeshRenderer23VirtualRedirectTransferER24GenerateTypeTreeTransfer
5842:__ZN12MeshRenderer23VirtualRedirectTransferER14SafeBinaryRead
5843:__ZN12MeshRenderer10DeactivateE19DeactivateOperation
5844:__ZN12MeshRenderer20RendererAddedToSceneEv
5845:__ZN12MeshRenderer24RendererRemovedFromSceneEv
5846:__ZN12MeshRenderer15AddAsRenderNodeER15RenderNodeQueueRK20DeprecatedSourceData
5847:__ZNK12MeshRenderer19GetStaticBatchIndexEv
5848:__ZThn32_N12MeshRendererD1Ev
5849:__ZThn32_N12MeshRendererD0Ev
5850:__ZThn32_N12MeshRenderer15AddAsRenderNodeER15RenderNodeQueueRK20DeprecatedSourceData
5851:__ZThn32_NK12MeshRenderer19GetStaticBatchIndexEv
5852:__ZN14SafeBinaryRead8TransferI12MeshRendererEEvRT_PKc17TransferMetaFlags
5853:__ZN11TimeManagerD2Ev
5854:__ZN11TimeManagerD0Ev
5855:__ZN11TimeManager13AwakeFromLoadE17AwakeFromLoadMode
5856:__ZN11TimeManager16CheckConsistencyEv
5857:__ZN11TimeManager5ResetEv
5858:__ZNK11TimeManager22GetTypeVirtualInternalEv
5859:__ZN11TimeManager23VirtualRedirectTransferER19StreamedBinaryWrite
5860:__ZN11TimeManager23VirtualRedirectTransferER18StreamedBinaryRead
5861:__ZN11TimeManager23VirtualRedirectTransferER24GenerateTypeTreeTransfer
5862:__ZN11TimeManager23VirtualRedirectTransferER14SafeBinaryRead
5863:__ZN11TimeManager6UpdateEv
5864:__Z19GetTimeSinceStartupv
5865:__ZN15SerializeTraitsI11TimeManagerE8TransferI14SafeBinaryReadEEvRS0_RT_
5866:__ZN11TimeManager8TransferI24GenerateTypeTreeTransferEEvRT_
5867:__ZN11TimeManager8TransferI18StreamedBinaryReadEEvRT_
5868:__ZN11TimeManager8TransferI19StreamedBinaryWriteEEvRT_
5869:__ZN12InputManagerD2Ev
5870:__ZN12InputManagerD0Ev
5871:__ZN12InputManager16CheckConsistencyEv
5872:__ZN12InputManager5ResetEv
5873:__ZNK12InputManager22GetTypeVirtualInternalEv
5874:__ZN12InputManager23VirtualRedirectTransferER19StreamedBinaryWrite
5875:__ZN12InputManager23VirtualRedirectTransferER18StreamedBinaryRead
5876:__ZN12InputManager23VirtualRedirectTransferER17RemapPPtrTransfer
5877:__ZN12InputManager23VirtualRedirectTransferER24GenerateTypeTreeTransfer
5878:__ZN12InputManager23VirtualRedirectTransferER14SafeBinaryRead
5879:__ZN12InputManager8TransferI14SafeBinaryReadEEvRT_
5880:__ZN14SafeBinaryRead21TransferSTLStyleArrayI13dynamic_arrayI9InputAxisLj0EEEEvRT_17TransferMetaFlags
5881:__Z10AddGUIAxesR13dynamic_arrayI9InputAxisLj0EE
5882:__ZN9InputAxisC2ERKN4core12basic_stringIcNS0_20StringStorageDefaultIcEEEE
5883:__ZN13dynamic_arrayI9InputAxisLj0EE9push_backERKS0_
5884:__Z11StringToKeyRKN4core12basic_stringIcNS_20StringStorageDefaultIcEEEE
5885:__ZN9InputAxisC2ERKS_
5886:__ZN13dynamic_arrayI9InputAxisLj0EE18resize_initializedEj12ResizePolicy
5887:__ZN9InputAxis8TransferI14SafeBinaryReadEEvRT_
5888:__ZN24GenerateTypeTreeTransfer21TransferSTLStyleArrayI13dynamic_arrayI9InputAxisLj0EEEEvRT_17TransferMetaFlags
5889:__ZN9InputAxis8TransferI24GenerateTypeTreeTransferEEvRT_
5890:__ZN9InputAxis8TransferI18StreamedBinaryReadEEvRT_
5891:__ZN9InputAxis8TransferI19StreamedBinaryWriteEEvRT_
5892:__ZN12InputManager11MakeDefaultEv
5893:__ZN12InputManager14ResetInputAxesEv
5894:__ZN14PlayerSettingsD2Ev
5895:__ZN14PlayerSettingsD0Ev
5896:__ZN14PlayerSettings13AwakeFromLoadE17AwakeFromLoadMode
5897:__ZN14PlayerSettings16CheckConsistencyEv
5898:__ZN14PlayerSettings5ResetEv
5899:__ZNK14PlayerSettings22GetTypeVirtualInternalEv
5900:__ZN14PlayerSettings23VirtualRedirectTransferER19StreamedBinaryWrite
5901:__ZN14PlayerSettings23VirtualRedirectTransferER18StreamedBinaryRead
5902:__ZN14PlayerSettings23VirtualRedirectTransferER17RemapPPtrTransfer
5903:__ZN14PlayerSettings23VirtualRedirectTransferER24GenerateTypeTreeTransfer
5904:__ZN14PlayerSettings23VirtualRedirectTransferER14SafeBinaryRead
5905:__ZN14PlayerSettings8TransferI14SafeBinaryReadEEvRT_
5906:__ZN26PlayerSettingsSplashScreen8TransferI14SafeBinaryReadEEvRT_
5907:__ZN15SerializeTraitsI12AspectRatiosE8TransferI14SafeBinaryReadEEvRS0_RT_
5908:__ZN10VRSettings8TransferI14SafeBinaryReadEEvRT_
5909:__ZN10VRSettings9Cardboard8TransferI14SafeBinaryReadEEvRT_
5910:__ZN10VRSettings8Daydream8TransferI14SafeBinaryReadEEvRT_
5911:__ZN10VRSettings8HoloLens8TransferI14SafeBinaryReadEEvRT_
5912:__ZN10VRSettings6Oculus8TransferI14SafeBinaryReadEEvRT_
5913:__ZN14SafeBinaryRead21TransferSTLStyleArrayI13dynamic_arrayI16SplashScreenLogoLj0EEEEvRT_17TransferMetaFlags
5914:__ZN15SerializeTraitsI13dynamic_arrayI16SplashScreenLogoLj0EEE19ResizeSTLStyleArrayERS2_i
5915:__ZN15SerializeTraitsI16SplashScreenLogoE8TransferI14SafeBinaryReadEEvRS0_RT_
5916:__ZN14PlayerSettings8TransferI24GenerateTypeTreeTransferEEvRT_
5917:__ZN26PlayerSettingsSplashScreen8TransferI24GenerateTypeTreeTransferEEvRT_
5918:__ZN12AspectRatios8TransferI24GenerateTypeTreeTransferEEvRT_
5919:__ZN10VRSettings8TransferI24GenerateTypeTreeTransferEEvRT_
5920:__ZN10VRSettings8Daydream8TransferI24GenerateTypeTreeTransferEEvRT_
5921:__ZN14PlayerSettings8TransferI17RemapPPtrTransferEEvRT_
5922:__ZN26PlayerSettingsSplashScreen8TransferI17RemapPPtrTransferEEvRT_
5923:__ZN14PlayerSettings8TransferI18StreamedBinaryReadEEvRT_
5924:__ZN26PlayerSettingsSplashScreen8TransferI18StreamedBinaryReadEEvRT_
5925:__ZN12AspectRatios8TransferI18StreamedBinaryReadEEvRT_
5926:__ZN10VRSettings8TransferI18StreamedBinaryReadEEvRT_
5927:__ZN10VRSettings8Daydream8TransferI18StreamedBinaryReadEEvRT_
5928:__ZN18StreamedBinaryRead21TransferSTLStyleArrayI13dynamic_arrayI16SplashScreenLogoLj0EEEEvRT_17TransferMetaFlags
5929:__ZN14PlayerSettings8TransferI19StreamedBinaryWriteEEvRT_
5930:__ZN26PlayerSettingsSplashScreen8TransferI19StreamedBinaryWriteEEvRT_
5931:__ZN12AspectRatios8TransferI19StreamedBinaryWriteEEvRT_
5932:__ZN10VRSettings8TransferI19StreamedBinaryWriteEEvRT_
5933:__ZN10VRSettings8Daydream8TransferI19StreamedBinaryWriteEEvRT_
5934:__ZN26PlayerSettingsSplashScreen5ResetEv
5935:__ZN26PlayerSettingsSplashScreen16CheckConsistencyEv
5936:__ZN7Cursors17InitializeCursorsEP9Texture2D8Vector2f
5937:__ZN7Cursors9SetCursorEP9Texture2D8Vector2f10CursorMode
5938:__Z13ConvertPixelsPKh13TextureFormatPhS1_j
5939:__ZN14AsyncOperationD2Ev
5940:__ZN14AsyncOperation15InvokeCoroutineEv
5941:__ZN13BuildSettingsD2Ev
5942:__ZN13BuildSettingsD0Ev
5943:__ZN13BuildSettings13AwakeFromLoadE17AwakeFromLoadMode
5944:__ZNK13BuildSettings22GetTypeVirtualInternalEv
5945:__ZN13BuildSettings23VirtualRedirectTransferER19StreamedBinaryWrite
5946:__ZN13BuildSettings23VirtualRedirectTransferER18StreamedBinaryRead
5947:__ZN13BuildSettings23VirtualRedirectTransferER24GenerateTypeTreeTransfer
5948:__ZN13BuildSettings23VirtualRedirectTransferER14SafeBinaryRead
5949:__ZN13BuildSettings8TransferI14SafeBinaryReadEEvRT_
5950:__ZNK12UnityVersionltERKS_
5951:__ZN14SafeBinaryRead21TransferSTLStyleArrayI10vector_mapIPKN5Unity4TypeE7Hash128NSt3__24lessIS5_EENS7_9allocatorINS7_4pairIS5_S6_EEEEEEEvRT_17TransferMetaFlags
5952:__ZNSt3__26__sortIRNS_6__lessINS_4pairIPKN5Unity4TypeE7Hash128EES8_EEPS8_EEvT0_SC_T_
5953:__ZN14SafeBinaryRead21TransferSTLStyleArrayI10vector_mapI7Hash128S2_NSt3__24lessIS2_EENS3_9allocatorINS3_4pairIS2_S2_EEEEEEEvRT_17TransferMetaFlags
5954:__ZNSt3__26vectorINS_4pairI7Hash128S2_EENS_9allocatorIS3_EEE8__appendEj
5955:__ZN15SerializeTraitsINSt3__24pairI7Hash128S2_EEE8TransferI14SafeBinaryReadEEvRS3_RT_
5956:__ZNSt3__27__sort3IRNS_6__lessINS_4pairIPKN5Unity4TypeE7Hash128EES8_EEPS8_EEjT0_SC_SC_T_
5957:__ZNSt3__27__sort4IRNS_6__lessINS_4pairIPKN5Unity4TypeE7Hash128EES8_EEPS8_EEjT0_SC_SC_SC_T_
5958:__ZNSt3__27__sort5IRNS_6__lessINS_4pairIPKN5Unity4TypeE7Hash128EES8_EEPS8_EEjT0_SC_SC_SC_SC_T_
5959:__ZNSt3__218__insertion_sort_3IRNS_6__lessINS_4pairIPKN5Unity4TypeE7Hash128EES8_EEPS8_EEvT0_SC_T_
5960:__ZNSt3__227__insertion_sort_incompleteIRNS_6__lessINS_4pairIPKN5Unity4TypeE7Hash128EES8_EEPS8_EEbT0_SC_T_
5961:__ZNSt3__26vectorINS_4pairIPKN5Unity4TypeE7Hash128EENS_9allocatorIS7_EEE8__appendEj
5962:__ZN15SerializeTraitsINSt3__24pairIPKN5Unity4TypeE7Hash128EEE8TransferI14SafeBinaryReadEEvRS7_RT_
5963:__ZN13BuildSettings8TransferI24GenerateTypeTreeTransferEEvRT_
5964:__ZN24GenerateTypeTreeTransfer8TransferINSt3__26vectorIN4core12basic_stringIcNS3_20StringStorageDefaultIcEEEENS1_9allocatorIS7_EEEEEEvRT_PKc17TransferMetaFlags
5965:__ZN13BuildSettings8TransferI18StreamedBinaryReadEEvRT_
5966:__ZN18StreamedBinaryRead21TransferSTLStyleArrayI10vector_mapIPKN5Unity4TypeE7Hash128NSt3__24lessIS5_EENS7_9allocatorINS7_4pairIS5_S6_EEEEEEEvRT_17TransferMetaFlags
5967:__ZN18StreamedBinaryRead21TransferSTLStyleArrayI10vector_mapI7Hash128S2_NSt3__24lessIS2_EENS3_9allocatorINS3_4pairIS2_S2_EEEEEEEvRT_17TransferMetaFlags
5968:__ZN13BuildSettings8TransferI19StreamedBinaryWriteEEvRT_
5969:__ZNK22GenericPropertyBinding13GetFloatValueERKN11UnityEngine9Animation10BoundCurveE
5970:__ZNK22GenericPropertyBinding13SetFloatValueERKN11UnityEngine9Animation10BoundCurveEf
5971:__ZNK22GenericPropertyBinding15GenerateBindingERKN4core12basic_stringIcNS0_20StringStorageDefaultIcEEEEbRN11UnityEngine9Animation14GenericBindingE
5972:__ZNK22GenericPropertyBinding9BindValueER6ObjectRKN11UnityEngine9Animation14GenericBindingERNS3_10BoundCurveE
5973:__ZN30RuntimeInitializeOnLoadManagerD2Ev
5974:__ZN30RuntimeInitializeOnLoadManagerD0Ev
5975:__ZNK30RuntimeInitializeOnLoadManager22GetTypeVirtualInternalEv
5976:__ZN30RuntimeInitializeOnLoadManager23VirtualRedirectTransferER19StreamedBinaryWrite
5977:__ZN30RuntimeInitializeOnLoadManager23VirtualRedirectTransferER18StreamedBinaryRead
5978:__ZN30RuntimeInitializeOnLoadManager23VirtualRedirectTransferER24GenerateTypeTreeTransfer
5979:__ZN30RuntimeInitializeOnLoadManager23VirtualRedirectTransferER14SafeBinaryRead
5980:__ZN30RuntimeInitializeOnLoadManager8TransferI14SafeBinaryReadEEvRT_
5981:__ZN14SafeBinaryRead21TransferSTLStyleArrayINSt3__26vectorIN4core12basic_stringIcNS3_20StringStorageDefaultIcEEEE13stl_allocatorIS7_L18MemLabelIdentifier13ELi16EEEEEEvRT_17TransferMetaFlags
5982:__ZN14SafeBinaryRead21TransferSTLStyleArrayINSt3__26vectorIN30RuntimeInitializeOnLoadManager9ClassInfoE13stl_allocatorIS4_L18MemLabelIdentifier13ELi16EEEEEEvRT_17TransferMetaFlags
5983:__ZN14SafeBinaryRead21TransferSTLStyleArrayINSt3__26vectorIN30RuntimeInitializeOnLoadManager15ClassMethodInfoE13stl_allocatorIS4_L18MemLabelIdentifier13ELi16EEEEEEvRT_17TransferMetaFlags
5984:__ZN14SafeBinaryRead21TransferSTLStyleArrayINSt3__26vectorIi13stl_allocatorIiL18MemLabelIdentifier13ELi16EEEEEEvRT_17TransferMetaFlags
5985:__Z14resize_trimmedINSt3__26vectorIi13stl_allocatorIiL18MemLabelIdentifier13ELi16EEEEEvRT_j
5986:__ZNSt3__26vectorIi13stl_allocatorIiL18MemLabelIdentifier13ELi16EEE6assignINS_11__wrap_iterIPiEEEENS_9enable_ifIXaasr21__is_forward_iteratorIT_EE5valuesr16is_constructibleIiNS_15iterator_traitsISA_E9referenceEEE5valueEvE4typeESA_SA_
5987:__ZNSt3__26vectorIi13stl_allocatorIiL18MemLabelIdentifier13ELi16EEE8__appendEj
5988:__Z14resize_trimmedINSt3__26vectorIN30RuntimeInitializeOnLoadManager15ClassMethodInfoE13stl_allocatorIS3_L18MemLabelIdentifier13ELi16EEEEEvRT_j
5989:__ZN30RuntimeInitializeOnLoadManager15ClassMethodInfo8TransferI14SafeBinaryReadEEvRT_
5990:__ZNSt3__26vectorIN30RuntimeInitializeOnLoadManager15ClassMethodInfoE13stl_allocatorIS2_L18MemLabelIdentifier13ELi16EEE7reserveEj
5991:__ZNSt3__26vectorIN30RuntimeInitializeOnLoadManager15ClassMethodInfoE13stl_allocatorIS2_L18MemLabelIdentifier13ELi16EEE6assignINS_11__wrap_iterIPS2_EEEENS_9enable_ifIXaasr21__is_forward_iteratorIT_EE5valuesr16is_constructibleIS2_NS_15iterator_traitsISC_E9referenceEEE5valueEvE4typeESC_SC_
5992:__ZNSt3__26vectorIN30RuntimeInitializeOnLoadManager15ClassMethodInfoE13stl_allocatorIS2_L18MemLabelIdentifier13ELi16EEE8__appendEj
5993:__ZNSt3__26vectorIN30RuntimeInitializeOnLoadManager15ClassMethodInfoE13stl_allocatorIS2_L18MemLabelIdentifier13ELi16EEEC2INS_11__wrap_iterIPS2_EEEET_SB_RKS5_PNS_9enable_ifIXaasr21__is_forward_iteratorISB_EE5valuesr16is_constructibleIS2_NS_15iterator_traitsISB_E9referenceEEE5valueEvE4typeE
5994:__Z14resize_trimmedINSt3__26vectorIN30RuntimeInitializeOnLoadManager9ClassInfoE13stl_allocatorIS3_L18MemLabelIdentifier13ELi16EEEEEvRT_j
5995:__ZN30RuntimeInitializeOnLoadManager9ClassInfo8TransferI14SafeBinaryReadEEvRT_
5996:__ZNSt3__26vectorIN30RuntimeInitializeOnLoadManager9ClassInfoE13stl_allocatorIS2_L18MemLabelIdentifier13ELi16EEE7reserveEj
5997:__ZNSt3__26vectorIN30RuntimeInitializeOnLoadManager9ClassInfoE13stl_allocatorIS2_L18MemLabelIdentifier13ELi16EEE6assignINS_11__wrap_iterIPS2_EEEENS_9enable_ifIXaasr21__is_forward_iteratorIT_EE5valuesr16is_constructibleIS2_NS_15iterator_traitsISC_E9referenceEEE5valueEvE4typeESC_SC_
5998:__ZNSt3__26vectorIN30RuntimeInitializeOnLoadManager9ClassInfoE13stl_allocatorIS2_L18MemLabelIdentifier13ELi16EEE8__appendEj
5999:__ZNSt3__26vectorIN30RuntimeInitializeOnLoadManager9ClassInfoE13stl_allocatorIS2_L18MemLabelIdentifier13ELi16EEEC2INS_11__wrap_iterIPS2_EEEET_SB_RKS5_PNS_9enable_ifIXaasr21__is_forward_iteratorISB_EE5valuesr16is_constructibleIS2_NS_15iterator_traitsISB_E9referenceEEE5valueEvE4typeE
6000:__Z14resize_trimmedINSt3__26vectorIN4core12basic_stringIcNS2_20StringStorageDefaultIcEEEE13stl_allocatorIS6_L18MemLabelIdentifier13ELi16EEEEEvRT_j
6001:__ZNSt3__26vectorIN4core12basic_stringIcNS1_20StringStorageDefaultIcEEEE13stl_allocatorIS5_L18MemLabelIdentifier13ELi16EEE7reserveEj
6002:__ZNSt3__26vectorIN4core12basic_stringIcNS1_20StringStorageDefaultIcEEEE13stl_allocatorIS5_L18MemLabelIdentifier13ELi16EEE6assignINS_11__wrap_iterIPS5_EEEENS_9enable_ifIXaasr21__is_forward_iteratorIT_EE5valuesr16is_constructibleIS5_NS_15iterator_traitsISF_E9referenceEEE5valueEvE4typeESF_SF_
6003:__ZNSt3__26vectorIN4core12basic_stringIcNS1_20StringStorageDefaultIcEEEE13stl_allocatorIS5_L18MemLabelIdentifier13ELi16EEE8__appendEj
6004:__ZNSt3__26vectorIN4core12basic_stringIcNS1_20StringStorageDefaultIcEEEE13stl_allocatorIS5_L18MemLabelIdentifier13ELi16EEEC2INS_11__wrap_iterIPS5_EEEET_SE_RKS8_PNS_9enable_ifIXaasr21__is_forward_iteratorISE_EE5valuesr16is_constructibleIS5_NS_15iterator_traitsISE_E9referenceEEE5valueEvE4typeE
6005:__ZN30RuntimeInitializeOnLoadManager8TransferI24GenerateTypeTreeTransferEEvRT_
6006:__ZN15SerializeTraitsINSt3__26vectorIN30RuntimeInitializeOnLoadManager9ClassInfoE13stl_allocatorIS3_L18MemLabelIdentifier13ELi16EEEEE8TransferI24GenerateTypeTreeTransferEEvRS7_RT_
6007:__ZN15SerializeTraitsINSt3__26vectorIN30RuntimeInitializeOnLoadManager15ClassMethodInfoE13stl_allocatorIS3_L18MemLabelIdentifier13ELi16EEEEE8TransferI24GenerateTypeTreeTransferEEvRS7_RT_
6008:__ZN30RuntimeInitializeOnLoadManager15ClassMethodInfo8TransferI24GenerateTypeTreeTransferEEvRT_
6009:__ZN30RuntimeInitializeOnLoadManager9ClassInfo8TransferI24GenerateTypeTreeTransferEEvRT_
6010:__ZN30RuntimeInitializeOnLoadManager8TransferI18StreamedBinaryReadEEvRT_
6011:__ZN30RuntimeInitializeOnLoadManager9ClassInfo8TransferI18StreamedBinaryReadEEvRT_
6012:__ZN30RuntimeInitializeOnLoadManager15ClassMethodInfo8TransferI18StreamedBinaryReadEEvRT_
6013:__ZN30RuntimeInitializeOnLoadManager8TransferI19StreamedBinaryWriteEEvRT_
6014:__ZN30RuntimeInitializeOnLoadManager9ClassInfo8TransferI19StreamedBinaryWriteEEvRT_
6015:__ZN30RuntimeInitializeOnLoadManager15ClassMethodInfo8TransferI19StreamedBinaryWriteEEvRT_
6016:__ZN27GenericSlowGarbageCollector18GenerateInstanceIDEi17TransferMetaFlags
6017:__ZN27GenericSlowGarbageCollector16ProcessReferenceEi
6018:__ZN15ResourceManagerD2Ev
6019:__ZN15ResourceManagerD0Ev
6020:__ZNK15ResourceManager22GetTypeVirtualInternalEv
6021:__ZN15ResourceManager23VirtualRedirectTransferER19StreamedBinaryWrite
6022:__ZN15ResourceManager23VirtualRedirectTransferER18StreamedBinaryRead
6023:__ZN15ResourceManager23VirtualRedirectTransferER17RemapPPtrTransfer
6024:__ZN15ResourceManager23VirtualRedirectTransferER24GenerateTypeTreeTransfer
6025:__ZN15ResourceManager23VirtualRedirectTransferER14SafeBinaryRead
6026:__ZN15ResourceManager8TransferI14SafeBinaryReadEEvRT_
6027:__ZN14SafeBinaryRead19TransferSTLStyleMapINSt3__28multimapIN4core12basic_stringIcNS3_20StringStorageDefaultIcEEEE4PPtrI6ObjectENS1_4lessIS7_EE13stl_allocatorINS1_4pairIKS7_SA_EEL18MemLabelIdentifier52ELi16EEEEEEvRT_17TransferMetaFlags
6028:__ZN14SafeBinaryRead21TransferSTLStyleArrayI13dynamic_arrayIN15ResourceManager10DependencyELj0EEEEvRT_17TransferMetaFlags
6029:__ZNSt3__26__sortIRN15ResourceManager10Dependency6SorterEPS2_EEvT0_S6_T_
6030:__ZNSt3__27__sort3IRN15ResourceManager10Dependency6SorterEPS2_EEjT0_S6_S6_T_
6031:__ZNSt3__27__sort4IRN15ResourceManager10Dependency6SorterEPS2_EEjT0_S6_S6_S6_T_
6032:__ZNSt3__27__sort5IRN15ResourceManager10Dependency6SorterEPS2_EEjT0_S6_S6_S6_S6_T_
6033:__ZNSt3__218__insertion_sort_3IRN15ResourceManager10Dependency6SorterEPS2_EEvT0_S6_T_
6034:__ZNSt3__227__insertion_sort_incompleteIRN15ResourceManager10Dependency6SorterEPS2_EEbT0_S6_T_
6035:__ZN13dynamic_arrayIN15ResourceManager10DependencyELj0EE18resize_initializedEj12ResizePolicy
6036:__ZN15ResourceManager10Dependency8TransferI14SafeBinaryReadEEvRT_
6037:__ZNSt3__26__treeINS_12__value_typeIN4core12basic_stringIcNS2_20StringStorageDefaultIcEEEE4PPtrI6ObjectEEENS_19__map_value_compareIS6_SA_NS_4lessIS6_EELb1EEE13stl_allocatorISA_L18MemLabelIdentifier52ELi16EEE7destroyEPNS_11__tree_nodeISA_PvEE
6038:__ZNSt3__26__treeINS_12__value_typeIN4core12basic_stringIcNS2_20StringStorageDefaultIcEEEE4PPtrI6ObjectEEENS_19__map_value_compareIS6_SA_NS_4lessIS6_EELb1EEE13stl_allocatorISA_L18MemLabelIdentifier52ELi16EEE15__emplace_multiIJRNS_4pairIS6_S9_EEEEENS_15__tree_iteratorISA_PNS_11__tree_nodeISA_PvEEiEEDpOT_
6039:__ZN24GenerateTypeTreeTransfer8TransferINSt3__28multimapIN4core12basic_stringIcNS3_20StringStorageDefaultIcEEEE4PPtrI6ObjectENS1_4lessIS7_EE13stl_allocatorINS1_4pairIKS7_SA_EEL18MemLabelIdentifier52ELi16EEEEEEvRT_PKc17TransferMetaFlags
6040:__ZN15SerializeTraitsI13dynamic_arrayIN15ResourceManager10DependencyELj0EEE8TransferI24GenerateTypeTreeTransferEEvRS3_RT_
6041:__ZN15ResourceManager10Dependency8TransferI24GenerateTypeTreeTransferEEvRT_
6042:__ZN15SerializeTraitsINSt3__24pairIN4core12basic_stringIcNS2_20StringStorageDefaultIcEEEE4PPtrI6ObjectEEEE8TransferI24GenerateTypeTreeTransferEEvRSA_RT_
6043:__ZN15ResourceManager8TransferI17RemapPPtrTransferEEvRT_
6044:__ZN18StreamedBinaryRead19TransferSTLStyleMapINSt3__28multimapIN4core12basic_stringIcNS3_20StringStorageDefaultIcEEEE4PPtrI6ObjectENS1_4lessIS7_EE13stl_allocatorINS1_4pairIKS7_SA_EEL18MemLabelIdentifier52ELi16EEEEEEvRT_17TransferMetaFlags
6045:__ZN18StreamedBinaryRead8TransferI13dynamic_arrayIN15ResourceManager10DependencyELj0EEEEvRT_PKc17TransferMetaFlags
6046:__ZN15ResourceManager8TransferI19StreamedBinaryWriteEEvRT_
6047:__ZN13LoadOperationD2Ev
6048:__ZN13LoadOperationD0Ev
6049:__ZN23PreloadManagerOperation6IsDoneEv
6050:__ZN23PreloadManagerOperation11GetProgressEv
6051:__ZN13LoadOperation7PerformEv
6052:__ZN13LoadOperation19IntegrateTimeSlicedEi
6053:__ZN13LoadOperation19IntegrateMainThreadEv
6054:__ZN27TimeSliceAwakeFromLoadQueue19IntegrateTimeSlicedEi
6055:__ZN23dynamic_ringbuffer_baseIN27TimeSliceAwakeFromLoadQueue13AsyncInstanceEE8read_ptrERj
6056:__ZN17PersistentManager48IntegrateObjectAndUnlockIntegrationMutexInternalEi
6057:__ZN23dynamic_ringbuffer_baseIN27TimeSliceAwakeFromLoadQueue11SyncCommandEE8read_ptrERj
6058:__Z48AddToTimeSliceAwakeFromLoadQueueProgressCallbackR6ObjectPv
6059:__ZN17PersistentManager19LoadObjectsThreadedEPKiiR12LoadProgressb
6060:__ZN17PersistentManager34ExtractTimeSliceAwakeFromLoadQueueER27TimeSliceAwakeFromLoadQueueNS_9LockFlagsE
6061:__ZN23dynamic_ringbuffer_baseIN27TimeSliceAwakeFromLoadQueue11SyncCommandEE9write_ptrERj
6062:__ZN17PersistentManager22CheckInstanceIDsLoadedEPiiNS_9LockFlagsE
6063:__ZN6Object22CheckInstanceIDsLoadedEPii
6064:__ZN18AsyncUploadManager13GetAsyncFenceEP6Object
6065:__ZN23dynamic_ringbuffer_baseIN27TimeSliceAwakeFromLoadQueue13AsyncInstanceEE9write_ptrERj
6066:__ZN18LoadSceneOperationD2Ev
6067:__ZN18LoadSceneOperationD0Ev
6068:__ZN18LoadSceneOperation23GetAllowSceneActivationEv
6069:__ZN18LoadSceneOperation23SetAllowSceneActivationEb
6070:__ZN18LoadSceneOperation14SetFinalTimingEffff
6071:__ZN18LoadSceneOperation7PerformEv
6072:__ZN18LoadSceneOperation19IntegrateTimeSlicedEi
6073:__ZN18LoadSceneOperation19IntegrateMainThreadEv
6074:__ZN18LoadSceneOperation21MustCompleteNextFrameEv
6075:__ZN19RuntimeSceneManager24BeginIntegrateMainThreadEP10UnityScene
6076:__ZN18LoadSceneOperation21PostLoadSceneAdditiveEv
6077:__ZN18LoadSceneOperation25PlayerLoadSceneFromThreadEv
6078:__ZN18LoadSceneOperation22CompleteLoadFirstSceneEv
6079:__ZN19RuntimeSceneManager22EndIntegrateMainThreadEP10UnityScene16SceneLoadingMode
6080:__ZN30RuntimeInitializeOnLoadManager23ExecuteInitializeOnLoadE25RuntimeInitializeLoadType
6081:__ZN18AwakeFromLoadQueue5ClearEv
6082:__ZN30RuntimeInitializeOnLoadManager23ExecuteInitializeOnLoadENSt3__26vectorIi13stl_allocatorIiL18MemLabelIdentifier13ELi16EEEE
6083:__ZN19RuntimeSceneManager31CollectDontDestroyOnLoadObjectsERNSt3__23setIiNS0_4lessIiEENS0_9allocatorIiEEEE
6084:__Z15UnloadGameScenev
6085:__ZN18LoadSceneOperation21CompleteAwakeSequenceEv
6086:__Z16CleanupAfterLoadv
6087:__Z21SendMessageToEveryoneRK17MessageIdentifier11MessageData
6088:__ZNSt3__26__treeI4PPtrI6ObjectENS_4lessIS3_EENS_9allocatorIS3_EEE7destroyEPNS_11__tree_nodeIS3_PvEE
6089:__ZN6Object21FindInstanceIDsOfTypeEPKN5Unity4TypeER13dynamic_arrayIiLj0EEb
6090:__ZL35FindInstanceIDsOfTypeImplementationPN4core8hash_setIP6ObjectNS_4hashIS2_EENSt3__28equal_toIS2_EEEEPKN5Unity4TypeER13dynamic_arrayIiLj0EE
6091:__ZN19RenderBufferManager14GarbageCollectEi
6092:__Z29ClearRepeatingLogMessageStatev
6093:__ZN13RenderManager18UpdateAllRenderersEv
6094:__Z21GetDelayedCallManagerv
6095:__ZN21RendererUpdateManager18OncePerFrameUpdateER13RendererScene
6096:__ZN21RendererUpdateManager9UpdateAllER13RendererScene
6097:__ZN28LightProbeProxyVolumeManager6UpdateEv
6098:__ZN28LightProbeProxyVolumeContext5ResetEv
6099:__ZN28LightProbeProxyVolumeManager17UpdateProxyVolumeER21LightProbeProxyVolumej
6100:__ZN21LightProbeProxyVolume13GetRenderDataER27LightProbeProxyVolumeSample
6101:__ZN21LightProbeProxyVolume21GetWorldToLocalMatrixEv
6102:__ZN27LightProbeProxyVolumeSample10InvalidateEv
6103:__ZN10Matrix4x4f12SetTranslateERK8Vector3f
6104:__ZN28LightProbeProxyVolumeManager17UpdateBoundingBoxER21LightProbeProxyVolume
6105:__ZN28LightProbeProxyVolumeManager16UpdateResolutionER21LightProbeProxyVolume
6106:__ZN28LightProbeProxyVolumeManager27ManageVolumeTextureLifetimeER21LightProbeProxyVolume
6107:__ZN28LightProbeProxyVolumeManager16BlendLightProbesER21LightProbeProxyVolume
6108:__ZN9Texture3D15UpdateImageDataEb
6109:__ZN9Texture3D13RebuildMipMapEv
6110:__ZN17LightProbeContext4InitERK16LightmapSettingsRK14RenderSettings
6111:__ZN26LightProbeProxyVolumeUtilsL20FindTetrahedronIndexER9TransformRi
6112:__ZNK9Transform21GetLocalToWorldMatrixEv
6113:__ZL19BlendLightProbesJobP19BlendProbesJobInputj
6114:__Z27CalculateLightOcclusionMaskRK17LightProbeContextRK29LightProbeSamplingCoordinates
6115:__Z31CalculateLightProbeCoefficientsRK17LightProbeContextRK29LightProbeSamplingCoordinates25LightProbeCoefficientTypeR20SphericalHarmonicsL2
6116:__ZN20SphericalHarmonicsL234GetShaderConstantsFromNormalizedSHERKS_R11fixed_arrayI8Vector4fLj7EE
6117:__ZNK16LightmapSettings19AreLightProbesBakedEv
6118:__ZNK16LightmapSettings23HasLightProbeTetrahedraEv
6119:__ZN28LightProbeProxyVolumeManager30ShouldReallocateVolumeTexturesER21LightProbeProxyVolumeP4PPtrI9Texture3DE
6120:__ZN28LightProbeProxyVolumeManager24AllocateVolumeTextureSetER21LightProbeProxyVolumeP4PPtrI9Texture3DEPKc
6121:__ZN9Texture3D11InitTextureEiii13TextureFormatb
6122:__ZN9Texture3DC2E10MemLabelId18ObjectCreationMode
6123:__ZN26LightProbeProxyVolumeUtilsL28ComputeGlobalAABBOnHierarchyER9TransformR10MinMaxAABB
6124:__Z17TransformAABBSlowRK4AABBRK10Matrix4x4fRS_
6125:__ZN21LightProbeProxyVolume18HasHardwareSupportEv
6126:__ZN13RendererScene23UpdatePreviousFrameDataEii
6127:__ZN19RenderBufferManager8Textures14GarbageCollectEi
6128:__ZN19RenderBufferManager7Buffers14GarbageCollectEi
6129:__ZN10UnityScene24ExtractLevelGameManagersER18AwakeFromLoadQueue
6130:__Z23CollectSceneGameObjectsR13dynamic_arrayIiLj0EE
6131:__ZN19RuntimeSceneManager43UnloadAllScenesWithoutDestroyingGameObjectsEv
6132:__Z12CollectPPtrsRK6ObjectRNSt3__23setIiNS2_4lessIiEENS2_9allocatorIiEEEE
6133:__ZN18IDCollectorFunctor18GenerateInstanceIDEi17TransferMetaFlags
6134:__ZN17RemapPPtrTransferC2E24TransferInstructionFlagsb
6135:__ZN17PersistentManager30GetInstanceIDFromPathAndFileIDERKN4core12basic_stringIcNS0_20StringStorageDefaultIcEEEEx
6136:__ZN17PersistentManager27GetLoadErrorMessageFromPathERKN4core12basic_stringIcNS0_20StringStorageDefaultIcEEEE
6137:__ZN17PersistentManager29GetAllFileIDsAndTypesFromPathERKN4core12basic_stringIcNS0_20StringStorageDefaultIcEEEER13dynamic_arrayIxLj0EERS7_IPKN5Unity4TypeELj0EE
6138:__ZN17PersistentManager17GetSerializedFileERKN4core12basic_stringIcNS0_20StringStorageDefaultIcEEEENS_9LockFlagsE
6139:__ZN17PersistentManager26LoadFileCompletelyThreadedERKN4core12basic_stringIcNS0_20StringStorageDefaultIcEEEEPxPiiNS_9LoadFlagsER12LoadProgressNS_9LockFlagsE
6140:__ZN17PersistentManager25ExtractAwakeFromLoadQueueEPKijR18AwakeFromLoadQueueNS_9LockFlagsE
6141:__ZN17PersistentManager31HasMemoryOrCachedSerializedFileERKN4core12basic_stringIcNS0_20StringStorageDefaultIcEEEE
6142:__ZN17PersistentManager12UnloadStreamERKN4core12basic_stringIcNS0_20StringStorageDefaultIcEEEEb
6143:__ZN17PersistentManager13GetAllFileIDsERKN4core12basic_stringIcNS0_20StringStorageDefaultIcEEEER13dynamic_arrayIxLj0EE
6144:__ZNK14SerializedFile13GetAllFileIDsER13dynamic_arrayIxLj0EE
6145:__ZN10UnitySceneD2Ev
6146:__ZN11PreloadDataD2Ev
6147:__ZN11PreloadDataD0Ev
6148:__ZNK11PreloadData22GetTypeVirtualInternalEv
6149:__ZN11PreloadData23VirtualRedirectTransferER19StreamedBinaryWrite
6150:__ZN11PreloadData23VirtualRedirectTransferER18StreamedBinaryRead
6151:__ZN11PreloadData23VirtualRedirectTransferER17RemapPPtrTransfer
6152:__ZN11PreloadData23VirtualRedirectTransferER24GenerateTypeTreeTransfer
6153:__ZN11PreloadData23VirtualRedirectTransferER14SafeBinaryRead
6154:__ZN11PreloadData8TransferI14SafeBinaryReadEEvRT_
6155:__ZN11PreloadData8TransferI24GenerateTypeTreeTransferEEvRT_
6156:__ZN11PreloadData8TransferI19StreamedBinaryWriteEEvRT_
6157:__ZN27UnloadUnusedAssetsOperationD0Ev
6158:__ZN27UnloadUnusedAssetsOperation7PerformEv
6159:__ZN27UnloadUnusedAssetsOperation19IntegrateMainThreadEv
6160:__Z26GarbageCollectSharedAssetsbb
6161:__Z20MarkInstanceIDAsRootiR21GarbageCollectorState
6162:__ZL30RegisterFilteredObjectCallbackPP12Il2CppObjectiPv
6163:__ZL14OnWorldStartedv
6164:__Z16MarkDependenciesR27GarbageCollectorThreadStatej
6165:__Z25BatchDeleteObjectInternalPKii
6166:__ZN13MonoBehaviour26WillUnloadScriptableObjectEv
6167:__ZN19ScriptingInvocation28AdjustArgumentsToMatchMethodEv
6168:__ZN19ScriptingInvocation13InvokeCheckedEP21ScriptingExceptionPtr
6169:__ZN18ScriptingArguments27CheckArgumentsAgainstMethodE18ScriptingMethodPtr
6170:__ZN18ScriptingArguments28AdjustArgumentsToMatchMethodE18ScriptingMethodPtr
6171:__ZNK10GameObject38MarkGameObjectAndComponentDependenciesER27GarbageCollectorThreadState
6172:__ZNK5Unity9Component38MarkGameObjectAndComponentDependenciesER27GarbageCollectorThreadState
6173:__ZNK8Material16MarkDependenciesER27GarbageCollectorThreadState
6174:__Z40scripting_liveness_calculation_from_root18ScriptingObjectPtrPv
6175:__ZN9Scripting16GetInstanceIDForE18ScriptingObjectPtr
6176:__ZN17PersistentManager21UnloadNonDirtyStreamsEv
6177:__ZN22MemoryCacherReadBlocks14LockCacheBlockEjPPhS1_
6178:__ZN22MemoryCacherReadBlocks11GetPathNameEv
6179:__ZN22MemoryCacherReadBlocks18GetAddressOfMemoryEv
6180:__ZN15CacheWriterBase23WriteHeaderAndCloseFileEPvjj
6181:__ZN15CacheWriterBase18GetAddressOfMemoryEv
6182:__ZN19ComputeShaderKernelD2Ev
6183:__ZN13ComputeShader20GetCompatibleVariantE17GfxDeviceRendereri
6184:__ZN13dynamic_arrayI20ComputeShaderVariantLj0EE9push_backERKS0_
6185:__ZN13dynamic_arrayI19ComputeShaderKernelLj0EE6assignEPKS0_S3_
6186:__ZN13dynamic_arrayI15ComputeShaderCBLj0EE6assignEPKS0_S3_
6187:__ZN19ComputeShaderKernelC2ERKS_
6188:__ZN12ScriptMapperD2Ev
6189:__ZN12ScriptMapperD0Ev
6190:__ZNK12ScriptMapper22GetTypeVirtualInternalEv
6191:__ZN12ScriptMapper23VirtualRedirectTransferER19StreamedBinaryWrite
6192:__ZN12ScriptMapper23VirtualRedirectTransferER18StreamedBinaryRead
6193:__ZN12ScriptMapper23VirtualRedirectTransferER17RemapPPtrTransfer
6194:__ZN12ScriptMapper23VirtualRedirectTransferER24GenerateTypeTreeTransfer
6195:__ZN12ScriptMapper23VirtualRedirectTransferER14SafeBinaryRead
6196:__ZN14SafeBinaryRead22TransferWithTypeStringI12ScriptMapperEEvRT_PKcS5_17TransferMetaFlags
6197:__ZN14SafeBinaryRead8TransferI15NameToObjectMapI6ShaderNSt3__23mapI4PPtrIS2_EN4core12basic_stringIcNS7_20StringStorageDefaultIcEEEENS3_4lessIS6_EENS3_9allocatorINS3_4pairIKS6_SB_EEEEEENS3_8multimapISB_S6_NSC_ISB_EENSE_INSF_IKSB_S6_EEEEEEEEEvRT_PKc17TransferMetaFlags
6198:__ZN14SafeBinaryRead19TransferSTLStyleMapINSt3__23mapI4PPtrI6ShaderEN4core12basic_stringIcNS6_20StringStorageDefaultIcEEEENS1_4lessIS5_EENS1_9allocatorINS1_4pairIKS5_SA_EEEEEEEEvRT_17TransferMetaFlags
6199:__ZN15NameToObjectMapI6ShaderNSt3__23mapI4PPtrIS0_EN4core12basic_stringIcNS5_20StringStorageDefaultIcEEEENS1_4lessIS4_EENS1_9allocatorINS1_4pairIKS4_S9_EEEEEENS1_8multimapIS9_S4_NSA_IS9_EENSC_INSD_IKS9_S4_EEEEEEE7RebuildEv
6200:__ZNSt3__26__treeINS_12__value_typeIN4core12basic_stringIcNS2_20StringStorageDefaultIcEEEE4PPtrI6ShaderEEENS_19__map_value_compareIS6_SA_NS_4lessIS6_EELb1EEENS_9allocatorISA_EEE7destroyEPNS_11__tree_nodeISA_PvEE
6201:__ZNSt3__26__treeINS_12__value_typeIN4core12basic_stringIcNS2_20StringStorageDefaultIcEEEE4PPtrI6ShaderEEENS_19__map_value_compareIS6_SA_NS_4lessIS6_EELb1EEENS_9allocatorISA_EEE15__emplace_multiIJNS_4pairIS6_S9_EEEEENS_15__tree_iteratorISA_PNS_11__tree_nodeISA_PvEEiEEDpOT_
6202:__ZNSt3__26__treeINS_12__value_typeI4PPtrI6ShaderEN4core12basic_stringIcNS5_20StringStorageDefaultIcEEEEEENS_19__map_value_compareIS4_SA_NS_4lessIS4_EELb1EEENS_9allocatorISA_EEE7destroyEPNS_11__tree_nodeISA_PvEE
6203:__ZN15SerializeTraitsINSt3__24pairI4PPtrI6ShaderEN4core12basic_stringIcNS5_20StringStorageDefaultIcEEEEEEE8TransferI14SafeBinaryReadEEvRSA_RT_
6204:__ZNSt3__26__treeINS_12__value_typeI4PPtrI6ShaderEN4core12basic_stringIcNS5_20StringStorageDefaultIcEEEEEENS_19__map_value_compareIS4_SA_NS_4lessIS4_EELb1EEENS_9allocatorISA_EEE25__emplace_unique_key_argsIS4_JRNS_4pairIS4_S9_EEEEENSJ_INS_15__tree_iteratorISA_PNS_11__tree_nodeISA_PvEEiEEbEERKT_DpOT0_
6205:__ZN12ScriptMapper8TransferI24GenerateTypeTreeTransferEEvRT_
6206:__ZN24GenerateTypeTreeTransfer8TransferINSt3__23mapI4PPtrI6ShaderEN4core12basic_stringIcNS6_20StringStorageDefaultIcEEEENS1_4lessIS5_EENS1_9allocatorINS1_4pairIKS5_SA_EEEEEEEEvRT_PKc17TransferMetaFlags
6207:__ZN15SerializeTraitsINSt3__24pairI4PPtrI6ShaderEN4core12basic_stringIcNS5_20StringStorageDefaultIcEEEEEEE8TransferI24GenerateTypeTreeTransferEEvRSA_RT_
6208:__ZN18StreamedBinaryRead19TransferSTLStyleMapINSt3__23mapI4PPtrI6ShaderEN4core12basic_stringIcNS6_20StringStorageDefaultIcEEEENS1_4lessIS5_EENS1_9allocatorINS1_4pairIKS5_SA_EEEEEEEEvRT_17TransferMetaFlags
6209:__ZN8keywords18KeywordSetToStringERK16ShaderKeywordSetRN4core12basic_stringIcNS3_20StringStorageDefaultIcEEEE
6210:__ZN8keywords24KeywordSetToKeywordNamesERK16ShaderKeywordSetRNSt3__26vectorIN4core12basic_stringIcNS5_20StringStorageDefaultIcEEEENS3_9allocatorIS9_EEEE
6211:__ZL26KeywordSetToStringDontSortRKNSt3__26vectorIN4core12basic_stringIcNS1_20StringStorageDefaultIcEEEENS_9allocatorIS5_EEEERS5_
6212:__ZN2UI13RectTransformD2Ev
6213:__ZN2UI13RectTransformD0Ev
6214:__ZN9Transform17MainThreadCleanupEv
6215:__ZN2UI13RectTransform13AwakeFromLoadE17AwakeFromLoadMode
6216:__ZN9Transform16CheckConsistencyEv
6217:__ZN2UI13RectTransform5ResetEv
6218:__ZN2UI13RectTransform10SmartResetEv
6219:__ZNK2UI13RectTransform22GetTypeVirtualInternalEv
6220:__ZN2UI13RectTransform23VirtualRedirectTransferER19StreamedBinaryWrite
6221:__ZN2UI13RectTransform23VirtualRedirectTransferER18StreamedBinaryRead
6222:__ZN2UI13RectTransform23VirtualRedirectTransferER17RemapPPtrTransfer
6223:__ZN2UI13RectTransform23VirtualRedirectTransferER24GenerateTypeTreeTransfer
6224:__ZN2UI13RectTransform23VirtualRedirectTransferER14SafeBinaryRead
6225:__ZN2UI13RectTransform10DeactivateE19DeactivateOperation
6226:__ZN2UI13RectTransform16ResetReplacementEv
6227:__ZN9Transform19BroadcastMessageAnyERK17MessageIdentifierR11MessageData
6228:__ZN2UI13RectTransform8TransferI14SafeBinaryReadEEvRT_
6229:__ZN9Transform8TransferI14SafeBinaryReadEEvRT_
6230:__ZN9Transform25CompleteTransformTransferI14SafeBinaryReadEEvRT_
6231:__ZN14SafeBinaryRead21TransferSTLStyleArrayI13dynamic_arrayI12ImmediatePtrI9TransformELj0EEEEvRT_17TransferMetaFlags
6232:__ZN12ImmediatePtrI9TransformE8TransferI14SafeBinaryReadEEvRT_
6233:__ZN2UI13RectTransform8TransferI24GenerateTypeTreeTransferEEvRT_
6234:__ZN9Transform8TransferI24GenerateTypeTreeTransferEEvRT_
6235:__ZN9Transform25CompleteTransformTransferI24GenerateTypeTreeTransferEEvRT_
6236:__ZN9Transform25CompleteTransformTransferI17RemapPPtrTransferEEvRT_
6237:__ZN2UI13RectTransform8TransferI18StreamedBinaryReadEEvRT_
6238:__ZN9Transform8TransferI18StreamedBinaryReadEEvRT_
6239:__ZN18StreamedBinaryRead21TransferSTLStyleArrayI13dynamic_arrayI12ImmediatePtrI9TransformELj0EEEEvRT_17TransferMetaFlags
6240:__ZN12ImmediatePtrI9TransformE8TransferI18StreamedBinaryReadEEvRT_
6241:__ZN2UI13RectTransform8TransferI19StreamedBinaryWriteEEvRT_
6242:__ZN9Transform28ApplyRuntimeToSerializedDataEv
6243:__ZN9Transform8TransferI19StreamedBinaryWriteEEvRT_
6244:__ZN2UI13RectTransform12SetSizeDeltaERK8Vector2f
6245:__ZN2UI13RectTransform8SetPivotERK8Vector2f
6246:__ZN2UI13RectTransform38UpdateAnchorPositionIfTransformChangedEb
6247:__ZN2UI13RectTransform25UpdatePosAndRectRecursiveEbPK5RectTIfE
6248:__ZN2UI13RectTransform16UpdatePosAndRectEb
6249:__ZNK9Transform16GetLocalPositionEv
6250:__ZNK2UI13RectTransform23CalculateLocalPosition2Ev
6251:__ZN9Transform39SetLocalPositionIgnoringSpecificSystemsERKN4math7_float3Ey
6252:__ZN9Transform12QueueChangesEv
6253:__ZNK2UI13RectTransform26CalculateRectInParentSpaceEv
6254:__ZN2UI13RectTransform19UpdateRectTransformEPS0_b
6255:__ZN2UI13RectTransform19SetAnchoredPositionERK8Vector2f
6256:__ZN9Transform5ResetEv
6257:__ZN9Transform13AwakeFromLoadE17AwakeFromLoadMode
6258:__ZNK9Transform22GetTypeVirtualInternalEv
6259:__ZN9Transform23VirtualRedirectTransferER19StreamedBinaryWrite
6260:__ZN9Transform23VirtualRedirectTransferER18StreamedBinaryRead
6261:__ZN9Transform23VirtualRedirectTransferER24GenerateTypeTreeTransfer
6262:__ZN9Transform23VirtualRedirectTransferER14SafeBinaryRead
6263:__Z19UnsignedIntToStringj
6264:__Z30CreateBoxedObjectFromPrimitivei
6265:__Z11StringToIntRKN4core16basic_string_refIcEE
6266:__ZN16DiagnosticSwitchIN4core12basic_stringIcNS0_20StringStorageDefaultIcEEEEE18SetValueFromStringEPKc
6267:__ZN16DiagnosticSwitchIN4core12basic_stringIcNS0_20StringStorageDefaultIcEEEEE20ApplyPersistentValueEv
6268:__ZN16DiagnosticSwitchIN4core12basic_stringIcNS0_20StringStorageDefaultIcEEEEE20CollectScriptingInfoERN20DiagnosticSwitchBase13ScriptingInfoE
6269:__ZN16DiagnosticSwitchIN4core12basic_stringIcNS0_20StringStorageDefaultIcEEEEE24UpdateFromScriptingValueE18ScriptingObjectPtrb
6270:__Z20scripting_string_newPKcj
6271:__ZN11PlayerPrefs9SetStringERKN4core12basic_stringIcNS0_20StringStorageDefaultIcEEEES6_
6272:__ZL12SetPrefValueRKN4core12basic_stringIcNS_20StringStorageDefaultIcEEEERK9PrefValue
6273:__ZN11PlayerPrefs4SyncEv
6274:__ZN4File5WriteEPKvj
6275:__ZL11EncodeValueRK9PrefValue
6276:__ZN4FileD2Ev
6277:__ZN12FileAccessor5WriteEyPKvPy
6278:__ZN4FileC2Ev
6279:__ZN11PlayerPrefs9GetStringERKN4core12basic_stringIcNS0_20StringStorageDefaultIcEEEES6_
6280:__ZNK15Lz4Decompressor16DecompressMemoryEPKvPjPvS2_
6281:__ZNK15Lz4Decompressor16DecompressStreamEPvPKvPjS0_S3_b
6282:_UNITY_LZ4_decompress_safe
6283:__ZN22LocalFileSystemHandler18IsAbsoluteFilePathEPKc
6284:__ZN22LocalFileSystemHandler19InitializeFileEntryER13FileEntryData
6285:__ZN22LocalFileSystemHandler4NameEv
6286:__ZNK17FileSystemHandler10IsReadOnlyERK13FileEntryData
6287:__ZN17FileSystemHandler11MoveToTrashER13FileEntryData
6288:__ZN17FileSystemHandler11SetReadOnlyER13FileEntryDatab
6289:__ZNK17FileSystemHandler12GetAssetGUIDERK13FileEntryData
6290:__ZN22LocalFileSystemHandler9MakeLocalER13FileEntryDatab
6291:__ZNK22LocalFileSystemHandler7ToLocalERK13FileEntryDataRN4core12basic_stringIcNS3_20StringStorageDefaultIcEEEERyS9_
6292:__ZNK17FileSystemHandler31CreateFileWithContentAtomicallyERK13FileEntryDataPKvy
6293:__ZNK22LocalFileSystemHandler13ToLogicalPathERKN4core12basic_stringIcNS0_20StringStorageDefaultIcEEEE
6294:__ZNK22LocalFileSystemHandler17GetExecutablePathEv
6295:__ZN18ScriptingArguments8AddArrayE17ScriptingArrayPtr
6296:__ZN18ScriptingArguments6AddIntEi
6297:__ZN18ScriptingArguments8AddInt64Ex
6298:__ZN12HandlerChainD2Ev
6299:__ZN12HandlerChainD0Ev
6300:__ZN12HandlerChain4OpenER13FileEntryData14FilePermission16FileAutoBehavior
6301:__ZN12HandlerChain4ReadER13FileEntryDatayyPvPy
6302:__ZN12HandlerChain4ReadER13FileEntryDatayPvPy
6303:__ZN12HandlerChain4SeekER13FileEntryDatax10FileOrigin
6304:__ZNK12HandlerChain8PositionERK13FileEntryData
6305:__ZN12HandlerChain9SetLengthER13FileEntryDatay
6306:__ZNK12HandlerChain4SizeERK13FileEntryData
6307:__ZNK12HandlerChain9CanHandleEPKc
6308:__ZN12HandlerChain10ToAbsoluteEPKc
6309:__ZN12HandlerChain18IsAbsoluteFilePathEPKc
6310:__ZN12HandlerChain4NameEv
6311:__ZNK12HandlerChain6ParentERK13FileEntryDataRN4core12basic_stringIcNS3_20StringStorageDefaultIcEEEE
6312:__ZNK12HandlerChain8FilenameERK13FileEntryData
6313:__ZNK12HandlerChain5IsDirERK13FileEntryData
6314:__ZNK12HandlerChain8IsHiddenERK13FileEntryData
6315:__ZNK12HandlerChain9IsSymLinkERK13FileEntryData
6316:__ZNK12HandlerChain12LastModifiedERK13FileEntryData
6317:__ZN12HandlerChain8IsLockedERK13FileEntryData
6318:__ZN12HandlerChain11HasFastHashERK13FileEntryDataR7Hash128
6319:__ZN12HandlerChain8SetFlagsER13FileEntryDatajj
6320:__ZN12HandlerChain12CreateAsFileER13FileEntryData
6321:__ZN12HandlerChain11CreateAsDirER13FileEntryData
6322:__ZN12HandlerChain6DeleteER13FileEntryDatab
6323:__ZN12HandlerChain11MoveToTrashER13FileEntryData
6324:__ZNK12HandlerChain6TargetERK13FileEntryDataR15FileSystemEntry
6325:__ZN12HandlerChain4LockER13FileEntryData12FileLockMode
6326:__ZN12HandlerChain4CopyER13FileEntryDataS1_
6327:__ZN12HandlerChain10AtomicMoveER13FileEntryDataS1_
6328:__ZNK12HandlerChain12GetAssetGUIDERK13FileEntryData
6329:__ZN12HandlerChain9MakeLocalER13FileEntryDatab
6330:__ZNK12HandlerChain7ToLocalERK13FileEntryDataRN4core12basic_stringIcNS3_20StringStorageDefaultIcEEEERyS9_
6331:__ZNK12HandlerChain9EnumerateEPKcP19dynamic_block_arrayI13FileEntryInfoLj32EEbPPv19FileEnumerationFlag
6332:__ZNK12HandlerChain6ExistsERK13FileEntryData
6333:__ZN20LocalFileSystemPosixD2Ev
6334:__ZN20LocalFileSystemPosixD0Ev
6335:__ZN20LocalFileSystemPosix4OpenER13FileEntryData14FilePermission16FileAutoBehavior
6336:__ZN20LocalFileSystemPosix4ReadER13FileEntryDatayyPvPy
6337:__ZN20LocalFileSystemPosix4ReadER13FileEntryDatayPvPy
6338:__ZN20LocalFileSystemPosix5WriteER13FileEntryDatayyPvPy
6339:__ZN20LocalFileSystemPosix5WriteER13FileEntryDatayPvPy
6340:__ZN20LocalFileSystemPosix5CloseER13FileEntryData
6341:__ZN20LocalFileSystemPosix4SeekER13FileEntryDatax10FileOrigin
6342:__ZNK20LocalFileSystemPosix8PositionERK13FileEntryData
6343:__ZN20LocalFileSystemPosix9SetLengthER13FileEntryDatay
6344:__ZNK20LocalFileSystemPosix4SizeERK13FileEntryData
6345:__ZN20LocalFileSystemPosix10ToAbsoluteEPKc
6346:__ZNK20LocalFileSystemPosix6ParentERK13FileEntryDataRN4core12basic_stringIcNS3_20StringStorageDefaultIcEEEE
6347:__ZNK20LocalFileSystemPosix8FilenameERK13FileEntryData
6348:__ZNK20LocalFileSystemPosix5IsDirERK13FileEntryData
6349:__ZNK20LocalFileSystemPosix9IsSymLinkERK13FileEntryData
6350:__ZNK20LocalFileSystemPosix10IsReadOnlyERK13FileEntryData
6351:__ZNK20LocalFileSystemPosix12LastModifiedERK13FileEntryData
6352:__ZN20LocalFileSystemPosix8IsLockedERK13FileEntryData
6353:__ZN20LocalFileSystemPosix8SetFlagsER13FileEntryDatajj
6354:__ZN20LocalFileSystemPosix12CreateAsFileER13FileEntryData
6355:__ZN20LocalFileSystemPosix11CreateAsDirER13FileEntryData
6356:__ZN20LocalFileSystemPosix6DeleteER13FileEntryDatab
6357:__ZNK20LocalFileSystemPosix6TargetERK13FileEntryDataR15FileSystemEntry
6358:__ZN20LocalFileSystemPosix4LockER13FileEntryData12FileLockMode
6359:__ZN20LocalFileSystemPosix11SetReadOnlyER13FileEntryDatab
6360:__ZN20LocalFileSystemPosix4CopyER13FileEntryDataS1_
6361:__ZN20LocalFileSystemPosix10AtomicMoveER13FileEntryDataS1_
6362:__ZNK20LocalFileSystemPosix9EnumerateEPKcP19dynamic_block_arrayI13FileEntryInfoLj32EEbPPv19FileEnumerationFlag
6363:__ZN20LocalFileSystemPosix5TouchER13FileEntryData
6364:__ZNK20LocalFileSystemPosix6ExistsERK13FileEntryData
6365:__ZNK20LocalFileSystemPosix18GetApplicationPathEv
6366:__ZNK20LocalFileSystemPosix20GetApplicationFolderEv
6367:__ZNK20LocalFileSystemPosix25GetApplicationManagedPathEv
6368:__ZNK20LocalFileSystemPosix26GetApplicationContentsPathEv
6369:__ZNK20LocalFileSystemPosix21GetUserAppCacheFolderEv
6370:__ZNK20LocalFileSystemPosix20GetUserAppDataFolderEv
6371:__ZNK20LocalFileSystemPosix19GetUserConfigFolderEv
6372:__ZNK20LocalFileSystemPosix21GetAvailableDiskSpaceEPKcRy
6373:__Z18IsDirectoryCreatedRKN4core12basic_stringIcNS_20StringStorageDefaultIcEEEE
6374:__ZNK15FileSystemEntry12FolderExistsEv
6375:__Z15CreateDirectoryRKN4core12basic_stringIcNS_20StringStorageDefaultIcEEEE
6376:__ZNK10FileSystem16CurrentDirectoryEv
6377:__Z27DeleteLastPathNameComponentRKN4core12basic_stringIcNS_20StringStorageDefaultIcEEEE
6378:__ZL31DeleteLastPathNameComponentImplRKN4core12basic_stringIcNS_20StringStorageDefaultIcEEEEPKc
6379:__Z8EndsWithPKcjS0_j
6380:__Z23EndsWithCaseInsensitivePKcjS0_j
6381:__ZN19dynamic_block_arrayI13FileEntryInfoLj32EE4growEj
6382:__ZN12FileAccessor4OpenEPKc14FilePermission16FileAutoBehavior
6383:__ZNK12FileAccessor4SizeEv
6384:__Z23GetFolderContentsAtPathRKN4core12basic_stringIcNS_20StringStorageDefaultIcEEEERNSt3__23setIS3_NS6_4lessIS3_EENS6_9allocatorIS3_EEEE22FolderContentsPathModeS5_
6385:__Z22IsFileOrDirectoryInUseRKN4core12basic_stringIcNS_20StringStorageDefaultIcEEEE
6386:__ZNSt3__26__treeIN4core12basic_stringIcNS1_20StringStorageDefaultIcEEEENS_4lessIS5_EENS_9allocatorIS5_EEE7destroyEPNS_11__tree_nodeIS5_PvEE
6387:__ZN13FileEntryDataC2ERKS_
6388:__Z23GetFolderContentsAtPathRKN4core12basic_stringIcNS_20StringStorageDefaultIcEEEE19FileEnumerationFlagRNSt3__23setIS3_NS7_4lessIS3_EENS7_9allocatorIS3_EEEE22FolderContentsPathModeS5_
6389:__ZNK10FileSystem9EnumerateEPKcP19dynamic_block_arrayI13FileEntryInfoLj32EEb19FileEnumerationFlag
6390:__ZL33FileEntryInfoListToFolderContentsRKN4core12basic_stringIcNS_20StringStorageDefaultIcEEEERK19dynamic_block_arrayI13FileEntryInfoLj32EERNSt3__23setIS3_NSB_4lessIS3_EENSB_9allocatorIS3_EEEE
6391:__ZL41FileEntryInfoListToFolderContentsAbsoluteRK19dynamic_block_arrayI13FileEntryInfoLj32EERNSt3__23setIN4core12basic_stringIcNS6_20StringStorageDefaultIcEEEENS4_4lessISA_EENS4_9allocatorISA_EEEE
6392:__ZNSt3__26__treeIN4core12basic_stringIcNS1_20StringStorageDefaultIcEEEENS_4lessIS5_EENS_9allocatorIS5_EEE25__emplace_unique_key_argsIS5_JS5_EEENS_4pairINS_15__tree_iteratorIS5_PNS_11__tree_nodeIS5_PvEEiEEbEERKT_DpOT0_
6393:__Z14SkipPathPrefixPKcS0_jb
6394:__Z7StrNCmpPKcS0_j
6395:__ZN17ArchiveFileSystemD2Ev
6396:__ZN17ArchiveFileSystemD0Ev
6397:__ZN17ArchiveFileSystem4OpenER13FileEntryData14FilePermission16FileAutoBehavior
6398:__ZN17ArchiveFileSystem4ReadER13FileEntryDatayyPvPy
6399:__ZN17ArchiveFileSystem4ReadER13FileEntryDatayPvPy
6400:__ZN17ArchiveFileSystem5WriteER13FileEntryDatayyPvPy
6401:__ZN17ArchiveFileSystem5WriteER13FileEntryDatayPvPy
6402:__ZN17ArchiveFileSystem5CloseER13FileEntryData
6403:__ZN17ArchiveFileSystem4SeekER13FileEntryDatax10FileOrigin
6404:__ZNK17ArchiveFileSystem8PositionERK13FileEntryData
6405:__ZNK17ArchiveFileSystem4SizeERK13FileEntryData
6406:__ZNK17ArchiveFileSystem9CanHandleEPKc
6407:__ZN17ArchiveFileSystem10ToAbsoluteEPKc
6408:__ZN17ArchiveFileSystem4NameEv
6409:__ZNK17ArchiveFileSystem6ParentERK13FileEntryDataRN4core12basic_stringIcNS3_20StringStorageDefaultIcEEEE
6410:__ZNK17ArchiveFileSystem8FilenameERK13FileEntryData
6411:__ZNK17ArchiveFileSystem5IsDirERK13FileEntryData
6412:__ZNK17ArchiveFileSystem12LastModifiedERK13FileEntryData
6413:__ZNK17ArchiveFileSystem7ToLocalERK13FileEntryDataRN4core12basic_stringIcNS3_20StringStorageDefaultIcEEEERyS9_
6414:__ZNK17ArchiveFileSystem9EnumerateEPKcP19dynamic_block_arrayI13FileEntryInfoLj32EEbPPv19FileEnumerationFlag
6415:__ZNK17ArchiveFileSystem6ExistsERK13FileEntryData
6416:__ZNK17ArchiveFileSystem14FindItemByPathEPKc
6417:__ZN19dynamic_block_arrayI13FileEntryInfoLj32EE26emplace_back_uninitializedEv
6418:__ZNK20ArchiveStorageReader7ToLocalERKN20ArchiveStorageHeader4NodeERN4core12basic_stringIcNS4_20StringStorageDefaultIcEEEERySA_
6419:__ZN20ArchiveStorageReader15MakeStorageUsedEv
6420:__ZN15ArchiveReadFileD2Ev
6421:__ZN15ArchiveReadFileD0Ev
6422:__ZNK15ArchiveReadFile6IsOpenEv
6423:__ZN15ArchiveReadFile5CloseEv
6424:__ZN15ArchiveReadFile4ReadEyyPvPy
6425:__ZN15ArchiveReadFile4ReadEyPvPy
6426:__ZN15ArchiveReadFile5WriteEyyPKvPy
6427:__ZN15ArchiveReadFile5WriteEyPKvPy
6428:__ZN15ArchiveReadFile4SeekEx10FileOrigin
6429:__ZNK15ArchiveReadFile8PositionEv
6430:__ZN15ArchiveReadFile9SetLengthEy
6431:__ZNK15ArchiveReadFile4SizeEv
6432:__ZN20ArchiveStorageReader4ReadEyyPvPy
6433:__ZN20ArchiveStorageReader17ReadCompleteBlockEjPvPy
6434:__ZN20ArchiveStorageReader9ReadBlockEjyyPvPy
6435:__ZN20ArchiveStorageReader31TryToReadDirectoryFromBlockDataEyPKvj
6436:__ZN20ArchiveStorageReader28TryReadDirectoryInfoFromFileEP5IFile
6437:__ZN25MultiBlocksMemoryFileDataC2E10MemLabelIdj
6438:__ZN25MultiBlocksMemoryFileDataD2Ev
6439:__ZN25MultiBlocksMemoryFileDataD0Ev
6440:__ZN25MultiBlocksMemoryFileData4LockEPPv
6441:__ZN25MultiBlocksMemoryFileData6UnlockEPv
6442:__ZNK25MultiBlocksMemoryFileData4ReadEyyPv
6443:__ZN25MultiBlocksMemoryFileData5WriteEyyPKv
6444:__ZN25MultiBlocksMemoryFileData9SetLengthEy
6445:__ZNK25MultiBlocksMemoryFileData4SizeEv
6446:__ZNK25MultiBlocksMemoryFileData5CloneEv
6447:__ZN25MultiBlocksMemoryFileData17AdjustBlocksCountEj
6448:__ZN12FileAccessor4SeekEx10FileOrigin
6449:__ZN20ArchiveStorageHeader17ReadDirectoryInfoER12FileAccessorRKNS_6HeaderERNS_13DirectoryInfoE
6450:__Z37ReadDirectoryInfo_UnityWebAndUnityRawR12FileAccessorRKN20ArchiveStorageHeader6HeaderERNS1_13DirectoryInfoE
6451:__ZNSt3__26vectorIN20ArchiveStorageHeader4NodeE13stl_allocatorIS2_L18MemLabelIdentifier55ELi16EEE8__appendEj
6452:__Z20GetPathNameExtensionRKN4core12basic_stringIcNS_20StringStorageDefaultIcEEEE
6453:__ZN12IFileAdapter4OpenER13FileEntryData14FilePermission16FileAutoBehavior
6454:__ZN12IFileAdapter4ReadER13FileEntryDatayyPvPy
6455:__ZN12IFileAdapter4ReadER13FileEntryDatayPvPy
6456:__ZN12IFileAdapter5WriteER13FileEntryDatayPvPy
6457:__ZN12IFileAdapter5CloseER13FileEntryData
6458:__ZN12IFileAdapter4SeekER13FileEntryDatax10FileOrigin
6459:__ZNK12IFileAdapter8PositionERK13FileEntryData
6460:__ZN12IFileAdapter9SetLengthER13FileEntryDatay
6461:__ZNK12IFileAdapter4SizeERK13FileEntryData
6462:__ZN10MemoryFileC2E10MemLabelIdP14MemoryFileData14FilePermission
6463:__ZN10MemoryFileD2Ev
6464:__ZN10MemoryFileD0Ev
6465:__ZN10MemoryFile5CloseEv
6466:__ZN10MemoryFile4ReadEyyPvPy
6467:__ZN10MemoryFile5WriteEyyPKvPy
6468:__ZN10MemoryFile5WriteEyPKvPy
6469:__ZN10MemoryFile4SeekEx10FileOrigin
6470:__ZN10MemoryFile9SetLengthEy
6471:__ZNK10MemoryFile4SizeEv
6472:__ZN25SingleBlockMemoryFileDataC2E10MemLabelIdPvjb
6473:__ZN25SingleBlockMemoryFileDataD2Ev
6474:__ZN25SingleBlockMemoryFileDataD0Ev
6475:__ZN25SingleBlockMemoryFileData4LockEPPv
6476:__ZNK25SingleBlockMemoryFileData4ReadEyyPv
6477:__ZN25SingleBlockMemoryFileData5WriteEyyPKv
6478:__ZN25SingleBlockMemoryFileData9SetLengthEy
6479:__ZNK25SingleBlockMemoryFileData4SizeEv
6480:__ZNK25SingleBlockMemoryFileData5CloneEv
6481:__ZN20ArchiveStorageReader15ReadFromStorageEyyPvPy
6482:__ZN20ArchiveStorageReader18AcquireCachedBlockEjj
6483:__ZN20ArchiveStorageReader28AcquireAndPrefillUnusedBlockEjPNS_11CacheResultE
6484:__ZN20ArchiveStorageReader21FillStreamCachedBlockEPNS_11CachedBlockEy
6485:__Z18CreateDecompressor15CompressionType10MemLabelId
6486:__ZN20ArchiveStorageReader17ReinitCachedBlockEPNS_11CachedBlockEj
6487:__ZN20ArchiveStorageReader20FillChunkCachedBlockEPNS_11CachedBlockE
6488:__ZN20ArchiveStorageReader17MakeStorageUnusedEv
6489:__ZNSt3__26__treeINS_12__value_typeIN4core12basic_stringIcNS2_20StringStorageDefaultIcEEEEN17ArchiveFileSystem11ArchiveItemEEENS_19__map_value_compareIS6_S9_NS_4lessIS6_EELb1EEE13stl_allocatorIS9_L18MemLabelIdentifier55ELi16EEE7destroyEPNS_11__tree_nodeIS9_PvEE
6490:__ZNSt3__26__treeINS_12__value_typeIPKvNS_4pairIjP20ArchiveStorageReaderEEEENS_19__map_value_compareIS3_S8_NS_4lessIS3_EELb1EEENS_9allocatorIS8_EEE7destroyEPNS_11__tree_nodeIS8_PvEE
6491:__ZN20ArchiveStorageReaderD2Ev
6492:__ZN20ArchiveStorageReaderD0Ev
6493:__ZN16MemoryFileSystemD2Ev
6494:__ZN16MemoryFileSystemD0Ev
6495:__ZN16MemoryFileSystem4OpenER13FileEntryData14FilePermission16FileAutoBehavior
6496:__ZN16MemoryFileSystem5CloseER13FileEntryData
6497:__ZN16MemoryFileSystem9SetLengthER13FileEntryDatay
6498:__ZNK16MemoryFileSystem4SizeERK13FileEntryData
6499:__ZNK16MemoryFileSystem9CanHandleEPKc
6500:__ZN16MemoryFileSystem10ToAbsoluteEPKc
6501:__ZN16MemoryFileSystem18IsAbsoluteFilePathEPKc
6502:__ZN16MemoryFileSystem4NameEv
6503:__ZNK16MemoryFileSystem6ParentERK13FileEntryDataRN4core12basic_stringIcNS3_20StringStorageDefaultIcEEEE
6504:__ZNK16MemoryFileSystem8FilenameERK13FileEntryData
6505:__ZNK16MemoryFileSystem5IsDirERK13FileEntryData
6506:__ZNK16MemoryFileSystem8IsHiddenERK13FileEntryData
6507:__ZNK16MemoryFileSystem12LastModifiedERK13FileEntryData
6508:__ZN16MemoryFileSystem8IsLockedERK13FileEntryData
6509:__ZN16MemoryFileSystem8SetFlagsER13FileEntryDatajj
6510:__ZN16MemoryFileSystem12CreateAsFileER13FileEntryData
6511:__ZN16MemoryFileSystem11CreateAsDirER13FileEntryData
6512:__ZN16MemoryFileSystem6DeleteER13FileEntryDatab
6513:__ZN16MemoryFileSystem4CopyER13FileEntryDataS1_
6514:__ZN16MemoryFileSystem10AtomicMoveER13FileEntryDataS1_
6515:__ZNK16MemoryFileSystem9EnumerateEPKcP19dynamic_block_arrayI13FileEntryInfoLj32EEbPPv19FileEnumerationFlag
6516:__ZNK16MemoryFileSystem6ExistsERK13FileEntryData
6517:__ZNK16MemoryFileSystem8FindNodeEPKc
6518:__ZNK16MemoryFileSystem30GetRelativeCaseInsensitivePathEPKcRN4core12basic_stringIcNS2_20StringStorageDefaultIcEEEE
6519:__Z14StartsWithPathIN4core12basic_stringIcNS0_20StringStorageDefaultIcEEEES4_EbRKT_RKT0_
6520:__ZN16MemoryFileSystem8FindNodeEPKc
6521:__Z22ReplaceDirectoryInPathRKN4core12basic_stringIcNS_20StringStorageDefaultIcEEEES5_S5_
6522:__ZN16MemoryFileSystem16FindNodeOrCreateEPKcb
6523:__ZNSt3__26__treeINS_12__value_typeIN4core12basic_stringIcNS2_20StringStorageDefaultIcEEEEPN16MemoryFileSystem4NodeEEENS_19__map_value_compareIS6_SA_NS_4lessIS6_EELb1EEE13stl_allocatorISA_L18MemLabelIdentifier55ELi16EEE25__emplace_unique_key_argsIS6_JNS_4pairIKS6_S9_EEEEENSK_INS_15__tree_iteratorISA_PNS_11__tree_nodeISA_PvEEiEEbEERKT_DpOT0_
6524:__Z19StandardizePathNameRKN4core12basic_stringIcNS_20StringStorageDefaultIcEEEE
6525:__ZNSt3__26__treeINS_12__value_typeIN4core12basic_stringIcNS2_20StringStorageDefaultIcEEEEPN16MemoryFileSystem4NodeEEENS_19__map_value_compareIS6_SA_NS_4lessIS6_EELb1EEE13stl_allocatorISA_L18MemLabelIdentifier55ELi16EEE7destroyEPNS_11__tree_nodeISA_PvEE
6526:__ZNK10GpuProgram11IsSupportedEv
6527:__ZN22VertexDeclarationCacheD2Ev
6528:__ZNSt3__26__treeINS_12__value_typeI18VertexChannelsInfoP17VertexDeclarationEENS_19__map_value_compareIS2_S5_NS_4lessIS2_EELb1EEE13stl_allocatorIS5_L18MemLabelIdentifier15ELi16EEE7destroyEPNS_11__tree_nodeIS5_PvEE
6529:__ZN9GfxDeviceD2Ev
6530:__ZN9GfxDevice15InvalidateStateEv
6531:__ZN9GfxDevice18BeforePluginRenderEv
6532:__ZN9GfxDevice13SetActiveTierE12GraphicsTier
6533:__ZN9GfxDevice20SetMaxBufferedFramesEi
6534:__ZN9GfxDevice25SetInvertProjectionMatrixEb
6535:__ZN9GfxDevice29GetMinimumNodesPerGraphicsJobEv
6536:__ZN9GfxDevice34SetStencilRefWhenStencilWasSkippedEi
6537:__ZN9GfxDevice21SetWorldMatrixAndTypeERK10Matrix4x4f13TransformType
6538:__ZN9GfxDevice14SetWorldMatrixERK10Matrix4x4f
6539:__ZN9GfxDevice13SetViewMatrixERK10Matrix4x4f
6540:__ZN9GfxDevice19SetProjectionMatrixERK10Matrix4x4f
6541:__ZN9GfxDevice26UpdateViewProjectionMatrixEv
6542:__ZN9GfxDevice32UpdateStereoViewProjectionMatrixE21MonoOrStereoscopicEye
6543:__ZN9GfxDevice15SetStereoMatrixE21MonoOrStereoscopicEye24BuiltinShaderMatrixParamRK10Matrix4x4f
6544:__ZN9GfxDevice15GetStereoMatrixE21MonoOrStereoscopicEye24BuiltinShaderMatrixParamR10Matrix4x4f
6545:__ZN9GfxDevice17SetStereoViewportE15StereoscopicEyeRK5RectTIiE
6546:__ZN9GfxDevice21SetStereoScissorRectsEPK5RectTIiE
6547:__ZN9GfxDevice26SetSinglePassStereoEyeMaskE13TargetEyeMask
6548:__ZN9GfxDevice19SaveStereoConstantsEv
6549:__ZN9GfxDevice22RestoreStereoConstantsEv
6550:__ZNK9GfxDevice18GetWorldViewMatrixEv
6551:__ZNK9GfxDevice14GetWorldMatrixEv
6552:__ZNK9GfxDevice13GetViewMatrixEv
6553:__ZNK9GfxDevice19GetProjectionMatrixEv
6554:__ZNK9GfxDevice25GetDeviceProjectionMatrixEv
6555:__ZNK9GfxDevice31CalculateDeviceProjectionMatrixER10Matrix4x4fbb
6556:__ZNK9GfxDevice27GetPlatformAdjustedViewportEv
6557:__ZN9GfxDevice25SetShaderPropertiesSharedERK19ShaderPropertySheet
6558:__ZN9GfxDevice16CreateGpuProgramE20ShaderGpuProgramTypeRK13dynamic_arrayIhLj0EER22CreateGpuProgramOutput
6559:__ZN9GfxDevice18MapConstantBuffersEPPvPK5CbKeyPjj
6560:__ZN9GfxDevice20UnmapConstantBuffersER8JobFencePPvPK5CbKeyPjj
6561:__ZN9GfxDevice22GetDefaultVertexBufferE26GfxDefaultVertexBufferTypej
6562:__ZN9GfxDevice11DrawBuffersEP9GfxBufferiPK18VertexStreamSourceiPK16DrawBuffersRangeiP17VertexDeclaration
6563:__ZN9GfxDevice28ScheduleGeometryJobsInternalEPFvP15GeometryJobDataEPK22GeometryJobInstructionj
6564:__ZN9GfxDevice33ScheduleComputeBufferJobsInternalEPFvP20ComputeBufferJobDataEPFvRK8JobFenceEPK27ComputeBufferJobInstructionj
6565:__ZN9GfxDevice38ScheduleDynamicVBOGeometryJobsInternalEPFvP25DynamicVBOGeometryJobDatajEPFvS1_EPFvRK8JobFenceES1_j16GfxPrimitiveTypeP21DynamicVBOChunkHandle
6566:__ZN9GfxDevice19PutGeometryJobFenceE13UniqueSmallID
6567:__ZN9GfxDevice19EndGeometryJobFrameEv
6568:__ZN9GfxDevice16EndAsyncJobFrameEv
6569:__ZN9GfxDevice20BeginDynamicBatchingE17ShaderChannelMaskS0_jP17VertexDeclarationjj16GfxPrimitiveType
6570:__ZN9GfxDevice16DynamicBatchMeshERK10Matrix4x4fPKhjjPKtj26GfxTransformVerticesParams25GfxTransformVerticesFlagsj
6571:__ZN9GfxDevice18EndDynamicBatchingE13TransformType
6572:__ZN9GfxDevice14AddSetPassStatEv
6573:__ZN9GfxDevice21ReleaseSharedMeshDataEP14SharedMeshData
6574:__ZN9GfxDevice24ReleaseSharedTextureDataEP17SharedTextureData
6575:__ZN9GfxDevice25ReleaseAsyncCommandHeaderEPN21GfxDeviceAsyncCommand3ArgE
6576:__ZN9GfxDevice23CreateGPUSkinPoseBufferEv
6577:__ZN9GfxDevice9SkinOnGPUEPK18VertexStreamSourceiP17GPUSkinPoseBufferP9GfxBufferiiP17VertexDeclaration17ShaderChannelMaskb
6578:__ZN9GfxDevice15ComputeSkinningEPK18VertexStreamSourceiP9GfxBufferS4_ii17ShaderChannelMask
6579:__ZN9GfxDevice27UpdateComputeSkinPoseBufferEP9GfxBufferP20MatrixArrayJobOutput
6580:__ZN9GfxDevice24CreateRenderColorSurfaceE9TextureIDiiii16TextureDimension19RenderTextureFormat18SurfaceCreateFlags
6581:__ZN9GfxDevice24CreateRenderDepthSurfaceE9TextureIDiiii16TextureDimension17DepthBufferFormat18SurfaceCreateFlags
6582:__ZN9GfxDevice20DestroyRenderSurfaceER12ObjectHandleI17RenderSurface_TagP17RenderSurfaceBaseE
6583:__ZNK9GfxDevice22GetActiveRenderTargetsERA8_12ObjectHandleI17RenderSurface_TagP17RenderSurfaceBaseERS4_
6584:__ZNK9GfxDevice27GetActiveRenderSurfaceWidthEv
6585:__ZNK9GfxDevice28GetActiveRenderSurfaceHeightEv
6586:__ZNK9GfxDevice23IsRenderingToBackBufferEv
6587:__ZN9GfxDevice25GetBackBufferColorSurfaceEv
6588:__ZN9GfxDevice25GetBackBufferDepthSurfaceEv
6589:__ZN9GfxDevice30SetBackBufferColorDepthSurfaceEP17RenderSurfaceBaseS1_
6590:__ZN9GfxDevice18AllocRenderSurfaceEb
6591:__ZN9GfxDevice20DeallocRenderSurfaceEP17RenderSurfaceBase
6592:__ZN9GfxDevice46SwitchColorRenderSurfaceIntoFastMemoryPlatformEP17RenderSurfaceBase12SurfaceUsage15FastMemoryFlagsbf
6593:__ZN9GfxDevice46SwitchDepthRenderSurfaceIntoFastMemoryPlatformEP17RenderSurfaceBaseb12SurfaceUsage15FastMemoryFlagsbf
6594:__ZN9GfxDevice19ResizeRenderSurfaceEP17RenderSurfaceBaseff
6595:__ZN9GfxDevice21CopyRenderSurfaceDescEP17RenderSurfaceBasePKS0_
6596:__ZN9GfxDevice25IsRenderTargetConfigValidEjj19RenderTextureFormat17DepthBufferFormat
6597:__ZN9GfxDevice15CreateTextureIDEv
6598:__ZN9GfxDevice13FreeTextureIDE9TextureID
6599:__ZN9GfxDevice21RegisterNativeTextureE9TextureIDi16TextureDimension
6600:__ZN9GfxDevice23UnregisterNativeTextureE9TextureID
6601:__ZN9GfxDevice22UploadTextureCubeArrayE9TextureIDPKhjii14GraphicsFormati18TextureUploadFlags
6602:__ZN9GfxDevice11CopyTextureE9TextureIDiiiiiiiS0_iiiii
6603:__ZN9GfxDevice19CreateSparseTextureE9TextureIDii14GraphicsFormati
6604:__ZN9GfxDevice12PresentFrameE17ShaderChannelMask
6605:__ZN9GfxDevice21SwapDynamicVBOBuffersEj
6606:__ZN9GfxDevice15ImmediateVertexEfff
6607:__ZN9GfxDevice15ImmediateNormalEfff
6608:__ZN9GfxDevice14ImmediateColorEffff
6609:__ZN9GfxDevice20ImmediateTexCoordAllEfff
6610:__ZN9GfxDevice17ImmediateTexCoordEifff
6611:__ZN9GfxDevice14ImmediateBeginE16GfxPrimitiveType16VertexInputMasks
6612:__ZN9GfxDevice12ImmediateEndEv
6613:__ZN9GfxDevice15ResetFrameStatsEv
6614:__ZN9GfxDevice15BeginFrameStatsEv
6615:__ZN9GfxDevice13EndFrameStatsEv
6616:__ZN9GfxDevice13SaveDrawStatsEv
6617:__ZN9GfxDevice16RestoreDrawStatsEv
6618:__ZN9GfxDevice18SetGlobalDepthBiasEff
6619:__ZNK9GfxDevice18GetGlobalDepthBiasERfS0_
6620:__ZNK9GfxDevice18GetDefaultRTFormatEv
6621:__ZNK9GfxDevice21GetDefaultHDRRTFormatEv
6622:__ZN9GfxDevice33InsertCustomMarkerCallbackAndDataEPFviPvEiS0_j
6623:__ZN9GfxDevice31InsertCustomBlitCallbackAndDataEPFviPvER33UnityRenderingExtCustomBlitParams
6624:__ZN9GfxDevice18InsertCustomMarkerEi
6625:__ZN9GfxDevice26InsertCustomMarkerCallbackEPFviEi
6626:__ZN9GfxDevice21CreateComputeBufferIDEv
6627:__ZN9GfxDevice23CreateAsyncReadbackDataEv
6628:__ZN9GfxDevice23DeleteAsyncReadbackDataEP20GfxAsyncReadbackData
6629:__ZN9GfxDevice24RequestAsyncReadbackDataEP20GfxAsyncReadbackDataRK27GfxAsyncReadbackRequestDesc
6630:__ZN9GfxDevice30ResolveComputeProgramResourcesE12ObjectHandleI18ComputeProgram_TagPvER19ComputeShaderKernelR13dynamic_arrayI15ComputeShaderCBLj0EERS6_I18ComputeShaderParamLj0EEb
6631:__ZN9GfxDevice19SetSinglePassStereoE16SinglePassStereo
6632:__ZN9GfxDevice19AsyncResourceUploadEii
6633:__ZN9GfxDevice23SyncAsyncResourceUploadE10AsyncFencei
6634:__ZNK9GfxDevice16StoreContextDataEP14GfxContextData
6635:__ZN9GfxDevice16ApplyContextDataEPK14GfxContextData
6636:__ZN9GfxDevice19CopyContextDataFromEPKS_
6637:__ZN9GfxDevice12ExecuteAsyncEiPFvPN21GfxDeviceAsyncCommand10ArgScratchEPKNS0_3ArgEEPS2_S5_RK8JobFence
6638:__ZN9GfxDevice26UpdateRenderSurfaceWrapperER12ObjectHandleI17RenderSurface_TagP17RenderSurfaceBaseES3_17DepthBufferFormat
6639:__ZN9GfxDevice27CleanupRenderSurfaceWrapperER12ObjectHandleI17RenderSurface_TagP17RenderSurfaceBaseE
6640:__ZN9GfxDevice19BeginRenderPassImplERK15RenderPassSetup
6641:__ZN9GfxDevice15NextSubPassImplEv
6642:__ZN9GfxDevice17EndRenderPassImplEv
6643:__ZN7Texture15FindTextureByIDE9TextureID
6644:__ZN19ShaderPropertySheet24SetTextureWithExplicitIDERK23FastTexturePropertyNameP7Texture9TextureID
6645:__ZNSt3__26vectorIN9GfxDevice14SubPassActionsENS_9allocatorIS2_EEE6resizeEj
6646:__ZNSt3__26vectorIN9GfxDevice14SubPassActionsENS_9allocatorIS2_EEE8__appendEj
6647:__ZNSt3__26vectorIN9GfxDevice14SubPassActionsENS_9allocatorIS2_EEE26__swap_out_circular_bufferERNS_14__split_bufferIS2_RS4_EE
6648:__ZN24BuiltinShaderParamValuesC2Ev
6649:__ZN18AsyncUploadManager27AsyncResourceUploadBlockingER9GfxDeviceiiR10AsyncFence
6650:__ZN18AsyncUploadManager19AsyncResourceUploadER9GfxDeviceii
6651:__ZN18AsyncUploadManager23HandleAsyncReadCommandsEv
6652:__ZN18AsyncUploadManager28ManageUploadRingBufferMemoryEi
6653:__ZN18AsyncUploadManager18ScheduleAsyncReadsEv
6654:__ZN18AsyncUploadManager17ScheduleAsyncReadEP10AtomicNodeP16AsyncReadCommand
6655:__Z19PluginsRenderMarkeri
6656:__ZN14GfxDeviceStats16CopyAllDrawStatsERKS_
6657:__ZN14GfxDeviceStats15CopyClientStatsERKS_
6658:__ZN14GfxDeviceStats19EndClientFrameStatsEv
6659:__ZN14GfxDeviceStats10ResetFrameEv
6660:__ZN13DrawImmediate11FlushBufferEv
6661:__ZN13DrawImmediate5BeginE16GfxPrimitiveType16VertexInputMasksNS_9DrawFlagsE
6662:__ZN13DrawImmediate8TexCoordEifff
6663:__ZN13DrawImmediate11TexCoordAllEfff
6664:__ZN13DrawImmediate6VertexEfff
6665:__ZN21ScalableBufferManager23UnregisterRenderSurfaceEP17RenderSurfaceBaseb
6666:__ZN13ComputeShader13SetValueParamERKN9ShaderLab16FastPropertyNameEiPKvb
6667:__ZN13ComputeShader14SetBufferParamEjRKN9ShaderLab16FastPropertyNameE15ComputeBufferIDb
6668:__ZN13ComputeShader21DispatchComputeShaderEjiiiP17ShaderPassContext
6669:__ZN13ComputeShader14BeforeDispatchEjP17ShaderPassContext
6670:__ZN13ComputeShader16ValidateDispatchEj
6671:__ZN13ComputeShader15SetTextureParamEjRKN9ShaderLab16FastPropertyNameE9TextureID16TextureDimensionbb
6672:__ZN12GPUFencePool28ClearCompletedFencesInternalEv
6673:__ZN16GeometryJobTasks19PutGeometryJobFenceER9GfxDevicej
6674:__ZN17UniqueIDGenerator17DestroyAllIndicesEv
6675:__ZN13ComputeBuffer7SetDataER9GfxDevicePKvjj
6676:__ZN17UniqueIDGenerator9DestroyIDE13UniqueSmallID
6677:__ZN16GeometryJobTasks30ScheduleDynamicVBOGeometryJobsER9GfxDevicePFvP25DynamicVBOGeometryJobDatajEPFvS3_EPFvRK8JobFenceES3_j16GfxPrimitiveTypeP21DynamicVBOChunkHandle
6678:__ZN16GeometryJobTasks25ScheduleComputeBufferJobsER9GfxDevicePFvP20ComputeBufferJobDataEPFvRK8JobFenceEPK27ComputeBufferJobInstructionj
6679:__ZN13dynamic_arrayIN16GeometryJobTasks15GeometryJobTaskELj0EE18resize_initializedEjRKS1_12ResizePolicy
6680:__ZN16GeometryJobTasks20ScheduleGeometryJobsER9GfxDevicePFvP15GeometryJobDataEPK22GeometryJobInstructionj
6681:__ZN9GfxDevice25CreateDefaultVertexBufferE26GfxDefaultVertexBufferTypej
6682:__Z16CreateGpuProgram20ShaderGpuProgramTypeRK13dynamic_arrayIhLj0EER22CreateGpuProgramOutput
6683:__ZN18GlslGpuProgramGLESC2ERK13dynamic_arrayIhLj0EER22CreateGpuProgramOutput
6684:__ZN18GlslGpuProgramGLES6CreateERK13dynamic_arrayIhLj0EER17ShaderChannelMask
6685:__ZN22CreateGpuProgramOutput12CreateParamsEv
6686:__ZN4gles14UseGLSLProgramER15DeviceStateGLESjbij
6687:__Z18FillParamsBaseGLESjR20GpuProgramParametersP16PropertyNamesSetP20ActiveUniformIndicesi
6688:__ZN16UniformCacheGLES6CreateERK13dynamic_arrayIN20GpuProgramParameters14ValueParameterELj0EERS0_IiLj0EE
6689:__ZN18GlslGpuProgramGLES5ClearEv
6690:__ZN7ApiGLES13DeleteProgramERj
6691:__ZNSt3__214__split_bufferIN20GpuProgramParameters14ConstantBufferERNS_9allocatorIS2_EEED2Ev
6692:__ZNSt3__26vectorIN20GpuProgramParameters14ConstantBufferENS_9allocatorIS2_EEE21__push_back_slow_pathIRKS2_EEvOT_
6693:__ZN4glsl20IsStructArrayUniformEPKcRN4core12basic_stringIcNS2_20StringStorageDefaultIcEEEES7_RiS7_
6694:__ZNSt3__26vectorIN20GpuProgramParameters15StructParameterENS_9allocatorIS2_EEE21__push_back_slow_pathIS2_EEvOT_
6695:__ZN4glsl22IsShaderParameterArrayEPKciiPb
6696:__ZN20GpuProgramParameters14AddVectorParamEPKcii15ShaderParamTypeiiiP16PropertyNamesSet
6697:__ZN20GpuProgramParameters23AddMatrixParamWithFlagsEPKcii15ShaderParamTypeiiiiNS_14ValueParameter5FlagsEP16PropertyNamesSet
6698:__ZNK13TranslateGLES26GetTextureSamplerDimensionEj
6699:__ZN20GpuProgramParameters14AddBufferParamEPKciP16PropertyNamesSetii
6700:__ZN20GpuProgramParameters15AddTextureParamEPKciib16TextureDimensionP16PropertyNamesSet
6701:__ZN20GpuProgramParameters36UpdatePrepareValuesMaximumBufferSizeEv
6702:__ZNSt3__26__treeINS_12__value_typeIiiEENS_19__map_value_compareIiS2_NS_4lessIiEELb1EEE13stl_allocatorIS2_L18MemLabelIdentifier1ELi16EEE7destroyEPNS_11__tree_nodeIS2_PvEE
6703:__ZNSt3__26__sortIR25ValueParameterArraySorterPN20GpuProgramParameters14ValueParameterEEEvT0_S6_T_
6704:__ZNSt3__27__sort3IR25ValueParameterArraySorterPN20GpuProgramParameters14ValueParameterEEEjT0_S6_S6_T_
6705:__ZNSt3__27__sort4IR25ValueParameterArraySorterPN20GpuProgramParameters14ValueParameterEEEjT0_S6_S6_S6_T_
6706:__ZNSt3__27__sort5IR25ValueParameterArraySorterPN20GpuProgramParameters14ValueParameterEEEjT0_S6_S6_S6_S6_T_
6707:__ZNSt3__218__insertion_sort_3IR25ValueParameterArraySorterPN20GpuProgramParameters14ValueParameterEEEvT0_S6_T_
6708:__ZNSt3__227__insertion_sort_incompleteIR25ValueParameterArraySorterPN20GpuProgramParameters14ValueParameterEEEbT0_S6_T_
6709:__Z27IsShaderInstanceMatrixParamPKcPi
6710:__ZN7ApiGLES11BindProgramEjb
6711:__ZN7ApiGLES16SetPatchVerticesEi
6712:__ZN7ApiGLES16EnableClipPlanesEj
6713:__ZN4glsl18ExtractDefineBlockERKN4core12basic_stringIcNS0_20StringStorageDefaultIcEEEES6_PS4_
6714:__Z4TrimRKN4core12basic_stringIcNS_20StringStorageDefaultIcEEEES5_
6715:__ZN18GlslGpuProgramGLES14CompileProgramERjRKN4core12basic_stringIcNS1_20StringStorageDefaultIcEEEES7_S7_S7_S7_R17ShaderChannelMaski
6716:__ZN18GlslGpuProgramGLES25LoadFromBinaryShaderCacheERjRKN4core12basic_stringIcNS1_20StringStorageDefaultIcEEEER17ShaderChannelMaskPKc
6717:__ZL39PatchShaderSourceForAdrenoES3WorkaroundRKN4core12basic_stringIcNS_20StringStorageDefaultIcEEEEPS3_
6718:__ZL48PatchShaderSourceTransposeRedefinitionWorkaroundRKN4core12basic_stringIcNS_20StringStorageDefaultIcEEEEPS3_
6719:__ZN7ApiGLES12CreateShaderEN2gl11ShaderStageEPKc
6720:__ZL21CompileFragmentShaderRKN4core12basic_stringIcNS_20StringStorageDefaultIcEEEEb
6721:__ZN7ApiGLES11CheckShaderERjbi
6722:__ZN7ApiGLES21CreateGraphicsProgramEjjjjj
6723:__ZL27BindVertexProgramAttributesRKN4core12basic_stringIcNS_20StringStorageDefaultIcEEEEjR17ShaderChannelMask
6724:__ZN7ApiGLES13DetachShadersEjjjjjj
6725:__ZN7ApiGLES12CheckProgramERj
6726:__ZN18GlslGpuProgramGLES24StoreInBinaryShaderCacheEjPKc
6727:__ZN7ApiGLES12DeleteShaderERj
6728:__ZL31SplitSourceIntoHeaderAndProgramPKcPN4core12basic_stringIcNS1_20StringStorageDefaultIcEEEES6_
6729:__ZN18GlslGpuProgramGLESD2Ev
6730:__ZN18GlslGpuProgramGLESD0Ev
6731:__ZN18GlslGpuProgramGLES18ShaderPatchingInfoD2Ev
6732:__ZN26SinglePassStereoSupportExt22RestoreStereoConstantsEv
6733:__ZN26SinglePassStereoSupportExt21SetStereoScissorRectsEPK5RectTIiE
6734:__ZN26SinglePassStereoSupportExt17SetStereoViewportE15StereoscopicEyeRK5RectTIiEb
6735:__ZNK26SinglePassStereoSupportExt17GetStereoViewportE15StereoscopicEye
6736:__ZN26SinglePassStereoSupportExt15GetStereoMatrixE21MonoOrStereoscopicEye24BuiltinShaderMatrixParamR10Matrix4x4f
6737:__ZN26SinglePassStereoSupportExt23SetupStereoMatrixParamsE21MonoOrStereoscopicEye24BuiltinShaderMatrixParamRK10Matrix4x4f
6738:__ZN26SinglePassStereoSupportExt21SetStereoMatrixCommonE21MonoOrStereoscopicEye24BuiltinShaderMatrixParamRK10Matrix4x4f
6739:__ZN26SinglePassStereoSupportExt32UpdateStereoViewProjectionMatrixE21MonoOrStereoscopicEyeb
6740:__ZN13DrawImmediate10InvalidateEv
6741:__ZN9GfxDevice8OnDeleteEv
6742:__ZNSt3__26__treeINS_12__value_typeI9TextureIDjEENS_19__map_value_compareIS2_S3_NS_4lessIS2_EELb1EEENS_9allocatorIS3_EEE7destroyEPNS_11__tree_nodeIS3_PvEE
6743:__ZN15RenderPassSetupD2Ev
6744:__ZNK17InstancingBatcher15RenderInstancesERK19ShaderPropertySheetRKNS_22RenderInstancesConfigsERK11MeshBuffersRK16DrawBuffersRange16VertexInputMasks
6745:__ZN19ShaderPropertySheet9SetMatrixEN9ShaderLab16FastPropertyNameERK10Matrix4x4fNS_8SetFlagsE
6746:__ZN19ShaderPropertySheet16SetComputeBufferEN9ShaderLab16FastPropertyNameE15ComputeBufferIDNS_8SetFlagsE
6747:__ZNK17InstancingBatcher25FillInstanceBufferWithJobIN10Instancing11DrawAPIArgsEEEvR8JobFenceR13dynamic_arrayIPvLj0EEjjRKT_
6748:__ZN10Instancing11DrawAPIArgsaSERKS0_
6749:__ZL17InstanceBufferJobIN10Instancing11DrawAPIArgsEEvP21InstanceBufferJobDataIT_E
6750:__ZNK15InstancingProps35FillInstanceBufferDispatchConstantsIN10Instancing11DrawAPIArgsEEEvPPvjjRK19ShaderPropertySheetRKT_
6751:__ZN10Instancing11DrawAPIArgsC2Ev
6752:__ZN10Instancing11DrawAPIArgsD2Ev
6753:__ZN10Instancing11DrawAPIArgsC2ERK19ShaderPropertySheetPK8Vector4fS6_S6_i
6754:__ZN16ScriptingManagerD2Ev
6755:__ZN16ScriptingManagerD0Ev
6756:__ZNSt3__26__treeINS_12__value_typeIiP15MonoScriptCacheEENS_19__map_value_compareIiS4_NS_4lessIiEELb1EEE13stl_allocatorIS4_L18MemLabelIdentifier79ELi16EEE7destroyEPNS_11__tree_nodeIS4_PvEE
6757:__ZN11MonoManagerD2Ev
6758:__ZN11MonoManagerD0Ev
6759:__ZN11MonoManager13AwakeFromLoadE17AwakeFromLoadMode
6760:__ZNK11MonoManager22GetTypeVirtualInternalEv
6761:__ZN11MonoManager23VirtualRedirectTransferER19StreamedBinaryWrite
6762:__ZN11MonoManager23VirtualRedirectTransferER18StreamedBinaryRead
6763:__ZN11MonoManager23VirtualRedirectTransferER17RemapPPtrTransfer
6764:__ZN11MonoManager23VirtualRedirectTransferER24GenerateTypeTreeTransfer
6765:__ZN11MonoManager23VirtualRedirectTransferER14SafeBinaryRead
6766:__ZN11MonoManager8TransferI14SafeBinaryReadEEvRT_
6767:__ZN14SafeBinaryRead21TransferSTLStyleArrayI10vector_setI4PPtrI10MonoScriptENSt3__24lessIS4_EE13stl_allocatorIS4_L18MemLabelIdentifier79ELi16EEEEEvRT_17TransferMetaFlags
6768:__ZNSt3__26vectorI4PPtrI10MonoScriptE13stl_allocatorIS3_L18MemLabelIdentifier79ELi16EEE8__appendEj
6769:__ZN11MonoManager8TransferI24GenerateTypeTreeTransferEEvRT_
6770:__ZN15SerializeTraitsI11MonoManagerE8TransferI18StreamedBinaryReadEEvRS0_RT_
6771:__ZN11MonoManager8TransferI19StreamedBinaryWriteEEvRT_
6772:__ZN11MonoManager14LoadAssembliesEv
6773:__ZN11MonoManager29RebuildCommonScriptingClassesEv
6774:__ZN16ScriptingManager33RebuildNativeTypeToScriptingClassEv
6775:__Z17ExtractStacktraceRKN4core12basic_stringIcNS_20StringStorageDefaultIcEEEERS3_S6_iS6_Piii
6776:__Z48AddCommonTransferFunctionsToScriptingTraitsCachev
6777:__Z44InitializeTransferFunctionScriptingTraitsForI18StreamedBinaryReadEvR31TransferFunctionScriptingTraits
6778:__Z41AddTransferFunctionScriptingTraitsToCacheRK12TransferTypePK31TransferFunctionScriptingTraits
6779:__Z44InitializeTransferFunctionScriptingTraitsForI19StreamedBinaryWriteEvR31TransferFunctionScriptingTraits
6780:__Z44InitializeTransferFunctionScriptingTraitsForI24GenerateTypeTreeTransferEvR31TransferFunctionScriptingTraits
6781:__Z44InitializeTransferFunctionScriptingTraitsForI17RemapPPtrTransferEvR31TransferFunctionScriptingTraits
6782:__Z44InitializeTransferFunctionScriptingTraitsForI14SafeBinaryReadEvR31TransferFunctionScriptingTraits
6783:__Z18Transfer_BlittableI14SafeBinaryReadLb0EiEvRK29SerializationCommandArgumentsR31RuntimeSerializationCommandInfo
6784:__Z18Transfer_BlittableI14SafeBinaryReadLb1EiEvRK29SerializationCommandArgumentsR31RuntimeSerializationCommandInfo
6785:__Z35Transfer_Blittable_FixedBufferFieldI14SafeBinaryReadiEvRK29SerializationCommandArgumentsR31RuntimeSerializationCommandInfo
6786:__ZN13dynamic_arrayIN31TransferFunctionScriptingTraits12CommandGroupELj0EE9push_backERKS1_
6787:__Z18Transfer_BlittableI14SafeBinaryReadLb0EhEvRK29SerializationCommandArgumentsR31RuntimeSerializationCommandInfo
6788:__Z18Transfer_BlittableI14SafeBinaryReadLb1EhEvRK29SerializationCommandArgumentsR31RuntimeSerializationCommandInfo
6789:__Z35Transfer_Blittable_FixedBufferFieldI14SafeBinaryReadhEvRK29SerializationCommandArgumentsR31RuntimeSerializationCommandInfo
6790:__Z18Transfer_BlittableI14SafeBinaryReadLb0EfEvRK29SerializationCommandArgumentsR31RuntimeSerializationCommandInfo
6791:__Z18Transfer_BlittableI14SafeBinaryReadLb1EfEvRK29SerializationCommandArgumentsR31RuntimeSerializationCommandInfo
6792:__Z35Transfer_Blittable_FixedBufferFieldI14SafeBinaryReadfEvRK29SerializationCommandArgumentsR31RuntimeSerializationCommandInfo
6793:__Z15Transfer_StringI14SafeBinaryReadLb0EEvRK29SerializationCommandArgumentsR31RuntimeSerializationCommandInfo
6794:__Z15Transfer_StringI14SafeBinaryReadLb1EEvRK29SerializationCommandArgumentsR31RuntimeSerializationCommandInfo
6795:__Z18Transfer_BlittableI14SafeBinaryReadLb0E8Vector3fEvRK29SerializationCommandArgumentsR31RuntimeSerializationCommandInfo
6796:__Z18Transfer_BlittableI14SafeBinaryReadLb1E8Vector3fEvRK29SerializationCommandArgumentsR31RuntimeSerializationCommandInfo
6797:__Z18Transfer_BlittableI14SafeBinaryReadLb0EN4math12int3_storageEEvRK29SerializationCommandArgumentsR31RuntimeSerializationCommandInfo
6798:__Z18Transfer_BlittableI14SafeBinaryReadLb1EN4math12int3_storageEEvRK29SerializationCommandArgumentsR31RuntimeSerializationCommandInfo
6799:__Z18Transfer_BlittableI14SafeBinaryReadLb0E8Vector2fEvRK29SerializationCommandArgumentsR31RuntimeSerializationCommandInfo
6800:__Z18Transfer_BlittableI14SafeBinaryReadLb1E8Vector2fEvRK29SerializationCommandArgumentsR31RuntimeSerializationCommandInfo
6801:__Z18Transfer_BlittableI14SafeBinaryReadLb0EN4math12int2_storageEEvRK29SerializationCommandArgumentsR31RuntimeSerializationCommandInfo
6802:__Z18Transfer_BlittableI14SafeBinaryReadLb1EN4math12int2_storageEEvRK29SerializationCommandArgumentsR31RuntimeSerializationCommandInfo
6803:__Z18Transfer_BlittableI14SafeBinaryReadLb0E11QuaternionfEvRK29SerializationCommandArgumentsR31RuntimeSerializationCommandInfo
6804:__Z18Transfer_BlittableI14SafeBinaryReadLb1E11QuaternionfEvRK29SerializationCommandArgumentsR31RuntimeSerializationCommandInfo
6805:__Z18Transfer_BlittableI14SafeBinaryReadLb0E10ColorRGBAfEvRK29SerializationCommandArgumentsR31RuntimeSerializationCommandInfo
6806:__Z18Transfer_BlittableI14SafeBinaryReadLb1E10ColorRGBAfEvRK29SerializationCommandArgumentsR31RuntimeSerializationCommandInfo
6807:__Z18Transfer_BlittableI14SafeBinaryReadLb0E4AABBEvRK29SerializationCommandArgumentsR31RuntimeSerializationCommandInfo
6808:__Z18Transfer_BlittableI14SafeBinaryReadLb1E4AABBEvRK29SerializationCommandArgumentsR31RuntimeSerializationCommandInfo
6809:__Z18Transfer_BlittableI14SafeBinaryReadLb0E9BoundsIntEvRK29SerializationCommandArgumentsR31RuntimeSerializationCommandInfo
6810:__Z18Transfer_BlittableI14SafeBinaryReadLb1E9BoundsIntEvRK29SerializationCommandArgumentsR31RuntimeSerializationCommandInfo
6811:__Z18Transfer_BlittableI14SafeBinaryReadLb0EsEvRK29SerializationCommandArgumentsR31RuntimeSerializationCommandInfo
6812:__Z18Transfer_BlittableI14SafeBinaryReadLb1EsEvRK29SerializationCommandArgumentsR31RuntimeSerializationCommandInfo
6813:__Z35Transfer_Blittable_FixedBufferFieldI14SafeBinaryReadsEvRK29SerializationCommandArgumentsR31RuntimeSerializationCommandInfo
6814:__Z18Transfer_BlittableI14SafeBinaryReadLb0ExEvRK29SerializationCommandArgumentsR31RuntimeSerializationCommandInfo
6815:__Z18Transfer_BlittableI14SafeBinaryReadLb1ExEvRK29SerializationCommandArgumentsR31RuntimeSerializationCommandInfo
6816:__Z35Transfer_Blittable_FixedBufferFieldI14SafeBinaryReadxEvRK29SerializationCommandArgumentsR31RuntimeSerializationCommandInfo
6817:__Z18Transfer_BlittableI14SafeBinaryReadLb0EtEvRK29SerializationCommandArgumentsR31RuntimeSerializationCommandInfo
6818:__Z18Transfer_BlittableI14SafeBinaryReadLb1EtEvRK29SerializationCommandArgumentsR31RuntimeSerializationCommandInfo
6819:__Z35Transfer_Blittable_FixedBufferFieldI14SafeBinaryReadtEvRK29SerializationCommandArgumentsR31RuntimeSerializationCommandInfo
6820:__Z18Transfer_BlittableI14SafeBinaryReadLb0E8Vector4fEvRK29SerializationCommandArgumentsR31RuntimeSerializationCommandInfo
6821:__Z18Transfer_BlittableI14SafeBinaryReadLb1E8Vector4fEvRK29SerializationCommandArgumentsR31RuntimeSerializationCommandInfo
6822:__Z18Transfer_BlittableI14SafeBinaryReadLb0E5RectTIfEEvRK29SerializationCommandArgumentsR31RuntimeSerializationCommandInfo
6823:__Z18Transfer_BlittableI14SafeBinaryReadLb1E5RectTIfEEvRK29SerializationCommandArgumentsR31RuntimeSerializationCommandInfo
6824:__Z18Transfer_BlittableI14SafeBinaryReadLb0E5RectTIiEEvRK29SerializationCommandArgumentsR31RuntimeSerializationCommandInfo
6825:__Z18Transfer_BlittableI14SafeBinaryReadLb1E5RectTIiEEvRK29SerializationCommandArgumentsR31RuntimeSerializationCommandInfo
6826:__Z18Transfer_BlittableI14SafeBinaryReadLb0E10Matrix4x4fEvRK29SerializationCommandArgumentsR31RuntimeSerializationCommandInfo
6827:__Z18Transfer_BlittableI14SafeBinaryReadLb1E10Matrix4x4fEvRK29SerializationCommandArgumentsR31RuntimeSerializationCommandInfo
6828:__Z18Transfer_BlittableI14SafeBinaryReadLb0E11ColorRGBA32EvRK29SerializationCommandArgumentsR31RuntimeSerializationCommandInfo
6829:__Z18Transfer_BlittableI14SafeBinaryReadLb1E11ColorRGBA32EvRK29SerializationCommandArgumentsR31RuntimeSerializationCommandInfo
6830:__Z18Transfer_BlittableI14SafeBinaryReadLb0E8BitFieldEvRK29SerializationCommandArgumentsR31RuntimeSerializationCommandInfo
6831:__Z18Transfer_BlittableI14SafeBinaryReadLb1E8BitFieldEvRK29SerializationCommandArgumentsR31RuntimeSerializationCommandInfo
6832:__Z18Transfer_BlittableI14SafeBinaryReadLb0E12PropertyNameEvRK29SerializationCommandArgumentsR31RuntimeSerializationCommandInfo
6833:__Z18Transfer_BlittableI14SafeBinaryReadLb1E12PropertyNameEvRK29SerializationCommandArgumentsR31RuntimeSerializationCommandInfo
6834:__ZL26Transfer_SimpleNativeClassI14SafeBinaryRead17AnimationCurveTplIfELb0EEvRK29SerializationCommandArgumentsR31RuntimeSerializationCommandInfo
6835:__ZL26Transfer_SimpleNativeClassI14SafeBinaryRead17AnimationCurveTplIfELb1EEvRK29SerializationCommandArgumentsR31RuntimeSerializationCommandInfo
6836:__ZL26Transfer_SimpleNativeClassI14SafeBinaryRead8GradientLb0EEvRK29SerializationCommandArgumentsR31RuntimeSerializationCommandInfo
6837:__ZL26Transfer_SimpleNativeClassI14SafeBinaryRead8GradientLb1EEvRK29SerializationCommandArgumentsR31RuntimeSerializationCommandInfo
6838:__ZL26Transfer_SimpleNativeClassI14SafeBinaryRead10RectOffsetLb0EEvRK29SerializationCommandArgumentsR31RuntimeSerializationCommandInfo
6839:__ZL26Transfer_SimpleNativeClassI14SafeBinaryRead10RectOffsetLb1EEvRK29SerializationCommandArgumentsR31RuntimeSerializationCommandInfo
6840:__Z18Transfer_BlittableI14SafeBinaryReadLb0EaEvRK29SerializationCommandArgumentsR31RuntimeSerializationCommandInfo
6841:__Z18Transfer_BlittableI14SafeBinaryReadLb1EaEvRK29SerializationCommandArgumentsR31RuntimeSerializationCommandInfo
6842:__Z35Transfer_Blittable_FixedBufferFieldI14SafeBinaryReadaEvRK29SerializationCommandArgumentsR31RuntimeSerializationCommandInfo
6843:__Z18Transfer_BlittableI14SafeBinaryReadLb0EjEvRK29SerializationCommandArgumentsR31RuntimeSerializationCommandInfo
6844:__Z18Transfer_BlittableI14SafeBinaryReadLb1EjEvRK29SerializationCommandArgumentsR31RuntimeSerializationCommandInfo
6845:__Z35Transfer_Blittable_FixedBufferFieldI14SafeBinaryReadjEvRK29SerializationCommandArgumentsR31RuntimeSerializationCommandInfo
6846:__Z18Transfer_BlittableI14SafeBinaryReadLb0EyEvRK29SerializationCommandArgumentsR31RuntimeSerializationCommandInfo
6847:__Z18Transfer_BlittableI14SafeBinaryReadLb1EyEvRK29SerializationCommandArgumentsR31RuntimeSerializationCommandInfo
6848:__Z35Transfer_Blittable_FixedBufferFieldI14SafeBinaryReadyEvRK29SerializationCommandArgumentsR31RuntimeSerializationCommandInfo
6849:__Z18Transfer_BlittableI14SafeBinaryReadLb0EdEvRK29SerializationCommandArgumentsR31RuntimeSerializationCommandInfo
6850:__Z18Transfer_BlittableI14SafeBinaryReadLb1EdEvRK29SerializationCommandArgumentsR31RuntimeSerializationCommandInfo
6851:__Z35Transfer_Blittable_FixedBufferFieldI14SafeBinaryReaddEvRK29SerializationCommandArgumentsR31RuntimeSerializationCommandInfo
6852:__ZL17Transfer_GUIStyleI14SafeBinaryReadLb0EEvRK29SerializationCommandArgumentsR31RuntimeSerializationCommandInfo
6853:__ZL17Transfer_GUIStyleI14SafeBinaryReadLb1EEvRK29SerializationCommandArgumentsR31RuntimeSerializationCommandInfo
6854:__ZL12InvokeMethodI14SafeBinaryReadEvRK29SerializationCommandArgumentsR31RuntimeSerializationCommandInfo
6855:__Z30TransferField_LinearCollectionI14SafeBinaryReadEvRK29SerializationCommandArgumentsR31RuntimeSerializationCommandInfo
6856:__Z26Transfer_UnityEngineObjectI14SafeBinaryReadLb0EEvRK29SerializationCommandArgumentsR31RuntimeSerializationCommandInfo
6857:__Z26Transfer_UnityEngineObjectI14SafeBinaryReadLb1EEvRK29SerializationCommandArgumentsR31RuntimeSerializationCommandInfo
6858:__ZL22Transfer_ManagedObjectI14SafeBinaryReadLb0EEvRK29SerializationCommandArgumentsR31RuntimeSerializationCommandInfo
6859:__ZL22Transfer_ManagedObjectI14SafeBinaryReadLb1EEvRK29SerializationCommandArgumentsR31RuntimeSerializationCommandInfo
6860:__ZN14SafeBinaryRead21TransferSTLStyleArrayI31ArrayOfManagedObjectsTransfererEEvRT_17TransferMetaFlags
6861:__Z34scripting_class_array_element_size17ScriptingClassPtr
6862:__Z28scripting_array_element_size17ScriptingClassPtr
6863:__ZN9Scripting34GetScriptingArrayObjectElementImplE17ScriptingArrayPtri
6864:__ZN9Scripting29RuntimeObjectInitLogExceptionE18ScriptingObjectPtr
6865:__ZN9Scripting34SetScriptingArrayObjectElementImplE17ScriptingArrayPtri18ScriptingObjectPtr
6866:__Z30GetOrCreateObjectStoredInField17ScriptingFieldPtrR17GeneralMonoObjectb
6867:__Z24scripting_field_get_type17ScriptingFieldPtr
6868:__Z19TransferField_ArrayI14SafeBinaryRead27Converter_UnityEngineObjectEvRK23StaticTransferFieldInfoR31RuntimeSerializationCommandInfoRT0_
6869:__ZN14SafeBinaryRead21TransferSTLStyleArrayINSt3__26vectorI8MonoPPtr13stl_allocatorIS3_L18MemLabelIdentifier1ELi16EEEEEEvRT_17TransferMetaFlags
6870:__Z24TransferPPtrToMonoObjecti17ScriptingClassPtrP23DataToCreateNullWrapper24TransferInstructionFlags
6871:__Z33TransferPPtrToMonoObjectUnCheckedi24TransferInstructionFlags
6872:__ZN9Scripting32GetScriptingWrapperForInstanceIDEi
6873:__Z14resize_trimmedINSt3__26vectorI8MonoPPtr13stl_allocatorIS2_L18MemLabelIdentifier1ELi16EEEEEvRT_j
6874:__ZN14SafeBinaryRead8TransferI8MonoPPtrEEvRT_PKc17TransferMetaFlags
6875:__ZNSt3__26vectorI8MonoPPtr13stl_allocatorIS1_L18MemLabelIdentifier1ELi16EEE6assignINS_11__wrap_iterIPS1_EEEENS_9enable_ifIXaasr21__is_forward_iteratorIT_EE5valuesr16is_constructibleIS1_NS_15iterator_traitsISB_E9referenceEEE5valueEvE4typeESB_SB_
6876:__ZNSt3__26vectorI8MonoPPtr13stl_allocatorIS1_L18MemLabelIdentifier1ELi16EEE8__appendEj
6877:__ZN21LinearCollectionFieldC2ER17GeneralMonoObject17ScriptingFieldPtr
6878:__Z22scripting_array_length17ScriptingArrayPtr
6879:__ZN9Scripting27BackingArrayFieldForListOfTE17ScriptingClassPtr
6880:__Z41scripting_type_get_class_or_element_class16ScriptingTypePtr
6881:__Z25scripting_class_get_image17ScriptingClassPtr
6882:__Z20scripting_get_corlibv
6883:__Z26scripting_class_get_fields17ScriptingClassPtrRNSt3__26vectorI17ScriptingFieldPtr13stl_allocatorIS2_L18MemLabelIdentifier1ELi16EEEE
6884:__Z19TransferField_ArrayI14SafeBinaryRead27Converter_SimpleNativeClassI8GUIStyleEEvRK23StaticTransferFieldInfoR31RuntimeSerializationCommandInfoRT0_
6885:__ZN14SafeBinaryRead21TransferSTLStyleArrayINSt3__26vectorI8GUIStyle13stl_allocatorIS3_L18MemLabelIdentifier1ELi16EEEEEEvRT_17TransferMetaFlags
6886:__ZN12NativeBufferI27Converter_SimpleNativeClassI8GUIStyleEE19ProcessAfterReadingER9ArrayInfo17ScriptingClassPtr
6887:__ZN8GUIStyleaSERKS_
6888:__Z14resize_trimmedINSt3__26vectorI8GUIStyle13stl_allocatorIS2_L18MemLabelIdentifier1ELi16EEEEEvRT_j
6889:__ZN8GUIStyle8TransferI14SafeBinaryReadEEvRT_
6890:__ZN13GUIStyleState8TransferI14SafeBinaryReadEEvRT_
6891:__ZN15SerializeTraitsI10RectOffsetE8TransferI14SafeBinaryReadEEvRS0_RT_
6892:__ZNSt3__26vectorI8GUIStyle13stl_allocatorIS1_L18MemLabelIdentifier1ELi16EEE7reserveEj
6893:__ZNSt3__26vectorI8GUIStyle13stl_allocatorIS1_L18MemLabelIdentifier1ELi16EEE6assignINS_11__wrap_iterIPS1_EEEENS_9enable_ifIXaasr21__is_forward_iteratorIT_EE5valuesr16is_constructibleIS1_NS_15iterator_traitsISB_E9referenceEEE5valueEvE4typeESB_SB_
6894:__ZNSt3__26vectorI8GUIStyle13stl_allocatorIS1_L18MemLabelIdentifier1ELi16EEE8__appendEj
6895:__ZN8GUIStyleC2ERKS_
6896:__Z22TransferField_NonArrayI14SafeBinaryRead27Converter_SimpleNativeClassI8GUIStyleEEvRK23StaticTransferFieldInfoR31RuntimeSerializationCommandInfoRT0_
6897:__ZN14SafeBinaryRead21TransferSTLStyleArrayI13dynamic_arrayIdLj0EEEEvRT_17TransferMetaFlags
6898:__Z29Transfer_Blittable_ArrayFieldI14SafeBinaryReaddEvRT_R9ArrayInfoRK23StaticTransferFieldInfo
6899:__Z35Transfer_Blittable_SingleValueFieldI14SafeBinaryReaddEvRT_R17GeneralMonoObjectRK23StaticTransferFieldInfo
6900:__ZN14SafeBinaryRead21TransferSTLStyleArrayI13dynamic_arrayIyLj0EEEEvRT_17TransferMetaFlags
6901:__Z29Transfer_Blittable_ArrayFieldI14SafeBinaryReadyEvRT_R9ArrayInfoRK23StaticTransferFieldInfo
6902:__Z35Transfer_Blittable_SingleValueFieldI14SafeBinaryReadyEvRT_R17GeneralMonoObjectRK23StaticTransferFieldInfo
6903:__Z29Transfer_Blittable_ArrayFieldI14SafeBinaryReadjEvRT_R9ArrayInfoRK23StaticTransferFieldInfo
6904:__Z35Transfer_Blittable_SingleValueFieldI14SafeBinaryReadjEvRT_R17GeneralMonoObjectRK23StaticTransferFieldInfo
6905:__ZN14SafeBinaryRead21TransferSTLStyleArrayI13dynamic_arrayIaLj0EEEEvRT_17TransferMetaFlags
6906:__Z29Transfer_Blittable_ArrayFieldI14SafeBinaryReadaEvRT_R9ArrayInfoRK23StaticTransferFieldInfo
6907:__Z35Transfer_Blittable_SingleValueFieldI14SafeBinaryReadaEvRT_R17GeneralMonoObjectRK23StaticTransferFieldInfo
6908:__Z19TransferField_ArrayI14SafeBinaryRead27Converter_SimpleNativeClassI10RectOffsetEEvRK23StaticTransferFieldInfoR31RuntimeSerializationCommandInfoRT0_
6909:__ZN14SafeBinaryRead21TransferSTLStyleArrayINSt3__26vectorI10RectOffset13stl_allocatorIS3_L18MemLabelIdentifier1ELi16EEEEEEvRT_17TransferMetaFlags
6910:__ZN12NativeBufferI27Converter_SimpleNativeClassI10RectOffsetEE19ProcessAfterReadingER9ArrayInfo17ScriptingClassPtr
6911:__Z14resize_trimmedINSt3__26vectorI10RectOffset13stl_allocatorIS2_L18MemLabelIdentifier1ELi16EEEEEvRT_j
6912:__ZNSt3__26vectorI10RectOffset13stl_allocatorIS1_L18MemLabelIdentifier1ELi16EEE6assignINS_11__wrap_iterIPS1_EEEENS_9enable_ifIXaasr21__is_forward_iteratorIT_EE5valuesr16is_constructibleIS1_NS_15iterator_traitsISB_E9referenceEEE5valueEvE4typeESB_SB_
